
H2A_SECOM_MotorDriver_6_2(4).elf:     file format elf32-avr

Sections:
Idx Name          Size      VMA       LMA       File off  Algn
  0 .text         00007dce  00000000  00000000  00000094  2**1
                  CONTENTS, ALLOC, LOAD, READONLY, CODE
  1 .data         000007a0  00802000  00007dce  00007e62  2**0
                  CONTENTS, ALLOC, LOAD, DATA
  2 .bss          000006f8  008027a0  008027a0  00008602  2**0
                  ALLOC
  3 .comment      0000005c  00000000  00000000  00008602  2**0
                  CONTENTS, READONLY
  4 .note.gnu.avr.deviceinfo 00000040  00000000  00000000  00008660  2**2
                  CONTENTS, READONLY
  5 .debug_aranges 00000480  00000000  00000000  000086a0  2**3
                  CONTENTS, READONLY, DEBUGGING
  6 .debug_info   0000bcad  00000000  00000000  00008b20  2**0
                  CONTENTS, READONLY, DEBUGGING
  7 .debug_abbrev 000046d3  00000000  00000000  000147cd  2**0
                  CONTENTS, READONLY, DEBUGGING
  8 .debug_line   000038fa  00000000  00000000  00018ea0  2**0
                  CONTENTS, READONLY, DEBUGGING
  9 .debug_frame  00001314  00000000  00000000  0001c79c  2**2
                  CONTENTS, READONLY, DEBUGGING
 10 .debug_str    00005fd1  00000000  00000000  0001dab0  2**0
                  CONTENTS, READONLY, DEBUGGING
 11 .debug_loc    00005dc6  00000000  00000000  00023a81  2**0
                  CONTENTS, READONLY, DEBUGGING
 12 .debug_ranges 00000380  00000000  00000000  00029847  2**0
                  CONTENTS, READONLY, DEBUGGING

Disassembly of section .text:

00000000 <__vectors>:
       0:	0c 94 af 01 	jmp	0x35e	; 0x35e <__ctors_end>
       4:	0c 94 d0 01 	jmp	0x3a0	; 0x3a0 <__bad_interrupt>
       8:	0c 94 d0 01 	jmp	0x3a0	; 0x3a0 <__bad_interrupt>
       c:	0c 94 d0 01 	jmp	0x3a0	; 0x3a0 <__bad_interrupt>
      10:	0c 94 d0 01 	jmp	0x3a0	; 0x3a0 <__bad_interrupt>
      14:	0c 94 d0 01 	jmp	0x3a0	; 0x3a0 <__bad_interrupt>
      18:	0c 94 d0 01 	jmp	0x3a0	; 0x3a0 <__bad_interrupt>
      1c:	0c 94 d0 01 	jmp	0x3a0	; 0x3a0 <__bad_interrupt>
      20:	0c 94 d0 01 	jmp	0x3a0	; 0x3a0 <__bad_interrupt>
      24:	0c 94 d0 01 	jmp	0x3a0	; 0x3a0 <__bad_interrupt>
      28:	0c 94 d0 01 	jmp	0x3a0	; 0x3a0 <__bad_interrupt>
      2c:	0c 94 d0 01 	jmp	0x3a0	; 0x3a0 <__bad_interrupt>
      30:	0c 94 d0 01 	jmp	0x3a0	; 0x3a0 <__bad_interrupt>
      34:	0c 94 d0 01 	jmp	0x3a0	; 0x3a0 <__bad_interrupt>
      38:	0c 94 d0 01 	jmp	0x3a0	; 0x3a0 <__bad_interrupt>
      3c:	0c 94 d0 01 	jmp	0x3a0	; 0x3a0 <__bad_interrupt>
      40:	0c 94 d0 01 	jmp	0x3a0	; 0x3a0 <__bad_interrupt>
      44:	0c 94 d0 01 	jmp	0x3a0	; 0x3a0 <__bad_interrupt>
      48:	0c 94 d0 01 	jmp	0x3a0	; 0x3a0 <__bad_interrupt>
      4c:	0c 94 d0 01 	jmp	0x3a0	; 0x3a0 <__bad_interrupt>
      50:	0c 94 d0 01 	jmp	0x3a0	; 0x3a0 <__bad_interrupt>
      54:	0c 94 d0 01 	jmp	0x3a0	; 0x3a0 <__bad_interrupt>
      58:	0c 94 d0 01 	jmp	0x3a0	; 0x3a0 <__bad_interrupt>
      5c:	0c 94 d0 01 	jmp	0x3a0	; 0x3a0 <__bad_interrupt>
      60:	0c 94 d0 01 	jmp	0x3a0	; 0x3a0 <__bad_interrupt>
      64:	0c 94 d0 01 	jmp	0x3a0	; 0x3a0 <__bad_interrupt>
      68:	0c 94 d0 01 	jmp	0x3a0	; 0x3a0 <__bad_interrupt>
      6c:	0c 94 d0 01 	jmp	0x3a0	; 0x3a0 <__bad_interrupt>
      70:	0c 94 d0 01 	jmp	0x3a0	; 0x3a0 <__bad_interrupt>
      74:	0c 94 d0 01 	jmp	0x3a0	; 0x3a0 <__bad_interrupt>
      78:	0c 94 d0 01 	jmp	0x3a0	; 0x3a0 <__bad_interrupt>
      7c:	0c 94 d0 01 	jmp	0x3a0	; 0x3a0 <__bad_interrupt>
      80:	0c 94 d0 01 	jmp	0x3a0	; 0x3a0 <__bad_interrupt>
      84:	0c 94 d0 01 	jmp	0x3a0	; 0x3a0 <__bad_interrupt>
      88:	0c 94 d0 01 	jmp	0x3a0	; 0x3a0 <__bad_interrupt>
      8c:	0c 94 d0 01 	jmp	0x3a0	; 0x3a0 <__bad_interrupt>
      90:	0c 94 d0 01 	jmp	0x3a0	; 0x3a0 <__bad_interrupt>
      94:	0c 94 d0 01 	jmp	0x3a0	; 0x3a0 <__bad_interrupt>
      98:	0c 94 d0 01 	jmp	0x3a0	; 0x3a0 <__bad_interrupt>
      9c:	0c 94 d0 01 	jmp	0x3a0	; 0x3a0 <__bad_interrupt>
      a0:	0c 94 d0 01 	jmp	0x3a0	; 0x3a0 <__bad_interrupt>
      a4:	0c 94 d0 01 	jmp	0x3a0	; 0x3a0 <__bad_interrupt>
      a8:	0c 94 d0 01 	jmp	0x3a0	; 0x3a0 <__bad_interrupt>
      ac:	0c 94 d0 01 	jmp	0x3a0	; 0x3a0 <__bad_interrupt>
      b0:	0c 94 d0 01 	jmp	0x3a0	; 0x3a0 <__bad_interrupt>
      b4:	0c 94 d0 01 	jmp	0x3a0	; 0x3a0 <__bad_interrupt>
      b8:	0c 94 d0 01 	jmp	0x3a0	; 0x3a0 <__bad_interrupt>
      bc:	0c 94 d0 01 	jmp	0x3a0	; 0x3a0 <__bad_interrupt>
      c0:	0c 94 d0 01 	jmp	0x3a0	; 0x3a0 <__bad_interrupt>
      c4:	0c 94 d0 01 	jmp	0x3a0	; 0x3a0 <__bad_interrupt>
      c8:	0c 94 d0 01 	jmp	0x3a0	; 0x3a0 <__bad_interrupt>
      cc:	0c 94 d0 01 	jmp	0x3a0	; 0x3a0 <__bad_interrupt>
      d0:	0c 94 d0 01 	jmp	0x3a0	; 0x3a0 <__bad_interrupt>
      d4:	0c 94 d0 01 	jmp	0x3a0	; 0x3a0 <__bad_interrupt>
      d8:	0c 94 d0 01 	jmp	0x3a0	; 0x3a0 <__bad_interrupt>
      dc:	0c 94 d0 01 	jmp	0x3a0	; 0x3a0 <__bad_interrupt>
      e0:	0c 94 d0 01 	jmp	0x3a0	; 0x3a0 <__bad_interrupt>
      e4:	0c 94 d0 01 	jmp	0x3a0	; 0x3a0 <__bad_interrupt>
      e8:	0c 94 d0 01 	jmp	0x3a0	; 0x3a0 <__bad_interrupt>
      ec:	0c 94 d0 01 	jmp	0x3a0	; 0x3a0 <__bad_interrupt>
      f0:	0c 94 d0 01 	jmp	0x3a0	; 0x3a0 <__bad_interrupt>
      f4:	0c 94 d0 01 	jmp	0x3a0	; 0x3a0 <__bad_interrupt>
      f8:	0c 94 d0 01 	jmp	0x3a0	; 0x3a0 <__bad_interrupt>
      fc:	0c 94 d0 01 	jmp	0x3a0	; 0x3a0 <__bad_interrupt>
     100:	0c 94 d0 01 	jmp	0x3a0	; 0x3a0 <__bad_interrupt>
     104:	0c 94 d0 01 	jmp	0x3a0	; 0x3a0 <__bad_interrupt>
     108:	0c 94 d0 01 	jmp	0x3a0	; 0x3a0 <__bad_interrupt>
     10c:	0c 94 d0 01 	jmp	0x3a0	; 0x3a0 <__bad_interrupt>
     110:	0c 94 d0 01 	jmp	0x3a0	; 0x3a0 <__bad_interrupt>
     114:	0c 94 d0 01 	jmp	0x3a0	; 0x3a0 <__bad_interrupt>
     118:	0c 94 d0 01 	jmp	0x3a0	; 0x3a0 <__bad_interrupt>
     11c:	0c 94 92 25 	jmp	0x4b24	; 0x4b24 <__vector_71>
     120:	0c 94 d0 01 	jmp	0x3a0	; 0x3a0 <__bad_interrupt>
     124:	0c 94 d0 01 	jmp	0x3a0	; 0x3a0 <__bad_interrupt>
     128:	0c 94 d0 01 	jmp	0x3a0	; 0x3a0 <__bad_interrupt>
     12c:	0c 94 d0 01 	jmp	0x3a0	; 0x3a0 <__bad_interrupt>
     130:	0c 94 d0 01 	jmp	0x3a0	; 0x3a0 <__bad_interrupt>
     134:	0c 94 d0 01 	jmp	0x3a0	; 0x3a0 <__bad_interrupt>
     138:	0c 94 d0 01 	jmp	0x3a0	; 0x3a0 <__bad_interrupt>
     13c:	0c 94 d0 01 	jmp	0x3a0	; 0x3a0 <__bad_interrupt>
     140:	0c 94 d0 01 	jmp	0x3a0	; 0x3a0 <__bad_interrupt>
     144:	0c 94 d0 01 	jmp	0x3a0	; 0x3a0 <__bad_interrupt>
     148:	0c 94 d0 01 	jmp	0x3a0	; 0x3a0 <__bad_interrupt>
     14c:	0c 94 d0 01 	jmp	0x3a0	; 0x3a0 <__bad_interrupt>
     150:	0c 94 d0 01 	jmp	0x3a0	; 0x3a0 <__bad_interrupt>
     154:	0c 94 d0 01 	jmp	0x3a0	; 0x3a0 <__bad_interrupt>
     158:	0c 94 d0 01 	jmp	0x3a0	; 0x3a0 <__bad_interrupt>
     15c:	0c 94 d0 01 	jmp	0x3a0	; 0x3a0 <__bad_interrupt>
     160:	0c 94 48 2f 	jmp	0x5e90	; 0x5e90 <__vector_88>
     164:	0c 94 70 2f 	jmp	0x5ee0	; 0x5ee0 <__vector_89>
     168:	0c 94 a1 2f 	jmp	0x5f42	; 0x5f42 <__vector_90>
     16c:	0c 94 be 2f 	jmp	0x5f7c	; 0x5f7c <__vector_91>
     170:	0c 94 e6 2f 	jmp	0x5fcc	; 0x5fcc <__vector_92>
     174:	0c 94 d0 01 	jmp	0x3a0	; 0x3a0 <__bad_interrupt>
     178:	0c 94 d0 01 	jmp	0x3a0	; 0x3a0 <__bad_interrupt>
     17c:	0c 94 d0 01 	jmp	0x3a0	; 0x3a0 <__bad_interrupt>
     180:	0c 94 d0 01 	jmp	0x3a0	; 0x3a0 <__bad_interrupt>
     184:	0c 94 d0 01 	jmp	0x3a0	; 0x3a0 <__bad_interrupt>
     188:	0c 94 d0 01 	jmp	0x3a0	; 0x3a0 <__bad_interrupt>
     18c:	0c 94 d0 01 	jmp	0x3a0	; 0x3a0 <__bad_interrupt>
     190:	0c 94 d0 01 	jmp	0x3a0	; 0x3a0 <__bad_interrupt>
     194:	0c 94 d0 01 	jmp	0x3a0	; 0x3a0 <__bad_interrupt>
     198:	0c 94 d0 01 	jmp	0x3a0	; 0x3a0 <__bad_interrupt>
     19c:	0c 94 d0 01 	jmp	0x3a0	; 0x3a0 <__bad_interrupt>
     1a0:	0c 94 d0 01 	jmp	0x3a0	; 0x3a0 <__bad_interrupt>
     1a4:	0c 94 d0 01 	jmp	0x3a0	; 0x3a0 <__bad_interrupt>
     1a8:	0c 94 d0 01 	jmp	0x3a0	; 0x3a0 <__bad_interrupt>
     1ac:	0c 94 d0 01 	jmp	0x3a0	; 0x3a0 <__bad_interrupt>
     1b0:	0c 94 d0 01 	jmp	0x3a0	; 0x3a0 <__bad_interrupt>
     1b4:	0c 94 d0 01 	jmp	0x3a0	; 0x3a0 <__bad_interrupt>
     1b8:	0c 94 d0 01 	jmp	0x3a0	; 0x3a0 <__bad_interrupt>
     1bc:	0c 94 d0 01 	jmp	0x3a0	; 0x3a0 <__bad_interrupt>
     1c0:	0c 94 d0 01 	jmp	0x3a0	; 0x3a0 <__bad_interrupt>
     1c4:	0c 94 d0 01 	jmp	0x3a0	; 0x3a0 <__bad_interrupt>
     1c8:	0c 94 d0 01 	jmp	0x3a0	; 0x3a0 <__bad_interrupt>
     1cc:	0c 94 d0 01 	jmp	0x3a0	; 0x3a0 <__bad_interrupt>
     1d0:	0c 94 d0 01 	jmp	0x3a0	; 0x3a0 <__bad_interrupt>
     1d4:	0c 94 d0 01 	jmp	0x3a0	; 0x3a0 <__bad_interrupt>
     1d8:	0c 94 d0 01 	jmp	0x3a0	; 0x3a0 <__bad_interrupt>
     1dc:	0c 94 17 30 	jmp	0x602e	; 0x602e <__vector_119>
     1e0:	0c 94 3f 30 	jmp	0x607e	; 0x607e <__vector_120>
     1e4:	0c 94 d0 01 	jmp	0x3a0	; 0x3a0 <__bad_interrupt>
     1e8:	0c 94 d0 01 	jmp	0x3a0	; 0x3a0 <__bad_interrupt>
     1ec:	0c 94 d0 01 	jmp	0x3a0	; 0x3a0 <__bad_interrupt>
     1f0:	0c 94 d0 01 	jmp	0x3a0	; 0x3a0 <__bad_interrupt>
     1f4:	0c 94 d0 01 	jmp	0x3a0	; 0x3a0 <__bad_interrupt>
     1f8:	0c 94 d0 01 	jmp	0x3a0	; 0x3a0 <__bad_interrupt>

000001fc <__trampolines_start>:
     1fc:	0c 94 fd 0a 	jmp	0x15fa	; 0x15fa <GetDiodeStatus>
     200:	0c 94 df 0b 	jmp	0x17be	; 0x17be <GetSupercapPower>
     204:	0c 94 47 0c 	jmp	0x188e	; 0x188e <GetSupercapCurrent>
     208:	0c 94 a1 2d 	jmp	0x5b42	; 0x5b42 <AcceptDataGPSDirection>
     20c:	0c 94 fb 0c 	jmp	0x19f6	; 0x19f6 <GetFuelCellEnergy>
     210:	0c 94 3d 0b 	jmp	0x167a	; 0x167a <GetTimeSnapshot>
     214:	0c 94 27 0e 	jmp	0x1c4e	; 0x1c4e <GetFuelCellVoltage>
     218:	0c 94 19 0f 	jmp	0x1e32	; 0x1e32 <GetWheelDistance>
     21c:	0c 94 9b 0a 	jmp	0x1536	; 0x1536 <GetWheelSpeedH2A>
     220:	0c 94 65 0d 	jmp	0x1aca	; 0x1aca <GetFuelCellPower>
     224:	0c 94 75 0b 	jmp	0x16ea	; 0x16ea <GetSupercapEnergy>
     228:	0c 94 51 0f 	jmp	0x1ea2	; 0x1ea2 <GetWheelSpeedEVA>
     22c:	0c 94 81 0e 	jmp	0x1d02	; 0x1d02 <GetMotorCurrent>
     230:	0c 94 df 09 	jmp	0x13be	; 0x13be <GetCruiseControlButtonStatus>
     234:	0c 94 9a 2d 	jmp	0x5b34	; 0x5b34 <AcceptDataGPSPosition>
     238:	0c 94 21 0a 	jmp	0x1442	; 0x1442 <GetFullPowerButtonStatus>
     23c:	0c 94 d9 09 	jmp	0x13b2	; 0x13b2 <CoreAnalogTakeSnapshot485>
     240:	0c 94 18 2f 	jmp	0x5e30	; 0x5e30 <Ctrl_putchar>
     244:	0c 94 cd 0d 	jmp	0x1b9a	; 0x1b9a <GetFuelCellCurrent>
     248:	0c 94 bf 0e 	jmp	0x1d7e	; 0x1d7e <GetMotorVoltage>
     24c:	0c 94 a1 0c 	jmp	0x1942	; 0x1942 <GetSupercapVoltage>
     250:	0c 94 af 2d 	jmp	0x5b5e	; 0x5b5e <AcceptDataGPSTime>
     254:	0c 94 63 0a 	jmp	0x14c6	; 0x14c6 <GetMotorDriverTemp>
     258:	0c 94 a8 2d 	jmp	0x5b50	; 0x5b50 <AcceptDataGPSSpeed>

0000025c <__trampolines_end>:
     25c:	6e 61       	ori	r22, 0x1E	; 30
     25e:	6e 00       	.word	0x006e	; ????

00000260 <__c.2332>:
     260:	69 6e 66 00 00 40 7a 10 f3 5a 00 a0 72 4e 18 09     inf..@z..Z..rN..
     270:	00 10 a5 d4 e8 00 00 e8 76 48 17 00 00 e4 0b 54     ........vH.....T
     280:	02 00 00 ca 9a 3b 00 00 00 e1 f5 05 00 00 80 96     .....;..........
     290:	98 00 00 00 40 42 0f 00 00 00 a0 86 01 00 00 00     ....@B..........
     2a0:	10 27 00 00 00 00 e8 03 00 00 00 00 64 00 00 00     .'..........d...
     2b0:	00 00 0a 00 00 00 00 00 01 00 00 00 00 00 2c 76     ..............,v
     2c0:	d8 88 dc 67 4f 08 23 df c1 df ae 59 e1 b1 b7 96     ...gO.#....Y....
     2d0:	e5 e3 e4 53 c6 3a e6 51 99 76 96 e8 e6 c2 84 26     ...S.:.Q.v.....&
     2e0:	eb 89 8c 9b 62 ed 40 7c 6f fc ef bc 9c 9f 40 f2     ....b.@|o.....@.
     2f0:	ba a5 6f a5 f4 90 05 5a 2a f7 5c 93 6b 6c f9 67     ..o....Z*.\.kl.g
     300:	6d c1 1b fc e0 e4 0d 47 fe f5 20 e6 b5 00 d0 ed     m......G.. .....
     310:	90 2e 03 00 94 35 77 05 00 80 84 1e 08 00 00 20     .....5w........ 
     320:	4e 0a 00 00 00 c8 0c 33 33 33 33 0f 98 6e 12 83     N......3333..n..
     330:	11 41 ef 8d 21 14 89 3b e6 55 16 cf fe e6 db 18     .A..!..;.U......
     340:	d1 84 4b 38 1b f7 7c 1d 90 1d a4 bb e4 24 20 32     ..K8..|......$ 2
     350:	84 72 5e 22 81 00 c9 f1 24 ec a1 e5 3d 27           .r^"....$...='

0000035e <__ctors_end>:
     35e:	11 24       	eor	r1, r1
     360:	1f be       	out	0x3f, r1	; 63
     362:	cf ef       	ldi	r28, 0xFF	; 255
     364:	cd bf       	out	0x3d, r28	; 61
     366:	df e5       	ldi	r29, 0x5F	; 95
     368:	de bf       	out	0x3e, r29	; 62
     36a:	00 e0       	ldi	r16, 0x00	; 0
     36c:	0c bf       	out	0x3c, r16	; 60

0000036e <__do_copy_data>:
     36e:	17 e2       	ldi	r17, 0x27	; 39
     370:	a0 e0       	ldi	r26, 0x00	; 0
     372:	b0 e2       	ldi	r27, 0x20	; 32
     374:	ee ec       	ldi	r30, 0xCE	; 206
     376:	fd e7       	ldi	r31, 0x7D	; 125
     378:	00 e0       	ldi	r16, 0x00	; 0
     37a:	0b bf       	out	0x3b, r16	; 59
     37c:	02 c0       	rjmp	.+4      	; 0x382 <__do_copy_data+0x14>
     37e:	07 90       	elpm	r0, Z+
     380:	0d 92       	st	X+, r0
     382:	a0 3a       	cpi	r26, 0xA0	; 160
     384:	b1 07       	cpc	r27, r17
     386:	d9 f7       	brne	.-10     	; 0x37e <__do_copy_data+0x10>

00000388 <__do_clear_bss>:
     388:	2e e2       	ldi	r18, 0x2E	; 46
     38a:	a0 ea       	ldi	r26, 0xA0	; 160
     38c:	b7 e2       	ldi	r27, 0x27	; 39
     38e:	01 c0       	rjmp	.+2      	; 0x392 <.do_clear_bss_start>

00000390 <.do_clear_bss_loop>:
     390:	1d 92       	st	X+, r1

00000392 <.do_clear_bss_start>:
     392:	a8 39       	cpi	r26, 0x98	; 152
     394:	b2 07       	cpc	r27, r18
     396:	e1 f7       	brne	.-8      	; 0x390 <.do_clear_bss_loop>
     398:	0e 94 05 06 	call	0xc0a	; 0xc0a <main>
     39c:	0c 94 e5 3e 	jmp	0x7dca	; 0x7dca <_exit>

000003a0 <__bad_interrupt>:
     3a0:	0c 94 00 00 	jmp	0	; 0x0 <__vectors>

000003a4 <CCPWrite>:
 */
void CLKSYS_Prescalers_Config( CLK_PSADIV_t PSAfactor,
                               CLK_PSBCDIV_t PSBCfactor )
{
	uint8_t PSconfig = (uint8_t) PSAfactor | PSBCfactor;
	CCPWrite( &CLK.PSCTRL, PSconfig );
     3a4:	0f 93       	push	r16
     3a6:	cf 93       	push	r28
     3a8:	df 93       	push	r29
     3aa:	1f 92       	push	r1
     3ac:	cd b7       	in	r28, 0x3d	; 61
     3ae:	de b7       	in	r29, 0x3e	; 62
     3b0:	2f b7       	in	r18, 0x3f	; 63
     3b2:	29 83       	std	Y+1, r18	; 0x01
     3b4:	f8 94       	cli
     3b6:	1b be       	out	0x3b, r1	; 59
     3b8:	fc 01       	movw	r30, r24
     3ba:	08 ed       	ldi	r16, 0xD8	; 216
     3bc:	04 bf       	out	0x34, r16	; 52
     3be:	60 83       	st	Z, r22
     3c0:	89 81       	ldd	r24, Y+1	; 0x01
     3c2:	8f bf       	out	0x3f, r24	; 63
     3c4:	0f 90       	pop	r0
     3c6:	df 91       	pop	r29
     3c8:	cf 91       	pop	r28
     3ca:	0f 91       	pop	r16
     3cc:	08 95       	ret

000003ce <CLKSYS_XOSC_Config>:
     3ce:	61 11       	cpse	r22, r1
     3d0:	02 c0       	rjmp	.+4      	; 0x3d6 <CLKSYS_XOSC_Config+0x8>
     3d2:	90 e0       	ldi	r25, 0x00	; 0
     3d4:	01 c0       	rjmp	.+2      	; 0x3d8 <CLKSYS_XOSC_Config+0xa>
     3d6:	90 e2       	ldi	r25, 0x20	; 32
     3d8:	84 2b       	or	r24, r20
     3da:	89 2b       	or	r24, r25
     3dc:	80 93 52 00 	sts	0x0052, r24	; 0x800052 <__TEXT_REGION_LENGTH__+0x700052>
     3e0:	08 95       	ret

000003e2 <CLKSYS_PLL_Config>:
     3e2:	6f 71       	andi	r22, 0x1F	; 31
     3e4:	86 2b       	or	r24, r22
     3e6:	80 93 55 00 	sts	0x0055, r24	; 0x800055 <__TEXT_REGION_LENGTH__+0x700055>
     3ea:	08 95       	ret

000003ec <CLKSYS_Disable>:
     3ec:	e0 e5       	ldi	r30, 0x50	; 80
     3ee:	f0 e0       	ldi	r31, 0x00	; 0
     3f0:	90 81       	ld	r25, Z
     3f2:	28 2f       	mov	r18, r24
     3f4:	20 95       	com	r18
     3f6:	92 23       	and	r25, r18
     3f8:	90 83       	st	Z, r25
     3fa:	90 81       	ld	r25, Z
     3fc:	89 23       	and	r24, r25
     3fe:	08 95       	ret

00000400 <CLKSYS_Main_ClockSource_Select>:
 *                       prescaler block.
 *
 *  \return  Non-zero if change was successful.
 */
uint8_t CLKSYS_Main_ClockSource_Select( CLK_SCLKSEL_t clockSource )
{
     400:	0f 93       	push	r16
     402:	1f 93       	push	r17
     404:	cf 93       	push	r28
     406:	c8 2f       	mov	r28, r24
	uint8_t clkCtrl = ( CLK.CTRL & ~CLK_SCLKSEL_gm ) | clockSource;
     408:	00 e4       	ldi	r16, 0x40	; 64
     40a:	10 e0       	ldi	r17, 0x00	; 0
     40c:	f8 01       	movw	r30, r16
     40e:	60 81       	ld	r22, Z
	CCPWrite( &CLK.CTRL, clkCtrl );
     410:	68 7f       	andi	r22, 0xF8	; 248
     412:	68 2b       	or	r22, r24
     414:	80 e4       	ldi	r24, 0x40	; 64
     416:	90 e0       	ldi	r25, 0x00	; 0
     418:	0e 94 d2 01 	call	0x3a4	; 0x3a4 <CCPWrite>
	clkCtrl = ( CLK.CTRL & clockSource );
     41c:	f8 01       	movw	r30, r16
     41e:	80 81       	ld	r24, Z
	return clkCtrl;
}
     420:	8c 23       	and	r24, r28
     422:	cf 91       	pop	r28
     424:	1f 91       	pop	r17
     426:	0f 91       	pop	r16
     428:	08 95       	ret

0000042a <InitSlave>:
 *
 */
void freeSlave (){

	free(sOwnSensor);
	free(sWantedSensor);
     42a:	80 93 fb 27 	sts	0x27FB, r24	; 0x8027fb <sMyAdress>
     42e:	90 93 fc 27 	sts	0x27FC, r25	; 0x8027fc <sMyAdress+0x1>
     432:	10 92 f9 27 	sts	0x27F9, r1	; 0x8027f9 <sNumOwnSensor>
     436:	10 92 fa 27 	sts	0x27FA, r1	; 0x8027fa <sNumOwnSensor+0x1>
     43a:	10 92 f7 27 	sts	0x27F7, r1	; 0x8027f7 <sNumWantedSensor>
     43e:	10 92 f8 27 	sts	0x27F8, r1	; 0x8027f8 <sNumWantedSensor+0x1>
     442:	10 92 f5 27 	sts	0x27F5, r1	; 0x8027f5 <sOwnSensor>
     446:	10 92 f6 27 	sts	0x27F6, r1	; 0x8027f6 <sOwnSensor+0x1>
     44a:	10 92 f3 27 	sts	0x27F3, r1	; 0x8027f3 <sWantedSensor>
     44e:	10 92 f4 27 	sts	0x27F4, r1	; 0x8027f4 <sWantedSensor+0x1>
     452:	08 95       	ret

00000454 <AddSlaveOwnSensor>:
     454:	8f 92       	push	r8
     456:	9f 92       	push	r9
     458:	af 92       	push	r10
     45a:	bf 92       	push	r11
     45c:	cf 92       	push	r12
     45e:	df 92       	push	r13
     460:	ef 92       	push	r14
     462:	ff 92       	push	r15
     464:	0f 93       	push	r16
     466:	1f 93       	push	r17
     468:	cf 93       	push	r28
     46a:	df 93       	push	r29
     46c:	4c 01       	movw	r8, r24
     46e:	6b 01       	movw	r12, r22
     470:	5a 01       	movw	r10, r20
     472:	79 01       	movw	r14, r18
     474:	00 91 f9 27 	lds	r16, 0x27F9	; 0x8027f9 <sNumOwnSensor>
     478:	10 91 fa 27 	lds	r17, 0x27FA	; 0x8027fa <sNumOwnSensor+0x1>
     47c:	0f 5f       	subi	r16, 0xFF	; 255
     47e:	1f 4f       	sbci	r17, 0xFF	; 255
     480:	8b e0       	ldi	r24, 0x0B	; 11
     482:	80 9f       	mul	r24, r16
     484:	e0 01       	movw	r28, r0
     486:	81 9f       	mul	r24, r17
     488:	d0 0d       	add	r29, r0
     48a:	11 24       	eor	r1, r1
     48c:	be 01       	movw	r22, r28
     48e:	80 91 f5 27 	lds	r24, 0x27F5	; 0x8027f5 <sOwnSensor>
     492:	90 91 f6 27 	lds	r25, 0x27F6	; 0x8027f6 <sOwnSensor+0x1>
     496:	0e 94 ea 39 	call	0x73d4	; 0x73d4 <realloc>
     49a:	80 93 f5 27 	sts	0x27F5, r24	; 0x8027f5 <sOwnSensor>
     49e:	90 93 f6 27 	sts	0x27F6, r25	; 0x8027f6 <sOwnSensor+0x1>
     4a2:	00 97       	sbiw	r24, 0x00	; 0
     4a4:	b9 f0       	breq	.+46     	; 0x4d4 <AddSlaveOwnSensor+0x80>
     4a6:	2b 97       	sbiw	r28, 0x0b	; 11
     4a8:	c8 0f       	add	r28, r24
     4aa:	d9 1f       	adc	r29, r25
     4ac:	44 e0       	ldi	r20, 0x04	; 4
     4ae:	50 e0       	ldi	r21, 0x00	; 0
     4b0:	b4 01       	movw	r22, r8
     4b2:	ce 01       	movw	r24, r28
     4b4:	0e 94 00 3d 	call	0x7a00	; 0x7a00 <strncpy>
     4b8:	1c 82       	std	Y+4, r1	; 0x04
     4ba:	a9 86       	std	Y+9, r10	; 0x09
     4bc:	ba 86       	std	Y+10, r11	; 0x0a
     4be:	cf 82       	std	Y+7, r12	; 0x07
     4c0:	d8 86       	std	Y+8, r13	; 0x08
     4c2:	ed 82       	std	Y+5, r14	; 0x05
     4c4:	fe 82       	std	Y+6, r15	; 0x06
     4c6:	00 93 f9 27 	sts	0x27F9, r16	; 0x8027f9 <sNumOwnSensor>
     4ca:	10 93 fa 27 	sts	0x27FA, r17	; 0x8027fa <sNumOwnSensor+0x1>
     4ce:	80 e0       	ldi	r24, 0x00	; 0
     4d0:	90 e0       	ldi	r25, 0x00	; 0
     4d2:	02 c0       	rjmp	.+4      	; 0x4d8 <AddSlaveOwnSensor+0x84>
     4d4:	81 e0       	ldi	r24, 0x01	; 1
     4d6:	90 e0       	ldi	r25, 0x00	; 0
     4d8:	df 91       	pop	r29
     4da:	cf 91       	pop	r28
     4dc:	1f 91       	pop	r17
     4de:	0f 91       	pop	r16
     4e0:	ff 90       	pop	r15
     4e2:	ef 90       	pop	r14
     4e4:	df 90       	pop	r13
     4e6:	cf 90       	pop	r12
     4e8:	bf 90       	pop	r11
     4ea:	af 90       	pop	r10
     4ec:	9f 90       	pop	r9
     4ee:	8f 90       	pop	r8
     4f0:	08 95       	ret

000004f2 <AddWantedSensor>:
     4f2:	af 92       	push	r10
     4f4:	bf 92       	push	r11
     4f6:	cf 92       	push	r12
     4f8:	df 92       	push	r13
     4fa:	ef 92       	push	r14
     4fc:	ff 92       	push	r15
     4fe:	0f 93       	push	r16
     500:	1f 93       	push	r17
     502:	cf 93       	push	r28
     504:	df 93       	push	r29
     506:	5c 01       	movw	r10, r24
     508:	6b 01       	movw	r12, r22
     50a:	e0 90 f7 27 	lds	r14, 0x27F7	; 0x8027f7 <sNumWantedSensor>
     50e:	f0 90 f8 27 	lds	r15, 0x27F8	; 0x8027f8 <sNumWantedSensor+0x1>
     512:	8f ef       	ldi	r24, 0xFF	; 255
     514:	e8 1a       	sub	r14, r24
     516:	f8 0a       	sbc	r15, r24
     518:	87 01       	movw	r16, r14
     51a:	00 0f       	add	r16, r16
     51c:	11 1f       	adc	r17, r17
     51e:	00 0f       	add	r16, r16
     520:	11 1f       	adc	r17, r17
     522:	00 0f       	add	r16, r16
     524:	11 1f       	adc	r17, r17
     526:	0e 19       	sub	r16, r14
     528:	1f 09       	sbc	r17, r15
     52a:	b8 01       	movw	r22, r16
     52c:	80 91 f3 27 	lds	r24, 0x27F3	; 0x8027f3 <sWantedSensor>
     530:	90 91 f4 27 	lds	r25, 0x27F4	; 0x8027f4 <sWantedSensor+0x1>
     534:	0e 94 ea 39 	call	0x73d4	; 0x73d4 <realloc>
     538:	80 93 f3 27 	sts	0x27F3, r24	; 0x8027f3 <sWantedSensor>
     53c:	90 93 f4 27 	sts	0x27F4, r25	; 0x8027f4 <sWantedSensor+0x1>
     540:	00 97       	sbiw	r24, 0x00	; 0
     542:	a9 f0       	breq	.+42     	; 0x56e <AddWantedSensor+0x7c>
     544:	07 50       	subi	r16, 0x07	; 7
     546:	11 09       	sbc	r17, r1
     548:	ec 01       	movw	r28, r24
     54a:	c0 0f       	add	r28, r16
     54c:	d1 1f       	adc	r29, r17
     54e:	44 e0       	ldi	r20, 0x04	; 4
     550:	50 e0       	ldi	r21, 0x00	; 0
     552:	b5 01       	movw	r22, r10
     554:	ce 01       	movw	r24, r28
     556:	0e 94 00 3d 	call	0x7a00	; 0x7a00 <strncpy>
     55a:	1c 82       	std	Y+4, r1	; 0x04
     55c:	cd 82       	std	Y+5, r12	; 0x05
     55e:	de 82       	std	Y+6, r13	; 0x06
     560:	e0 92 f7 27 	sts	0x27F7, r14	; 0x8027f7 <sNumWantedSensor>
     564:	f0 92 f8 27 	sts	0x27F8, r15	; 0x8027f8 <sNumWantedSensor+0x1>
     568:	80 e0       	ldi	r24, 0x00	; 0
     56a:	90 e0       	ldi	r25, 0x00	; 0
     56c:	02 c0       	rjmp	.+4      	; 0x572 <AddWantedSensor+0x80>
     56e:	81 e0       	ldi	r24, 0x01	; 1
     570:	90 e0       	ldi	r25, 0x00	; 0
     572:	df 91       	pop	r29
     574:	cf 91       	pop	r28
     576:	1f 91       	pop	r17
     578:	0f 91       	pop	r16
     57a:	ff 90       	pop	r15
     57c:	ef 90       	pop	r14
     57e:	df 90       	pop	r13
     580:	cf 90       	pop	r12
     582:	bf 90       	pop	r11
     584:	af 90       	pop	r10
     586:	08 95       	ret

00000588 <HandleSnapshot>:
        sprintf(response,"$%03dGF'Sensor not found'",sMyAdress);
    }
}

//update value of sensors of sensors of a slave
void HandleSnapshot(){
     588:	0f 93       	push	r16
     58a:	1f 93       	push	r17
     58c:	cf 93       	push	r28
     58e:	df 93       	push	r29

	int sensorIndex;

	for(sensorIndex=0; sensorIndex < sNumOwnSensor; sensorIndex++){
     590:	80 91 f9 27 	lds	r24, 0x27F9	; 0x8027f9 <sNumOwnSensor>
     594:	90 91 fa 27 	lds	r25, 0x27FA	; 0x8027fa <sNumOwnSensor+0x1>
     598:	18 16       	cp	r1, r24
     59a:	19 06       	cpc	r1, r25
     59c:	e4 f4       	brge	.+56     	; 0x5d6 <HandleSnapshot+0x4e>
     59e:	00 e0       	ldi	r16, 0x00	; 0
     5a0:	10 e0       	ldi	r17, 0x00	; 0
     5a2:	c0 e0       	ldi	r28, 0x00	; 0
     5a4:	d0 e0       	ldi	r29, 0x00	; 0
		if(sOwnSensor[sensorIndex].fpTakeSnapshot != NULL)
     5a6:	80 91 f5 27 	lds	r24, 0x27F5	; 0x8027f5 <sOwnSensor>
     5aa:	90 91 f6 27 	lds	r25, 0x27F6	; 0x8027f6 <sOwnSensor+0x1>
     5ae:	80 0f       	add	r24, r16
     5b0:	91 1f       	adc	r25, r17
     5b2:	dc 01       	movw	r26, r24
     5b4:	19 96       	adiw	r26, 0x09	; 9
     5b6:	ed 91       	ld	r30, X+
     5b8:	fc 91       	ld	r31, X
     5ba:	1a 97       	sbiw	r26, 0x0a	; 10
     5bc:	30 97       	sbiw	r30, 0x00	; 0
     5be:	09 f0       	breq	.+2      	; 0x5c2 <HandleSnapshot+0x3a>
			sOwnSensor[sensorIndex].fpTakeSnapshot(sOwnSensor[sensorIndex].subadress);
     5c0:	19 95       	eicall
//update value of sensors of sensors of a slave
void HandleSnapshot(){

	int sensorIndex;

	for(sensorIndex=0; sensorIndex < sNumOwnSensor; sensorIndex++){
     5c2:	21 96       	adiw	r28, 0x01	; 1
     5c4:	05 5f       	subi	r16, 0xF5	; 245
     5c6:	1f 4f       	sbci	r17, 0xFF	; 255
     5c8:	80 91 f9 27 	lds	r24, 0x27F9	; 0x8027f9 <sNumOwnSensor>
     5cc:	90 91 fa 27 	lds	r25, 0x27FA	; 0x8027fa <sNumOwnSensor+0x1>
     5d0:	c8 17       	cp	r28, r24
     5d2:	d9 07       	cpc	r29, r25
     5d4:	44 f3       	brlt	.-48     	; 0x5a6 <HandleSnapshot+0x1e>
		if(sOwnSensor[sensorIndex].fpTakeSnapshot != NULL)
			sOwnSensor[sensorIndex].fpTakeSnapshot(sOwnSensor[sensorIndex].subadress);
	}
}
     5d6:	df 91       	pop	r29
     5d8:	cf 91       	pop	r28
     5da:	1f 91       	pop	r17
     5dc:	0f 91       	pop	r16
     5de:	08 95       	ret

000005e0 <HandleCmdS>:
 *
 * \param 1 response      :  the buffer where the response is saved
 * \param 2 dataFromMaster: the received message from the master
 *
 */
static void HandleCmdS(char* response, char* dataFromMaster){
     5e0:	9f 92       	push	r9
     5e2:	af 92       	push	r10
     5e4:	bf 92       	push	r11
     5e6:	cf 92       	push	r12
     5e8:	df 92       	push	r13
     5ea:	ef 92       	push	r14
     5ec:	ff 92       	push	r15
     5ee:	0f 93       	push	r16
     5f0:	1f 93       	push	r17
     5f2:	cf 93       	push	r28
     5f4:	df 93       	push	r29
     5f6:	cd b7       	in	r28, 0x3d	; 61
     5f8:	de b7       	in	r29, 0x3e	; 62
     5fa:	25 97       	sbiw	r28, 0x05	; 5
     5fc:	cd bf       	out	0x3d, r28	; 61
     5fe:	de bf       	out	0x3e, r29	; 62
     600:	d8 2e       	mov	r13, r24
     602:	c9 2e       	mov	r12, r25
     604:	8b 01       	movw	r16, r22
	int position=0, err =0;
	char adr[SUBADR_LENG];

	strncpy(adr,dataFromMaster + SENSADR_POS, SUBADR_LENG-1);
     606:	68 5f       	subi	r22, 0xF8	; 248
     608:	7f 4f       	sbci	r23, 0xFF	; 255
     60a:	44 e0       	ldi	r20, 0x04	; 4
     60c:	50 e0       	ldi	r21, 0x00	; 0
     60e:	ce 01       	movw	r24, r28
     610:	01 96       	adiw	r24, 0x01	; 1
     612:	0e 94 00 3d 	call	0x7a00	; 0x7a00 <strncpy>
	adr[SUBADR_LENG-1] = '\0';
     616:	1d 82       	std	Y+5, r1	; 0x05

	if(strncmp(adr,"SN00",SUBADR_LENG-1)==0){
     618:	44 e0       	ldi	r20, 0x04	; 4
     61a:	50 e0       	ldi	r21, 0x00	; 0
     61c:	64 ec       	ldi	r22, 0xC4	; 196
     61e:	70 e2       	ldi	r23, 0x20	; 32
     620:	ce 01       	movw	r24, r28
     622:	01 96       	adiw	r24, 0x01	; 1
     624:	0e 94 f2 3c 	call	0x79e4	; 0x79e4 <strncmp>
     628:	89 2b       	or	r24, r25
     62a:	41 f0       	breq	.+16     	; 0x63c <HandleCmdS+0x5c>

static int FindWantedSensorIndex(char *adressSensor){
	int i=0;
	int position = -1;

	for(i=0; i<sNumWantedSensor;i++){
     62c:	40 91 f7 27 	lds	r20, 0x27F7	; 0x8027f7 <sNumWantedSensor>
     630:	50 91 f8 27 	lds	r21, 0x27F8	; 0x8027f8 <sNumWantedSensor+0x1>
     634:	14 16       	cp	r1, r20
     636:	15 06       	cpc	r1, r21
     638:	24 f0       	brlt	.+8      	; 0x642 <HandleCmdS+0x62>
     63a:	80 c0       	rjmp	.+256    	; 0x73c <HandleCmdS+0x15c>
	strncpy(adr,dataFromMaster + SENSADR_POS, SUBADR_LENG-1);
	adr[SUBADR_LENG-1] = '\0';

	if(strncmp(adr,"SN00",SUBADR_LENG-1)==0){

		HandleSnapshot();
     63c:	0e 94 c4 02 	call	0x588	; 0x588 <HandleSnapshot>
     640:	99 c0       	rjmp	.+306    	; 0x774 <HandleCmdS+0x194>
static int FindWantedSensorIndex(char *adressSensor){
	int i=0;
	int position = -1;

	for(i=0; i<sNumWantedSensor;i++){
		if(/*!strncmp(adressSensor,sWantedSensor[i].subadress,SUBADR_LENG-1)*/ FindSensorOK( adressSensor, sWantedSensor[i].subadress )){
     642:	a0 90 f3 27 	lds	r10, 0x27F3	; 0x8027f3 <sWantedSensor>
     646:	b0 90 f4 27 	lds	r11, 0x27F4	; 0x8027f4 <sWantedSensor+0x1>
 */

static uint8_t FindSensorOK( char *subadres, char *sensor ){
	uint8_t err = 0;

	if( sensor[0] == '*' || sensor[0] == subadres[0] ){
     64a:	39 81       	ldd	r19, Y+1	; 0x01
		if( sensor[1] == '*' || sensor[1] == subadres[1] ){
     64c:	6a 81       	ldd	r22, Y+2	; 0x02
			if( sensor[2] == '*' || sensor[2] == subadres[2] ){
     64e:	7b 81       	ldd	r23, Y+3	; 0x03
				if( sensor[3] == '*' || sensor[3] == subadres[3] ){
     650:	9c 80       	ldd	r9, Y+4	; 0x04
     652:	f5 01       	movw	r30, r10
     654:	ee 24       	eor	r14, r14
     656:	ea 94       	dec	r14
     658:	fe 2c       	mov	r15, r14
     65a:	80 e0       	ldi	r24, 0x00	; 0
     65c:	90 e0       	ldi	r25, 0x00	; 0
     65e:	df 01       	movw	r26, r30
 */

static uint8_t FindSensorOK( char *subadres, char *sensor ){
	uint8_t err = 0;

	if( sensor[0] == '*' || sensor[0] == subadres[0] ){
     660:	20 81       	ld	r18, Z
     662:	2a 32       	cpi	r18, 0x2A	; 42
     664:	11 f0       	breq	.+4      	; 0x66a <HandleCmdS+0x8a>
     666:	23 13       	cpse	r18, r19
     668:	17 c0       	rjmp	.+46     	; 0x698 <HandleCmdS+0xb8>
		if( sensor[1] == '*' || sensor[1] == subadres[1] ){
     66a:	11 96       	adiw	r26, 0x01	; 1
     66c:	2c 91       	ld	r18, X
     66e:	11 97       	sbiw	r26, 0x01	; 1
     670:	2a 32       	cpi	r18, 0x2A	; 42
     672:	11 f0       	breq	.+4      	; 0x678 <HandleCmdS+0x98>
     674:	26 13       	cpse	r18, r22
     676:	10 c0       	rjmp	.+32     	; 0x698 <HandleCmdS+0xb8>
			if( sensor[2] == '*' || sensor[2] == subadres[2] ){
     678:	12 96       	adiw	r26, 0x02	; 2
     67a:	2c 91       	ld	r18, X
     67c:	12 97       	sbiw	r26, 0x02	; 2
     67e:	2a 32       	cpi	r18, 0x2A	; 42
     680:	11 f0       	breq	.+4      	; 0x686 <HandleCmdS+0xa6>
     682:	27 13       	cpse	r18, r23
     684:	09 c0       	rjmp	.+18     	; 0x698 <HandleCmdS+0xb8>
				if( sensor[3] == '*' || sensor[3] == subadres[3] ){
     686:	13 96       	adiw	r26, 0x03	; 3
     688:	2c 91       	ld	r18, X
     68a:	2a 32       	cpi	r18, 0x2A	; 42
     68c:	21 f0       	breq	.+8      	; 0x696 <HandleCmdS+0xb6>
     68e:	29 11       	cpse	r18, r9
     690:	03 c0       	rjmp	.+6      	; 0x698 <HandleCmdS+0xb8>
     692:	7c 01       	movw	r14, r24
     694:	01 c0       	rjmp	.+2      	; 0x698 <HandleCmdS+0xb8>
     696:	7c 01       	movw	r14, r24

static int FindWantedSensorIndex(char *adressSensor){
	int i=0;
	int position = -1;

	for(i=0; i<sNumWantedSensor;i++){
     698:	01 96       	adiw	r24, 0x01	; 1
     69a:	37 96       	adiw	r30, 0x07	; 7
     69c:	48 17       	cp	r20, r24
     69e:	59 07       	cpc	r21, r25
     6a0:	f1 f6       	brne	.-68     	; 0x65e <HandleCmdS+0x7e>

		HandleSnapshot();
	}
	else{
		position = FindWantedSensorIndex(adr);
		if(position != -1){
     6a2:	8f ef       	ldi	r24, 0xFF	; 255
     6a4:	e8 16       	cp	r14, r24
     6a6:	f8 06       	cpc	r15, r24
     6a8:	09 f4       	brne	.+2      	; 0x6ac <HandleCmdS+0xcc>
     6aa:	48 c0       	rjmp	.+144    	; 0x73c <HandleCmdS+0x15c>
			err = (*sWantedSensor[position].fpSetData)(adr,dataFromMaster + SETDATA_POS);
     6ac:	b8 01       	movw	r22, r16
     6ae:	64 5f       	subi	r22, 0xF4	; 244
     6b0:	7f 4f       	sbci	r23, 0xFF	; 255
     6b2:	c7 01       	movw	r24, r14
     6b4:	88 0f       	add	r24, r24
     6b6:	99 1f       	adc	r25, r25
     6b8:	88 0f       	add	r24, r24
     6ba:	99 1f       	adc	r25, r25
     6bc:	88 0f       	add	r24, r24
     6be:	99 1f       	adc	r25, r25
     6c0:	8e 19       	sub	r24, r14
     6c2:	9f 09       	sbc	r25, r15
     6c4:	f5 01       	movw	r30, r10
     6c6:	e8 0f       	add	r30, r24
     6c8:	f9 1f       	adc	r31, r25
     6ca:	05 80       	ldd	r0, Z+5	; 0x05
     6cc:	f6 81       	ldd	r31, Z+6	; 0x06
     6ce:	e0 2d       	mov	r30, r0
     6d0:	ce 01       	movw	r24, r28
     6d2:	01 96       	adiw	r24, 0x01	; 1
     6d4:	19 95       	eicall

			if(err==0){
     6d6:	89 2b       	or	r24, r25
     6d8:	a1 f4       	brne	.+40     	; 0x702 <HandleCmdS+0x122>
				snprintf(response,MAXDATA-1,"$%03dSOK",sMyAdress);
     6da:	80 91 fc 27 	lds	r24, 0x27FC	; 0x8027fc <sMyAdress+0x1>
     6de:	8f 93       	push	r24
     6e0:	80 91 fb 27 	lds	r24, 0x27FB	; 0x8027fb <sMyAdress>
     6e4:	8f 93       	push	r24
     6e6:	89 ec       	ldi	r24, 0xC9	; 201
     6e8:	90 e2       	ldi	r25, 0x20	; 32
     6ea:	9f 93       	push	r25
     6ec:	8f 93       	push	r24
     6ee:	1f 92       	push	r1
     6f0:	8d e4       	ldi	r24, 0x4D	; 77
     6f2:	8f 93       	push	r24
     6f4:	cf 92       	push	r12
     6f6:	df 92       	push	r13
     6f8:	0e 94 a8 3d 	call	0x7b50	; 0x7b50 <snprintf>
     6fc:	cd bf       	out	0x3d, r28	; 61
     6fe:	de bf       	out	0x3e, r29	; 62
     700:	39 c0       	rjmp	.+114    	; 0x774 <HandleCmdS+0x194>
			}
			else{
				snprintf(response,MAXDATA-strlen(response),"$%03dSF'Fault'",sMyAdress);
     702:	ed 2d       	mov	r30, r13
     704:	fc 2d       	mov	r31, r12
     706:	df 01       	movw	r26, r30
     708:	0d 90       	ld	r0, X+
     70a:	00 20       	and	r0, r0
     70c:	e9 f7       	brne	.-6      	; 0x708 <HandleCmdS+0x128>
     70e:	80 91 fc 27 	lds	r24, 0x27FC	; 0x8027fc <sMyAdress+0x1>
     712:	8f 93       	push	r24
     714:	80 91 fb 27 	lds	r24, 0x27FB	; 0x8027fb <sMyAdress>
     718:	8f 93       	push	r24
     71a:	82 ed       	ldi	r24, 0xD2	; 210
     71c:	90 e2       	ldi	r25, 0x20	; 32
     71e:	9f 93       	push	r25
     720:	8f 93       	push	r24
     722:	ea 1b       	sub	r30, r26
     724:	fb 0b       	sbc	r31, r27
     726:	e1 5b       	subi	r30, 0xB1	; 177
     728:	ff 4f       	sbci	r31, 0xFF	; 255
     72a:	ff 93       	push	r31
     72c:	ef 93       	push	r30
     72e:	cf 92       	push	r12
     730:	df 92       	push	r13
     732:	0e 94 a8 3d 	call	0x7b50	; 0x7b50 <snprintf>
     736:	cd bf       	out	0x3d, r28	; 61
     738:	de bf       	out	0x3e, r29	; 62
     73a:	1c c0       	rjmp	.+56     	; 0x774 <HandleCmdS+0x194>
			}
		}
		else{
			snprintf(response,MAXDATA-strlen(response),"$%03dSF'Fault wrong sensor'",sMyAdress);
     73c:	ed 2d       	mov	r30, r13
     73e:	fc 2d       	mov	r31, r12
     740:	df 01       	movw	r26, r30
     742:	0d 90       	ld	r0, X+
     744:	00 20       	and	r0, r0
     746:	e9 f7       	brne	.-6      	; 0x742 <HandleCmdS+0x162>
     748:	80 91 fc 27 	lds	r24, 0x27FC	; 0x8027fc <sMyAdress+0x1>
     74c:	8f 93       	push	r24
     74e:	80 91 fb 27 	lds	r24, 0x27FB	; 0x8027fb <sMyAdress>
     752:	8f 93       	push	r24
     754:	81 ee       	ldi	r24, 0xE1	; 225
     756:	90 e2       	ldi	r25, 0x20	; 32
     758:	9f 93       	push	r25
     75a:	8f 93       	push	r24
     75c:	ea 1b       	sub	r30, r26
     75e:	fb 0b       	sbc	r31, r27
     760:	e1 5b       	subi	r30, 0xB1	; 177
     762:	ff 4f       	sbci	r31, 0xFF	; 255
     764:	ff 93       	push	r31
     766:	ef 93       	push	r30
     768:	cf 92       	push	r12
     76a:	df 92       	push	r13
     76c:	0e 94 a8 3d 	call	0x7b50	; 0x7b50 <snprintf>
     770:	cd bf       	out	0x3d, r28	; 61
     772:	de bf       	out	0x3e, r29	; 62
		}
	}
}
     774:	25 96       	adiw	r28, 0x05	; 5
     776:	cd bf       	out	0x3d, r28	; 61
     778:	de bf       	out	0x3e, r29	; 62
     77a:	df 91       	pop	r29
     77c:	cf 91       	pop	r28
     77e:	1f 91       	pop	r17
     780:	0f 91       	pop	r16
     782:	ff 90       	pop	r15
     784:	ef 90       	pop	r14
     786:	df 90       	pop	r13
     788:	cf 90       	pop	r12
     78a:	bf 90       	pop	r11
     78c:	af 90       	pop	r10
     78e:	9f 90       	pop	r9
     790:	08 95       	ret

00000792 <SendLineRS485>:
 *
 * \param 1 data : data from the slave
 *
 */

void SendLineRS485(char* data){
     792:	cf 93       	push	r28
     794:	df 93       	push	r29
     796:	ec 01       	movw	r28, r24

	while(*data != '\0'){
     798:	88 81       	ld	r24, Y
     79a:	88 23       	and	r24, r24
     79c:	31 f0       	breq	.+12     	; 0x7aa <SendLineRS485+0x18>
     79e:	21 96       	adiw	r28, 0x01	; 1
		WriteByte_Comm485(*data++);
     7a0:	0e 94 78 2e 	call	0x5cf0	; 0x5cf0 <WriteByte_Comm485>
 *
 */

void SendLineRS485(char* data){

	while(*data != '\0'){
     7a4:	89 91       	ld	r24, Y+
     7a6:	81 11       	cpse	r24, r1
     7a8:	fb cf       	rjmp	.-10     	; 0x7a0 <SendLineRS485+0xe>
		WriteByte_Comm485(*data++);
	}
	// add \r\n to the sentence
	WriteByte_Comm485(0x0D);
     7aa:	8d e0       	ldi	r24, 0x0D	; 13
     7ac:	0e 94 78 2e 	call	0x5cf0	; 0x5cf0 <WriteByte_Comm485>
	WriteByte_Comm485(0x0A);
     7b0:	8a e0       	ldi	r24, 0x0A	; 10
     7b2:	0e 94 78 2e 	call	0x5cf0	; 0x5cf0 <WriteByte_Comm485>
}
     7b6:	df 91       	pop	r29
     7b8:	cf 91       	pop	r28
     7ba:	08 95       	ret

000007bc <ReadLineRS45>:
 *
 * \param 1 data : data from the master
 *
 */

uint8_t ReadLineRS45( char *Data ){
     7bc:	1f 93       	push	r17
     7be:	cf 93       	push	r28
     7c0:	df 93       	push	r29
     7c2:	ec 01       	movw	r28, r24
	static char getKarakter;
	uint8_t len, returnValue = 0;
     7c4:	10 e0       	ldi	r17, 0x00	; 0

	while( CanRead_Comm485() != 0 && returnValue == 0 ){
     7c6:	20 c0       	rjmp	.+64     	; 0x808 <ReadLineRS45+0x4c>
		getKarakter = (char )ReadByte_Comm485();
     7c8:	0e 94 52 2e 	call	0x5ca4	; 0x5ca4 <ReadByte_Comm485>
		if( getKarakter == SLAVESENTENCE || getKarakter == MASTERSENTENCE ){
     7cc:	9d ed       	ldi	r25, 0xDD	; 221
     7ce:	98 0f       	add	r25, r24
     7d0:	92 30       	cpi	r25, 0x02	; 2
     7d2:	18 f4       	brcc	.+6      	; 0x7da <ReadLineRS45+0x1e>
			Data[0] = getKarakter;
     7d4:	88 83       	st	Y, r24
			Data[1] = '\0';
     7d6:	19 82       	std	Y+1, r1	; 0x01
     7d8:	17 c0       	rjmp	.+46     	; 0x808 <ReadLineRS45+0x4c>
		}
		else if( Data[0] == SLAVESENTENCE || Data[0] == MASTERSENTENCE ){
     7da:	98 81       	ld	r25, Y
     7dc:	93 52       	subi	r25, 0x23	; 35
     7de:	92 30       	cpi	r25, 0x02	; 2
     7e0:	98 f4       	brcc	.+38     	; 0x808 <ReadLineRS45+0x4c>
			len = strlen(Data);
     7e2:	fe 01       	movw	r30, r28
     7e4:	01 90       	ld	r0, Z+
     7e6:	00 20       	and	r0, r0
     7e8:	e9 f7       	brne	.-6      	; 0x7e4 <ReadLineRS45+0x28>
     7ea:	31 97       	sbiw	r30, 0x01	; 1
     7ec:	ec 1b       	sub	r30, r28
     7ee:	fd 0b       	sbc	r31, r29
			if(len < MAXCHARACTERSSENTENCE - 1) {
     7f0:	e2 35       	cpi	r30, 0x52	; 82
     7f2:	50 f4       	brcc	.+20     	; 0x808 <ReadLineRS45+0x4c>
				Data[len] = getKarakter;
     7f4:	9e 01       	movw	r18, r28
     7f6:	2e 0f       	add	r18, r30
     7f8:	31 1d       	adc	r19, r1
     7fa:	f9 01       	movw	r30, r18
     7fc:	80 83       	st	Z, r24
				Data[len + 1] = '\0';
     7fe:	11 82       	std	Z+1, r1	; 0x01
 *
 */

uint8_t ReadLineRS45( char *Data ){
	static char getKarakter;
	uint8_t len, returnValue = 0;
     800:	11 e0       	ldi	r17, 0x01	; 1
     802:	8a 30       	cpi	r24, 0x0A	; 10
     804:	09 f0       	breq	.+2      	; 0x808 <ReadLineRS45+0x4c>
     806:	10 e0       	ldi	r17, 0x00	; 0

	while( CanRead_Comm485() != 0 && returnValue == 0 ){
     808:	0e 94 47 2e 	call	0x5c8e	; 0x5c8e <CanRead_Comm485>
     80c:	88 23       	and	r24, r24
     80e:	11 f0       	breq	.+4      	; 0x814 <ReadLineRS45+0x58>
     810:	11 23       	and	r17, r17
     812:	d1 f2       	breq	.-76     	; 0x7c8 <ReadLineRS45+0xc>
				}
			}			
		}
	}
	return returnValue;
}
     814:	81 2f       	mov	r24, r17
     816:	df 91       	pop	r29
     818:	cf 91       	pop	r28
     81a:	1f 91       	pop	r17
     81c:	08 95       	ret

0000081e <ScanDataInSlave>:
 * \return 0: if there is a fault in the adress of the slave
 *            or the checksum of the master or the message is not from the master
 *            else
 * \return 1
 */
uint8_t ScanDataInSlave (char* dataFromMaster){
     81e:	4f 92       	push	r4
     820:	5f 92       	push	r5
     822:	6f 92       	push	r6
     824:	7f 92       	push	r7
     826:	8f 92       	push	r8
     828:	9f 92       	push	r9
     82a:	af 92       	push	r10
     82c:	bf 92       	push	r11
     82e:	cf 92       	push	r12
     830:	df 92       	push	r13
     832:	ef 92       	push	r14
     834:	ff 92       	push	r15
     836:	0f 93       	push	r16
     838:	1f 93       	push	r17
     83a:	cf 93       	push	r28
     83c:	df 93       	push	r29
     83e:	cd b7       	in	r28, 0x3d	; 61
     840:	de b7       	in	r29, 0x3e	; 62
     842:	25 97       	sbiw	r28, 0x05	; 5
     844:	cd bf       	out	0x3d, r28	; 61
     846:	de bf       	out	0x3e, r29	; 62
     848:	8c 01       	movw	r16, r24
 * \return adress of the slave in integer
 *
 */
static int GetAdressFromMaster (char* dataMaster){

   return strtol(dataMaster + 1,NULL,10);
     84a:	4a e0       	ldi	r20, 0x0A	; 10
     84c:	50 e0       	ldi	r21, 0x00	; 0
     84e:	60 e0       	ldi	r22, 0x00	; 0
     850:	70 e0       	ldi	r23, 0x00	; 0
     852:	01 96       	adiw	r24, 0x01	; 1
     854:	0e 94 cf 3a 	call	0x759e	; 0x759e <strtol>
	 * check if the adress from the master is for the broadcast ('000') or not
	 * check if the checksum  of the master's sentence is equal to the calculated checksum
	 * if one of these conditions is false then return 0
	 * else if the adress is a for the broadcast the the command must be 'SET'
	*/
    if((dataFromMaster[KARAKTERSOORTZIN] != MASTERSENTENCE) || ((adress != sMyAdress) && (adress != BROADCAST))/* || (!CheckChecksum(dataFromMaster))*/){
     858:	f8 01       	movw	r30, r16
     85a:	20 81       	ld	r18, Z
     85c:	23 32       	cpi	r18, 0x23	; 35
     85e:	09 f0       	breq	.+2      	; 0x862 <ScanDataInSlave+0x44>
     860:	bd c1       	rjmp	.+890    	; 0xbdc <ScanDataInSlave+0x3be>
 * \return 1
 */
uint8_t ScanDataInSlave (char* dataFromMaster){
	int err = 0;
    int adress = GetAdressFromMaster(dataFromMaster);
    char cmd = dataFromMaster[COMMAND];
     862:	84 81       	ldd	r24, Z+4	; 0x04
	 * check if the adress from the master is for the broadcast ('000') or not
	 * check if the checksum  of the master's sentence is equal to the calculated checksum
	 * if one of these conditions is false then return 0
	 * else if the adress is a for the broadcast the the command must be 'SET'
	*/
    if((dataFromMaster[KARAKTERSOORTZIN] != MASTERSENTENCE) || ((adress != sMyAdress) && (adress != BROADCAST))/* || (!CheckChecksum(dataFromMaster))*/){
     864:	e0 90 fb 27 	lds	r14, 0x27FB	; 0x8027fb <sMyAdress>
     868:	f0 90 fc 27 	lds	r15, 0x27FC	; 0x8027fc <sMyAdress+0x1>
     86c:	e6 16       	cp	r14, r22
     86e:	f7 06       	cpc	r15, r23
     870:	19 f0       	breq	.+6      	; 0x878 <ScanDataInSlave+0x5a>
     872:	67 2b       	or	r22, r23
     874:	21 f0       	breq	.+8      	; 0x87e <ScanDataInSlave+0x60>
     876:	b4 c1       	rjmp	.+872    	; 0xbe0 <ScanDataInSlave+0x3c2>
       err = 0;
    }
    else{
	 if(adress == BROADCAST) {
     878:	e1 14       	cp	r14, r1
     87a:	f1 04       	cpc	r15, r1
     87c:	49 f4       	brne	.+18     	; 0x890 <ScanDataInSlave+0x72>
		if(cmd =='S'){
     87e:	83 35       	cpi	r24, 0x53	; 83
     880:	09 f0       	breq	.+2      	; 0x884 <ScanDataInSlave+0x66>
     882:	a8 c1       	rjmp	.+848    	; 0xbd4 <ScanDataInSlave+0x3b6>
			HandleCmdS(responseSlave,dataFromMaster);
     884:	b8 01       	movw	r22, r16
     886:	80 ea       	ldi	r24, 0xA0	; 160
     888:	97 e2       	ldi	r25, 0x27	; 39
     88a:	0e 94 f0 02 	call	0x5e0	; 0x5e0 <HandleCmdS>
     88e:	a2 c1       	rjmp	.+836    	; 0xbd4 <ScanDataInSlave+0x3b6>
		}
		err =1;
	 }
	 else{

      switch(cmd){
     890:	89 34       	cpi	r24, 0x49	; 73
     892:	01 f1       	breq	.+64     	; 0x8d4 <ScanDataInSlave+0xb6>
     894:	30 f4       	brcc	.+12     	; 0x8a2 <ScanDataInSlave+0x84>
     896:	81 34       	cpi	r24, 0x41	; 65
     898:	59 f0       	breq	.+22     	; 0x8b0 <ScanDataInSlave+0x92>
     89a:	87 34       	cpi	r24, 0x47	; 71
     89c:	09 f4       	brne	.+2      	; 0x8a0 <ScanDataInSlave+0x82>
     89e:	c5 c0       	rjmp	.+394    	; 0xa2a <ScanDataInSlave+0x20c>
     8a0:	66 c1       	rjmp	.+716    	; 0xb6e <ScanDataInSlave+0x350>
     8a2:	83 35       	cpi	r24, 0x53	; 83
     8a4:	09 f4       	brne	.+2      	; 0x8a8 <ScanDataInSlave+0x8a>
     8a6:	5e c1       	rjmp	.+700    	; 0xb64 <ScanDataInSlave+0x346>
     8a8:	87 35       	cpi	r24, 0x57	; 87
     8aa:	09 f4       	brne	.+2      	; 0x8ae <ScanDataInSlave+0x90>
     8ac:	69 c0       	rjmp	.+210    	; 0x980 <ScanDataInSlave+0x162>
     8ae:	5f c1       	rjmp	.+702    	; 0xb6e <ScanDataInSlave+0x350>
 * \param 1 response : the buffer where the response is saved
 *
 */
static void HandleCmdA(char* response){

    snprintf(response,MAXDATA-1,"$%03dA'Slave available'",sMyAdress);
     8b0:	ff 92       	push	r15
     8b2:	ef 92       	push	r14
     8b4:	8d ef       	ldi	r24, 0xFD	; 253
     8b6:	90 e2       	ldi	r25, 0x20	; 32
     8b8:	9f 93       	push	r25
     8ba:	8f 93       	push	r24
     8bc:	1f 92       	push	r1
     8be:	8d e4       	ldi	r24, 0x4D	; 77
     8c0:	8f 93       	push	r24
     8c2:	80 ea       	ldi	r24, 0xA0	; 160
     8c4:	97 e2       	ldi	r25, 0x27	; 39
     8c6:	9f 93       	push	r25
     8c8:	8f 93       	push	r24
     8ca:	0e 94 a8 3d 	call	0x7b50	; 0x7b50 <snprintf>
     8ce:	cd bf       	out	0x3d, r28	; 61
     8d0:	de bf       	out	0x3e, r29	; 62
     8d2:	4d c1       	rjmp	.+666    	; 0xb6e <ScanDataInSlave+0x350>
 * \param dataMaster:  the data from the master
 *
 * \return int: the index
 */
static int GetIndexFromMaster (char* dataFromMaster){
    return strtol(dataFromMaster + INDEX_SUBADR_POS,NULL,10);
     8d4:	4a e0       	ldi	r20, 0x0A	; 10
     8d6:	50 e0       	ldi	r21, 0x00	; 0
     8d8:	60 e0       	ldi	r22, 0x00	; 0
     8da:	70 e0       	ldi	r23, 0x00	; 0
     8dc:	c8 01       	movw	r24, r16
     8de:	05 96       	adiw	r24, 0x05	; 5
     8e0:	0e 94 cf 3a 	call	0x759e	; 0x759e <strtol>
static void HandleCmdI(char* response, char* dataFromMaster){
	static int index =0;

	index = GetIndexFromMaster(dataFromMaster);

    if(index > 0 && index <= sNumOwnSensor) {
     8e4:	16 16       	cp	r1, r22
     8e6:	17 06       	cpc	r1, r23
     8e8:	b4 f5       	brge	.+108    	; 0x956 <ScanDataInSlave+0x138>
     8ea:	40 91 f9 27 	lds	r20, 0x27F9	; 0x8027f9 <sNumOwnSensor>
     8ee:	50 91 fa 27 	lds	r21, 0x27FA	; 0x8027fa <sNumOwnSensor+0x1>
     8f2:	46 17       	cp	r20, r22
     8f4:	57 07       	cpc	r21, r23
     8f6:	7c f1       	brlt	.+94     	; 0x956 <ScanDataInSlave+0x138>
        snprintf(response,MAXDATA-1,"$%03dI%02d%s,%02d'Sensor %d'",sMyAdress,index,sOwnSensor[index-1].subadress,sOwnSensor[index-1].measure_interval,index);
     8f8:	2b e0       	ldi	r18, 0x0B	; 11
     8fa:	26 9f       	mul	r18, r22
     8fc:	f0 01       	movw	r30, r0
     8fe:	27 9f       	mul	r18, r23
     900:	f0 0d       	add	r31, r0
     902:	11 24       	eor	r1, r1
     904:	9f 01       	movw	r18, r30
     906:	2b 50       	subi	r18, 0x0B	; 11
     908:	31 09       	sbc	r19, r1
     90a:	e0 91 f5 27 	lds	r30, 0x27F5	; 0x8027f5 <sOwnSensor>
     90e:	f0 91 f6 27 	lds	r31, 0x27F6	; 0x8027f6 <sOwnSensor+0x1>
     912:	e2 0f       	add	r30, r18
     914:	f3 1f       	adc	r31, r19
     916:	7f 93       	push	r23
     918:	6f 93       	push	r22
     91a:	26 81       	ldd	r18, Z+6	; 0x06
     91c:	2f 93       	push	r18
     91e:	25 81       	ldd	r18, Z+5	; 0x05
     920:	2f 93       	push	r18
     922:	ff 93       	push	r31
     924:	ef 93       	push	r30
     926:	7f 93       	push	r23
     928:	6f 93       	push	r22
     92a:	80 91 fc 27 	lds	r24, 0x27FC	; 0x8027fc <sMyAdress+0x1>
     92e:	8f 93       	push	r24
     930:	80 91 fb 27 	lds	r24, 0x27FB	; 0x8027fb <sMyAdress>
     934:	8f 93       	push	r24
     936:	85 e1       	ldi	r24, 0x15	; 21
     938:	91 e2       	ldi	r25, 0x21	; 33
     93a:	9f 93       	push	r25
     93c:	8f 93       	push	r24
     93e:	1f 92       	push	r1
     940:	8d e4       	ldi	r24, 0x4D	; 77
     942:	8f 93       	push	r24
     944:	80 ea       	ldi	r24, 0xA0	; 160
     946:	97 e2       	ldi	r25, 0x27	; 39
     948:	9f 93       	push	r25
     94a:	8f 93       	push	r24
     94c:	0e 94 a8 3d 	call	0x7b50	; 0x7b50 <snprintf>
     950:	cd bf       	out	0x3d, r28	; 61
     952:	de bf       	out	0x3e, r29	; 62
     954:	0c c1       	rjmp	.+536    	; 0xb6e <ScanDataInSlave+0x350>
    }
// the slave sends 0000,0000 if all the sensors that exists are already given
    else{
        sprintf(response,"$%03dI%02d0000,0000'No sensor'", sMyAdress,index);
     956:	7f 93       	push	r23
     958:	6f 93       	push	r22
     95a:	80 91 fc 27 	lds	r24, 0x27FC	; 0x8027fc <sMyAdress+0x1>
     95e:	8f 93       	push	r24
     960:	80 91 fb 27 	lds	r24, 0x27FB	; 0x8027fb <sMyAdress>
     964:	8f 93       	push	r24
     966:	82 e3       	ldi	r24, 0x32	; 50
     968:	91 e2       	ldi	r25, 0x21	; 33
     96a:	9f 93       	push	r25
     96c:	8f 93       	push	r24
     96e:	80 ea       	ldi	r24, 0xA0	; 160
     970:	97 e2       	ldi	r25, 0x27	; 39
     972:	9f 93       	push	r25
     974:	8f 93       	push	r24
     976:	0e 94 df 3d 	call	0x7bbe	; 0x7bbe <sprintf>
     97a:	cd bf       	out	0x3d, r28	; 61
     97c:	de bf       	out	0x3e, r29	; 62
     97e:	f7 c0       	rjmp	.+494    	; 0xb6e <ScanDataInSlave+0x350>
 * \param dataMaster:  the data from the master
 *
 * \return int: the index
 */
static int GetIndexFromMaster (char* dataFromMaster){
    return strtol(dataFromMaster + INDEX_SUBADR_POS,NULL,10);
     980:	4a e0       	ldi	r20, 0x0A	; 10
     982:	50 e0       	ldi	r21, 0x00	; 0
     984:	60 e0       	ldi	r22, 0x00	; 0
     986:	70 e0       	ldi	r23, 0x00	; 0
     988:	c8 01       	movw	r24, r16
     98a:	05 96       	adiw	r24, 0x05	; 5
     98c:	0e 94 cf 3a 	call	0x759e	; 0x759e <strtol>
     990:	9b 01       	movw	r18, r22
 */
static void HandleCmdW(char* response, char* dataFromMaster){

    int index = GetIndexFromMaster(dataFromMaster);

    if(index > 0 && index <= sNumWantedSensor){
     992:	16 16       	cp	r1, r22
     994:	17 06       	cpc	r1, r23
     996:	8c f5       	brge	.+98     	; 0x9fa <ScanDataInSlave+0x1dc>
     998:	40 91 f7 27 	lds	r20, 0x27F7	; 0x8027f7 <sNumWantedSensor>
     99c:	50 91 f8 27 	lds	r21, 0x27F8	; 0x8027f8 <sNumWantedSensor+0x1>
     9a0:	46 17       	cp	r20, r22
     9a2:	57 07       	cpc	r21, r23
     9a4:	54 f1       	brlt	.+84     	; 0x9fa <ScanDataInSlave+0x1dc>
        snprintf(response,MAXDATA-1,"$%03dW%02d%s'Wants slave'",sMyAdress,index,sWantedSensor[index-1].subadress);
     9a6:	22 0f       	add	r18, r18
     9a8:	33 1f       	adc	r19, r19
     9aa:	22 0f       	add	r18, r18
     9ac:	33 1f       	adc	r19, r19
     9ae:	22 0f       	add	r18, r18
     9b0:	33 1f       	adc	r19, r19
     9b2:	26 1b       	sub	r18, r22
     9b4:	37 0b       	sbc	r19, r23
     9b6:	27 50       	subi	r18, 0x07	; 7
     9b8:	31 09       	sbc	r19, r1
     9ba:	40 91 f3 27 	lds	r20, 0x27F3	; 0x8027f3 <sWantedSensor>
     9be:	50 91 f4 27 	lds	r21, 0x27F4	; 0x8027f4 <sWantedSensor+0x1>
     9c2:	24 0f       	add	r18, r20
     9c4:	35 1f       	adc	r19, r21
     9c6:	3f 93       	push	r19
     9c8:	2f 93       	push	r18
     9ca:	7f 93       	push	r23
     9cc:	6f 93       	push	r22
     9ce:	80 91 fc 27 	lds	r24, 0x27FC	; 0x8027fc <sMyAdress+0x1>
     9d2:	8f 93       	push	r24
     9d4:	80 91 fb 27 	lds	r24, 0x27FB	; 0x8027fb <sMyAdress>
     9d8:	8f 93       	push	r24
     9da:	81 e5       	ldi	r24, 0x51	; 81
     9dc:	91 e2       	ldi	r25, 0x21	; 33
     9de:	9f 93       	push	r25
     9e0:	8f 93       	push	r24
     9e2:	1f 92       	push	r1
     9e4:	8d e4       	ldi	r24, 0x4D	; 77
     9e6:	8f 93       	push	r24
     9e8:	80 ea       	ldi	r24, 0xA0	; 160
     9ea:	97 e2       	ldi	r25, 0x27	; 39
     9ec:	9f 93       	push	r25
     9ee:	8f 93       	push	r24
     9f0:	0e 94 a8 3d 	call	0x7b50	; 0x7b50 <snprintf>
     9f4:	cd bf       	out	0x3d, r28	; 61
     9f6:	de bf       	out	0x3e, r29	; 62
     9f8:	ba c0       	rjmp	.+372    	; 0xb6e <ScanDataInSlave+0x350>
    }
// the slave sends 0000 if all sensor that exists in the buffer are given
    else {
       snprintf(response,MAXDATA-1,"$%03dW%02d0000'All done'", sMyAdress,index);
     9fa:	7f 93       	push	r23
     9fc:	6f 93       	push	r22
     9fe:	80 91 fc 27 	lds	r24, 0x27FC	; 0x8027fc <sMyAdress+0x1>
     a02:	8f 93       	push	r24
     a04:	80 91 fb 27 	lds	r24, 0x27FB	; 0x8027fb <sMyAdress>
     a08:	8f 93       	push	r24
     a0a:	8b e6       	ldi	r24, 0x6B	; 107
     a0c:	91 e2       	ldi	r25, 0x21	; 33
     a0e:	9f 93       	push	r25
     a10:	8f 93       	push	r24
     a12:	1f 92       	push	r1
     a14:	8d e4       	ldi	r24, 0x4D	; 77
     a16:	8f 93       	push	r24
     a18:	80 ea       	ldi	r24, 0xA0	; 160
     a1a:	97 e2       	ldi	r25, 0x27	; 39
     a1c:	9f 93       	push	r25
     a1e:	8f 93       	push	r24
     a20:	0e 94 a8 3d 	call	0x7b50	; 0x7b50 <snprintf>
     a24:	cd bf       	out	0x3d, r28	; 61
     a26:	de bf       	out	0x3e, r29	; 62
     a28:	a2 c0       	rjmp	.+324    	; 0xb6e <ScanDataInSlave+0x350>
 */
static void HandleCmdG(char* response, char* dataFromMaster){
    int sensorIndex, err;
    char adr[SUBADR_LENG];

    strncpy(adr,dataFromMaster + INDEX_SUBADR_POS, SUBADR_LENG-1);
     a2a:	44 e0       	ldi	r20, 0x04	; 4
     a2c:	50 e0       	ldi	r21, 0x00	; 0
     a2e:	b8 01       	movw	r22, r16
     a30:	6b 5f       	subi	r22, 0xFB	; 251
     a32:	7f 4f       	sbci	r23, 0xFF	; 255
     a34:	ce 01       	movw	r24, r28
     a36:	01 96       	adiw	r24, 0x01	; 1
     a38:	0e 94 00 3d 	call	0x7a00	; 0x7a00 <strncpy>
	adr[SUBADR_LENG-1] = '\0';
     a3c:	1d 82       	std	Y+5, r1	; 0x05

static int FindOwnSensorIndex(char *adressSensor){
	int i=0;
	int position = -1;

	for(i=0; i < sNumOwnSensor; i++){
     a3e:	80 90 f9 27 	lds	r8, 0x27F9	; 0x8027f9 <sNumOwnSensor>
     a42:	90 90 fa 27 	lds	r9, 0x27FA	; 0x8027fa <sNumOwnSensor+0x1>
     a46:	18 14       	cp	r1, r8
     a48:	19 04       	cpc	r1, r9
     a4a:	0c f0       	brlt	.+2      	; 0xa4e <ScanDataInSlave+0x230>
     a4c:	78 c0       	rjmp	.+240    	; 0xb3e <ScanDataInSlave+0x320>
		if(!strncmp(adressSensor,sOwnSensor[i].subadress,strlen(adressSensor))){
     a4e:	de 01       	movw	r26, r28
     a50:	11 96       	adiw	r26, 0x01	; 1
     a52:	fd 01       	movw	r30, r26
     a54:	01 90       	ld	r0, Z+
     a56:	00 20       	and	r0, r0
     a58:	e9 f7       	brne	.-6      	; 0xa54 <ScanDataInSlave+0x236>
     a5a:	31 97       	sbiw	r30, 0x01	; 1
     a5c:	3f 01       	movw	r6, r30
     a5e:	6a 1a       	sub	r6, r26
     a60:	7b 0a       	sbc	r7, r27
     a62:	a0 90 f5 27 	lds	r10, 0x27F5	; 0x8027f5 <sOwnSensor>
     a66:	b0 90 f6 27 	lds	r11, 0x27F6	; 0x8027f6 <sOwnSensor+0x1>
     a6a:	44 24       	eor	r4, r4
     a6c:	4a 94       	dec	r4
     a6e:	54 2c       	mov	r5, r4
     a70:	c1 2c       	mov	r12, r1
     a72:	d1 2c       	mov	r13, r1
     a74:	a3 01       	movw	r20, r6
     a76:	b5 01       	movw	r22, r10
     a78:	ce 01       	movw	r24, r28
     a7a:	01 96       	adiw	r24, 0x01	; 1
     a7c:	0e 94 f2 3c 	call	0x79e4	; 0x79e4 <strncmp>
     a80:	89 2b       	or	r24, r25
     a82:	09 f4       	brne	.+2      	; 0xa86 <ScanDataInSlave+0x268>
     a84:	26 01       	movw	r4, r12

static int FindOwnSensorIndex(char *adressSensor){
	int i=0;
	int position = -1;

	for(i=0; i < sNumOwnSensor; i++){
     a86:	9f ef       	ldi	r25, 0xFF	; 255
     a88:	c9 1a       	sub	r12, r25
     a8a:	d9 0a       	sbc	r13, r25
     a8c:	eb e0       	ldi	r30, 0x0B	; 11
     a8e:	ae 0e       	add	r10, r30
     a90:	b1 1c       	adc	r11, r1
     a92:	c8 14       	cp	r12, r8
     a94:	d9 04       	cpc	r13, r9
     a96:	71 f7       	brne	.-36     	; 0xa74 <ScanDataInSlave+0x256>
    strncpy(adr,dataFromMaster + INDEX_SUBADR_POS, SUBADR_LENG-1);
	adr[SUBADR_LENG-1] = '\0';

    sensorIndex = FindOwnSensorIndex(adr);

    if(sensorIndex !=-1){
     a98:	ff ef       	ldi	r31, 0xFF	; 255
     a9a:	4f 16       	cp	r4, r31
     a9c:	5f 06       	cpc	r5, r31
     a9e:	09 f4       	brne	.+2      	; 0xaa2 <ScanDataInSlave+0x284>
     aa0:	4e c0       	rjmp	.+156    	; 0xb3e <ScanDataInSlave+0x320>
		//sensorIndex is -1 if sensor not found
        sprintf(response,"$%03dG",sMyAdress);
     aa2:	ff 92       	push	r15
     aa4:	ef 92       	push	r14
     aa6:	84 e8       	ldi	r24, 0x84	; 132
     aa8:	91 e2       	ldi	r25, 0x21	; 33
     aaa:	9f 93       	push	r25
     aac:	8f 93       	push	r24
     aae:	0f 2e       	mov	r0, r31
     ab0:	f0 ea       	ldi	r31, 0xA0	; 160
     ab2:	ef 2e       	mov	r14, r31
     ab4:	f7 e2       	ldi	r31, 0x27	; 39
     ab6:	ff 2e       	mov	r15, r31
     ab8:	f0 2d       	mov	r31, r0
     aba:	ff 92       	push	r15
     abc:	ef 92       	push	r14
     abe:	0e 94 df 3d 	call	0x7bbe	; 0x7bbe <sprintf>
        err= sOwnSensor[sensorIndex].fpGetData(adr,response + strlen(response), MAXDATA-1-strlen(response) );
     ac2:	f7 01       	movw	r30, r14
     ac4:	01 90       	ld	r0, Z+
     ac6:	00 20       	and	r0, r0
     ac8:	e9 f7       	brne	.-6      	; 0xac4 <ScanDataInSlave+0x2a6>
     aca:	31 97       	sbiw	r30, 0x01	; 1
     acc:	e0 5a       	subi	r30, 0xA0	; 160
     ace:	f7 42       	sbci	r31, 0x27	; 39
     ad0:	4d e4       	ldi	r20, 0x4D	; 77
     ad2:	50 e0       	ldi	r21, 0x00	; 0
     ad4:	4e 1b       	sub	r20, r30
     ad6:	5f 0b       	sbc	r21, r31
     ad8:	bf 01       	movw	r22, r30
     ada:	60 56       	subi	r22, 0x60	; 96
     adc:	78 4d       	sbci	r23, 0xD8	; 216
     ade:	2b e0       	ldi	r18, 0x0B	; 11
     ae0:	24 9d       	mul	r18, r4
     ae2:	c0 01       	movw	r24, r0
     ae4:	25 9d       	mul	r18, r5
     ae6:	90 0d       	add	r25, r0
     ae8:	11 24       	eor	r1, r1
     aea:	e0 91 f5 27 	lds	r30, 0x27F5	; 0x8027f5 <sOwnSensor>
     aee:	f0 91 f6 27 	lds	r31, 0x27F6	; 0x8027f6 <sOwnSensor+0x1>
     af2:	e8 0f       	add	r30, r24
     af4:	f9 1f       	adc	r31, r25
     af6:	07 80       	ldd	r0, Z+7	; 0x07
     af8:	f0 85       	ldd	r31, Z+8	; 0x08
     afa:	e0 2d       	mov	r30, r0
     afc:	ce 01       	movw	r24, r28
     afe:	01 96       	adiw	r24, 0x01	; 1
     b00:	19 95       	eicall
        if(err){
     b02:	0f 90       	pop	r0
     b04:	0f 90       	pop	r0
     b06:	0f 90       	pop	r0
     b08:	0f 90       	pop	r0
     b0a:	0f 90       	pop	r0
     b0c:	0f 90       	pop	r0
     b0e:	89 2b       	or	r24, r25
     b10:	71 f1       	breq	.+92     	; 0xb6e <ScanDataInSlave+0x350>
			sprintf(response,"$%03dGF'Memory fault'",sMyAdress);
     b12:	80 91 fc 27 	lds	r24, 0x27FC	; 0x8027fc <sMyAdress+0x1>
     b16:	8f 93       	push	r24
     b18:	80 91 fb 27 	lds	r24, 0x27FB	; 0x8027fb <sMyAdress>
     b1c:	8f 93       	push	r24
     b1e:	8b e8       	ldi	r24, 0x8B	; 139
     b20:	91 e2       	ldi	r25, 0x21	; 33
     b22:	9f 93       	push	r25
     b24:	8f 93       	push	r24
     b26:	c7 01       	movw	r24, r14
     b28:	9f 93       	push	r25
     b2a:	ef 92       	push	r14
     b2c:	0e 94 df 3d 	call	0x7bbe	; 0x7bbe <sprintf>
     b30:	0f 90       	pop	r0
     b32:	0f 90       	pop	r0
     b34:	0f 90       	pop	r0
     b36:	0f 90       	pop	r0
     b38:	0f 90       	pop	r0
     b3a:	0f 90       	pop	r0
     b3c:	18 c0       	rjmp	.+48     	; 0xb6e <ScanDataInSlave+0x350>
		}
    }
    else{
        sprintf(response,"$%03dGF'Sensor not found'",sMyAdress);
     b3e:	ff 92       	push	r15
     b40:	ef 92       	push	r14
     b42:	81 ea       	ldi	r24, 0xA1	; 161
     b44:	91 e2       	ldi	r25, 0x21	; 33
     b46:	9f 93       	push	r25
     b48:	8f 93       	push	r24
     b4a:	80 ea       	ldi	r24, 0xA0	; 160
     b4c:	97 e2       	ldi	r25, 0x27	; 39
     b4e:	9f 93       	push	r25
     b50:	8f 93       	push	r24
     b52:	0e 94 df 3d 	call	0x7bbe	; 0x7bbe <sprintf>
     b56:	0f 90       	pop	r0
     b58:	0f 90       	pop	r0
     b5a:	0f 90       	pop	r0
     b5c:	0f 90       	pop	r0
     b5e:	0f 90       	pop	r0
     b60:	0f 90       	pop	r0
     b62:	05 c0       	rjmp	.+10     	; 0xb6e <ScanDataInSlave+0x350>
                break;

      case 'G': HandleCmdG(responseSlave,dataFromMaster);
                break;

      case 'S': HandleCmdS(responseSlave,dataFromMaster);
     b64:	b8 01       	movw	r22, r16
     b66:	80 ea       	ldi	r24, 0xA0	; 160
     b68:	97 e2       	ldi	r25, 0x27	; 39
     b6a:	0e 94 f0 02 	call	0x5e0	; 0x5e0 <HandleCmdS>
 */

static uint8_t DataChecksum(char *dataMaster){
    uint8_t sChecksum = 0;
	dataMaster++;
    while(*dataMaster != CHECKSUMSIGN && *dataMaster != '\0'){
     b6e:	80 91 a1 27 	lds	r24, 0x27A1	; 0x8027a1 <__data_end+0x1>
     b72:	85 32       	cpi	r24, 0x25	; 37
     b74:	61 f0       	breq	.+24     	; 0xb8e <ScanDataInSlave+0x370>
     b76:	88 23       	and	r24, r24
     b78:	61 f0       	breq	.+24     	; 0xb92 <ScanDataInSlave+0x374>
     b7a:	e2 ea       	ldi	r30, 0xA2	; 162
     b7c:	f7 e2       	ldi	r31, 0x27	; 39
     b7e:	90 e0       	ldi	r25, 0x00	; 0
		sChecksum^=*dataMaster++;
     b80:	98 27       	eor	r25, r24
 */

static uint8_t DataChecksum(char *dataMaster){
    uint8_t sChecksum = 0;
	dataMaster++;
    while(*dataMaster != CHECKSUMSIGN && *dataMaster != '\0'){
     b82:	81 91       	ld	r24, Z+
     b84:	85 32       	cpi	r24, 0x25	; 37
     b86:	31 f0       	breq	.+12     	; 0xb94 <ScanDataInSlave+0x376>
     b88:	81 11       	cpse	r24, r1
     b8a:	fa cf       	rjmp	.-12     	; 0xb80 <ScanDataInSlave+0x362>
     b8c:	03 c0       	rjmp	.+6      	; 0xb94 <ScanDataInSlave+0x376>
 *
 * \return checksum value
 */

static uint8_t DataChecksum(char *dataMaster){
    uint8_t sChecksum = 0;
     b8e:	90 e0       	ldi	r25, 0x00	; 0
     b90:	01 c0       	rjmp	.+2      	; 0xb94 <ScanDataInSlave+0x376>
     b92:	90 e0       	ldi	r25, 0x00	; 0
                break;

      default:  break;
    }
    // add '%' and the checksum to the sentence and then send it through the line of the RS485
    snprintf(responseSlave+strlen(responseSlave),MAXCHARACTERSSENTENCE-strlen(responseSlave),"%%%02X",DataChecksum(responseSlave));
     b94:	e0 ea       	ldi	r30, 0xA0	; 160
     b96:	f7 e2       	ldi	r31, 0x27	; 39
     b98:	01 90       	ld	r0, Z+
     b9a:	00 20       	and	r0, r0
     b9c:	e9 f7       	brne	.-6      	; 0xb98 <ScanDataInSlave+0x37a>
     b9e:	31 97       	sbiw	r30, 0x01	; 1
     ba0:	e0 5a       	subi	r30, 0xA0	; 160
     ba2:	f7 42       	sbci	r31, 0x27	; 39
     ba4:	1f 92       	push	r1
     ba6:	9f 93       	push	r25
     ba8:	8b eb       	ldi	r24, 0xBB	; 187
     baa:	91 e2       	ldi	r25, 0x21	; 33
     bac:	9f 93       	push	r25
     bae:	8f 93       	push	r24
     bb0:	83 e5       	ldi	r24, 0x53	; 83
     bb2:	90 e0       	ldi	r25, 0x00	; 0
     bb4:	8e 1b       	sub	r24, r30
     bb6:	9f 0b       	sbc	r25, r31
     bb8:	9f 93       	push	r25
     bba:	8f 93       	push	r24
     bbc:	e0 56       	subi	r30, 0x60	; 96
     bbe:	f8 4d       	sbci	r31, 0xD8	; 216
     bc0:	ff 93       	push	r31
     bc2:	ef 93       	push	r30
     bc4:	0e 94 a8 3d 	call	0x7b50	; 0x7b50 <snprintf>
    SendLineRS485(responseSlave);
     bc8:	80 ea       	ldi	r24, 0xA0	; 160
     bca:	97 e2       	ldi	r25, 0x27	; 39
     bcc:	0e 94 c9 03 	call	0x792	; 0x792 <SendLineRS485>
     bd0:	cd bf       	out	0x3d, r28	; 61
     bd2:	de bf       	out	0x3e, r29	; 62
    err =1;
	}
	dataFromMaster[0] = '\0';
     bd4:	f8 01       	movw	r30, r16
     bd6:	10 82       	st	Z, r1
     bd8:	81 e0       	ldi	r24, 0x01	; 1
     bda:	03 c0       	rjmp	.+6      	; 0xbe2 <ScanDataInSlave+0x3c4>
	 * check if the checksum  of the master's sentence is equal to the calculated checksum
	 * if one of these conditions is false then return 0
	 * else if the adress is a for the broadcast the the command must be 'SET'
	*/
    if((dataFromMaster[KARAKTERSOORTZIN] != MASTERSENTENCE) || ((adress != sMyAdress) && (adress != BROADCAST))/* || (!CheckChecksum(dataFromMaster))*/){
       err = 0;
     bdc:	80 e0       	ldi	r24, 0x00	; 0
     bde:	01 c0       	rjmp	.+2      	; 0xbe2 <ScanDataInSlave+0x3c4>
     be0:	80 e0       	ldi	r24, 0x00	; 0
    err =1;
	}
	dataFromMaster[0] = '\0';
	}
	return err;
}
     be2:	25 96       	adiw	r28, 0x05	; 5
     be4:	cd bf       	out	0x3d, r28	; 61
     be6:	de bf       	out	0x3e, r29	; 62
     be8:	df 91       	pop	r29
     bea:	cf 91       	pop	r28
     bec:	1f 91       	pop	r17
     bee:	0f 91       	pop	r16
     bf0:	ff 90       	pop	r15
     bf2:	ef 90       	pop	r14
     bf4:	df 90       	pop	r13
     bf6:	cf 90       	pop	r12
     bf8:	bf 90       	pop	r11
     bfa:	af 90       	pop	r10
     bfc:	9f 90       	pop	r9
     bfe:	8f 90       	pop	r8
     c00:	7f 90       	pop	r7
     c02:	6f 90       	pop	r6
     c04:	5f 90       	pop	r5
     c06:	4f 90       	pop	r4
     c08:	08 95       	ret

00000c0a <main>:
}


static void InitClocks(void)
{
	CLKSYS_XOSC_Config( OSC_FRQRANGE_12TO16_gc, 0, OSC_XOSCSEL_XTAL_16KCLK_gc );
     c0a:	4b e0       	ldi	r20, 0x0B	; 11
     c0c:	60 e0       	ldi	r22, 0x00	; 0
     c0e:	80 ec       	ldi	r24, 0xC0	; 192
     c10:	0e 94 e7 01 	call	0x3ce	; 0x3ce <CLKSYS_XOSC_Config>
	CLKSYS_Enable( OSC_XOSCEN_bm );
     c14:	e0 e5       	ldi	r30, 0x50	; 80
     c16:	f0 e0       	ldi	r31, 0x00	; 0
     c18:	80 81       	ld	r24, Z
     c1a:	88 60       	ori	r24, 0x08	; 8
     c1c:	80 83       	st	Z, r24
// do {} while ( CLKSYS_IsReady( OSC_XOSCRDY_bm ) == 0 );
	do {} while ( CLKSYS_IsReady( OSC_XOSCRDY_bm ) == 0 );
     c1e:	81 81       	ldd	r24, Z+1	; 0x01
     c20:	83 ff       	sbrs	r24, 3
     c22:	fd cf       	rjmp	.-6      	; 0xc1e <main+0x14>
	CLKSYS_PLL_Config( OSC_PLLSRC_XOSC_gc, 2);
     c24:	62 e0       	ldi	r22, 0x02	; 2
     c26:	80 ec       	ldi	r24, 0xC0	; 192
     c28:	0e 94 f1 01 	call	0x3e2	; 0x3e2 <CLKSYS_PLL_Config>
	CLKSYS_Enable( OSC_PLLEN_bm );
     c2c:	e0 e5       	ldi	r30, 0x50	; 80
     c2e:	f0 e0       	ldi	r31, 0x00	; 0
     c30:	80 81       	ld	r24, Z
     c32:	80 61       	ori	r24, 0x10	; 16
     c34:	80 83       	st	Z, r24
	do {} while ( CLKSYS_IsReady( OSC_PLLRDY_bm ) == 0 );
     c36:	81 81       	ldd	r24, Z+1	; 0x01
     c38:	84 ff       	sbrs	r24, 4
     c3a:	fd cf       	rjmp	.-6      	; 0xc36 <main+0x2c>
	CLKSYS_Main_ClockSource_Select( CLK_SCLKSEL_PLL_gc );
     c3c:	84 e0       	ldi	r24, 0x04	; 4
     c3e:	0e 94 00 02 	call	0x400	; 0x400 <CLKSYS_Main_ClockSource_Select>
	CLKSYS_Disable( OSC_RC2MEN_bm );
     c42:	81 e0       	ldi	r24, 0x01	; 1
     c44:	0e 94 f6 01 	call	0x3ec	; 0x3ec <CLKSYS_Disable>
	CLKSYS_Disable( OSC_RC32MEN_bm );
     c48:	82 e0       	ldi	r24, 0x02	; 2
     c4a:	0e 94 f6 01 	call	0x3ec	; 0x3ec <CLKSYS_Disable>
	
} /* InitClocks */


static void InitIO(void) {
	PORTC.DIRCLR = PIN0_bm | PIN1_bm | PIN2_bm | PIN3_bm | PIN4_bm | PIN5_bm | PIN6_bm;
     c4e:	e0 e4       	ldi	r30, 0x40	; 64
     c50:	f6 e0       	ldi	r31, 0x06	; 6
     c52:	8f e7       	ldi	r24, 0x7F	; 127
     c54:	82 83       	std	Z+2, r24	; 0x02
	PORTC.PIN0CTRL = PORT_OPC_PULLDOWN_gc;
     c56:	80 e1       	ldi	r24, 0x10	; 16
     c58:	80 8b       	std	Z+16, r24	; 0x10
	
	PORTD.DIRCLR = PIN0_bm;
     c5a:	e0 e6       	ldi	r30, 0x60	; 96
     c5c:	f6 e0       	ldi	r31, 0x06	; 6
     c5e:	91 e0       	ldi	r25, 0x01	; 1
     c60:	92 83       	std	Z+2, r25	; 0x02
	PORTD.PIN0CTRL = PORT_OPC_PULLDOWN_gc;
     c62:	80 8b       	std	Z+16, r24	; 0x10
		
	PORTE.DIR = PIN0_bm | PIN1_bm | PIN2_bm | PIN3_bm | PIN6_bm | PIN7_bm;
     c64:	e0 e8       	ldi	r30, 0x80	; 128
     c66:	f6 e0       	ldi	r31, 0x06	; 6
     c68:	8f ec       	ldi	r24, 0xCF	; 207
     c6a:	80 83       	st	Z, r24
	PORTE.OUTCLR = PIN0_bm | PIN1_bm | PIN2_bm | PIN3_bm;
     c6c:	8f e0       	ldi	r24, 0x0F	; 15
     c6e:	86 83       	std	Z+6, r24	; 0x06
	
	PORTF.DIR = PIN0_bm | PIN3_bm | PIN4_bm | PIN5_bm | PIN6_bm | PIN7_bm;
     c70:	e0 ea       	ldi	r30, 0xA0	; 160
     c72:	f6 e0       	ldi	r31, 0x06	; 6
     c74:	89 ef       	ldi	r24, 0xF9	; 249
     c76:	80 83       	st	Z, r24
	PORTF.OUTCLR = PIN3_bm | PIN4_bm | PIN5_bm;
     c78:	88 e3       	ldi	r24, 0x38	; 56
     c7a:	86 83       	std	Z+6, r24	; 0x06
	uint8_t debugPrintstate = DEBUGPRINT_START, escTimeoutActive = 0;
	static char slaveData[MAXCHARACTERSSENTENCE];
	
	InitClocks();
	InitIO();
	InitUtil();
     c7c:	0e 94 df 31 	call	0x63be	; 0x63be <InitUtil>
	InitTimer();
     c80:	0e 94 70 30 	call	0x60e0	; 0x60e0 <InitTimer>
	InitSerial();
     c84:	0e 94 ed 2d 	call	0x5bda	; 0x5bda <InitSerial>
	InitSlave(GetBusID());
     c88:	0e 94 99 30 	call	0x6132	; 0x6132 <GetBusID>
     c8c:	90 e0       	ldi	r25, 0x00	; 0
     c8e:	0e 94 15 02 	call	0x42a	; 0x42a <InitSlave>
	InitCoreAnalog();
     c92:	0e 94 b3 0f 	call	0x1f66	; 0x1f66 <InitCoreAnalog>
	Init9DOF();
     c96:	0e 94 6e 07 	call	0xedc	; 0xedc <Init9DOF>
	InitReadBussensors();
     c9a:	0e 94 b6 2d 	call	0x5b6c	; 0x5b6c <InitReadBussensors>

	sei();
     c9e:	78 94       	sei
	
	PrintResetHeader(&gCtrl_IO);
     ca0:	86 e5       	ldi	r24, 0x56	; 86
     ca2:	90 e2       	ldi	r25, 0x20	; 32
     ca4:	0e 94 5d 25 	call	0x4aba	; 0x4aba <PrintResetHeader>
#define PRINT_ID_INTERVAL	((uint32_t)10*60*(CYCLES_PER_SECOND))

int main(void)
{
	uint32_t prev = 0, prevIDPrint = 0, now;
	uint8_t debugPrintstate = DEBUGPRINT_START, escTimeoutActive = 0;
     ca8:	c0 e0       	ldi	r28, 0x00	; 0
     caa:	31 2c       	mov	r3, r1
#define ESC_TIMEOUT			(CYCLES_PER_SECOND)
#define PRINT_ID_INTERVAL	((uint32_t)10*60*(CYCLES_PER_SECOND))

int main(void)
{
	uint32_t prev = 0, prevIDPrint = 0, now;
     cac:	41 2c       	mov	r4, r1
     cae:	51 2c       	mov	r5, r1
     cb0:	32 01       	movw	r6, r4
     cb2:	81 2c       	mov	r8, r1
     cb4:	91 2c       	mov	r9, r1
     cb6:	54 01       	movw	r10, r8

		/* Handle the slave code */
		if(CanRead_Comm485())
			PORTF.OUTCLR = PIN4_bm | PIN5_bm;
		else
			PORTF.OUTSET = PIN4_bm | PIN5_bm;
     cb8:	00 ea       	ldi	r16, 0xA0	; 160
     cba:	16 e0       	ldi	r17, 0x06	; 6
     cbc:	d0 e3       	ldi	r29, 0x30	; 48

	sei();
	
	PrintResetHeader(&gCtrl_IO);
	while(1) {
		Process9DOF();
     cbe:	0e 94 13 07 	call	0xe26	; 0xe26 <Process9DOF>
		
		if(CanRead_Ctrl()) {
     cc2:	0e 94 bc 2e 	call	0x5d78	; 0x5d78 <CanRead_Ctrl>
     cc6:	88 23       	and	r24, r24
     cc8:	e1 f0       	breq	.+56     	; 0xd02 <main+0xf8>
			switch(ReadByte_Ctrl()) {
     cca:	0e 94 c7 2e 	call	0x5d8e	; 0x5d8e <ReadByte_Ctrl>
     cce:	83 34       	cpi	r24, 0x43	; 67
     cd0:	51 f0       	breq	.+20     	; 0xce6 <main+0xdc>
     cd2:	83 36       	cpi	r24, 0x63	; 99
     cd4:	41 f0       	breq	.+16     	; 0xce6 <main+0xdc>
     cd6:	8b 31       	cpi	r24, 0x1B	; 27
     cd8:	51 f4       	brne	.+20     	; 0xcee <main+0xe4>
				case 0x1B:
					/* ESC -- sync character for avrdude. The programmer is trying to talk to us, so reset the chip */
					CCPWrite( &RST.CTRL, RST_SWRST_bm );
     cda:	61 e0       	ldi	r22, 0x01	; 1
     cdc:	89 e7       	ldi	r24, 0x79	; 121
     cde:	90 e0       	ldi	r25, 0x00	; 0
     ce0:	0e 94 d2 01 	call	0x3a4	; 0x3a4 <CCPWrite>
					break;
     ce4:	04 c0       	rjmp	.+8      	; 0xcee <main+0xe4>
				case 'c':
				case 'C':
					CalibrateChannel(&gCtrl_IO);
     ce6:	86 e5       	ldi	r24, 0x56	; 86
     ce8:	90 e2       	ldi	r25, 0x20	; 32
     cea:	0e 94 4c 12 	call	0x2498	; 0x2498 <CalibrateChannel>
					break;
			}
			escTimeoutActive = 1;
			prev = GetSessionCycleCount();
     cee:	0e 94 57 18 	call	0x30ae	; 0x30ae <GetSessionCycleCount>
     cf2:	4b 01       	movw	r8, r22
     cf4:	5c 01       	movw	r10, r24
		}
		now = GetSessionCycleCount();
     cf6:	0e 94 57 18 	call	0x30ae	; 0x30ae <GetSessionCycleCount>
     cfa:	6b 01       	movw	r12, r22
     cfc:	7c 01       	movw	r14, r24
				case 'c':
				case 'C':
					CalibrateChannel(&gCtrl_IO);
					break;
			}
			escTimeoutActive = 1;
     cfe:	c1 e0       	ldi	r28, 0x01	; 1
     d00:	07 c0       	rjmp	.+14     	; 0xd10 <main+0x106>
			prev = GetSessionCycleCount();
		}
		now = GetSessionCycleCount();
     d02:	0e 94 57 18 	call	0x30ae	; 0x30ae <GetSessionCycleCount>
     d06:	6b 01       	movw	r12, r22
     d08:	7c 01       	movw	r14, r24
		if(escTimeoutActive) {
     d0a:	cc 23       	and	r28, r28
     d0c:	09 f4       	brne	.+2      	; 0xd10 <main+0x106>
     d0e:	84 c0       	rjmp	.+264    	; 0xe18 <main+0x20e>
			if(now - prev >= ESC_TIMEOUT)
     d10:	d7 01       	movw	r26, r14
     d12:	c6 01       	movw	r24, r12
     d14:	88 19       	sub	r24, r8
     d16:	99 09       	sbc	r25, r9
     d18:	aa 09       	sbc	r26, r10
     d1a:	bb 09       	sbc	r27, r11
     d1c:	88 38       	cpi	r24, 0x88	; 136
     d1e:	93 41       	sbci	r25, 0x13	; 19
     d20:	a1 05       	cpc	r26, r1
     d22:	b1 05       	cpc	r27, r1
     d24:	08 f0       	brcs	.+2      	; 0xd28 <main+0x11e>
     d26:	78 c0       	rjmp	.+240    	; 0xe18 <main+0x20e>
     d28:	62 c0       	rjmp	.+196    	; 0xdee <main+0x1e4>
				escTimeoutActive = 0;
		}

		/* Dump data on the serial (debug) port */
		if(!escTimeoutActive && CanWrite_Ctrl() >= PRINTCSV_LINELEN) {
			switch(debugPrintstate) {
     d2a:	82 e0       	ldi	r24, 0x02	; 2
     d2c:	38 16       	cp	r3, r24
     d2e:	09 f4       	brne	.+2      	; 0xd32 <main+0x128>
     d30:	41 c0       	rjmp	.+130    	; 0xdb4 <main+0x1aa>
     d32:	83 15       	cp	r24, r3
     d34:	30 f0       	brcs	.+12     	; 0xd42 <main+0x138>
     d36:	33 20       	and	r3, r3
     d38:	41 f0       	breq	.+16     	; 0xd4a <main+0x140>
     d3a:	e1 e0       	ldi	r30, 0x01	; 1
     d3c:	3e 16       	cp	r3, r30
     d3e:	21 f1       	breq	.+72     	; 0xd88 <main+0x17e>
     d40:	54 c0       	rjmp	.+168    	; 0xdea <main+0x1e0>
     d42:	f3 e0       	ldi	r31, 0x03	; 3
     d44:	3f 12       	cpse	r3, r31
     d46:	51 c0       	rjmp	.+162    	; 0xdea <main+0x1e0>
     d48:	3f c0       	rjmp	.+126    	; 0xdc8 <main+0x1be>
				case DEBUGPRINT_START:
					if(now - prevIDPrint >= PRINT_ID_INTERVAL) {
     d4a:	c4 18       	sub	r12, r4
     d4c:	d5 08       	sbc	r13, r5
     d4e:	e6 08       	sbc	r14, r6
     d50:	f7 08       	sbc	r15, r7
     d52:	20 ec       	ldi	r18, 0xC0	; 192
     d54:	c2 16       	cp	r12, r18
     d56:	26 ec       	ldi	r18, 0xC6	; 198
     d58:	d2 06       	cpc	r13, r18
     d5a:	2d e2       	ldi	r18, 0x2D	; 45
     d5c:	e2 06       	cpc	r14, r18
     d5e:	f1 04       	cpc	r15, r1
     d60:	68 f0       	brcs	.+26     	; 0xd7c <main+0x172>
						prevIDPrint += PRINT_ID_INTERVAL;
     d62:	80 ec       	ldi	r24, 0xC0	; 192
     d64:	48 0e       	add	r4, r24
     d66:	86 ec       	ldi	r24, 0xC6	; 198
     d68:	58 1e       	adc	r5, r24
     d6a:	8d e2       	ldi	r24, 0x2D	; 45
     d6c:	68 1e       	adc	r6, r24
     d6e:	71 1c       	adc	r7, r1
						PrintResetHeader(&gCtrl_IO);
     d70:	86 e5       	ldi	r24, 0x56	; 86
     d72:	90 e2       	ldi	r25, 0x20	; 32
     d74:	0e 94 5d 25 	call	0x4aba	; 0x4aba <PrintResetHeader>
     d78:	c0 e0       	ldi	r28, 0x00	; 0
     d7a:	39 c0       	rjmp	.+114    	; 0xdee <main+0x1e4>
					}
					else {
						TakeSnapshot();
     d7c:	0e 94 53 18 	call	0x30a6	; 0x30a6 <TakeSnapshot>
     d80:	c0 e0       	ldi	r28, 0x00	; 0
						debugPrintstate = DEBUGPRINT_ANALOG;
     d82:	33 24       	eor	r3, r3
     d84:	33 94       	inc	r3
     d86:	33 c0       	rjmp	.+102    	; 0xdee <main+0x1e4>
					}
					break;
				case DEBUGPRINT_ANALOG:
					if(I_AM_H2A) {
     d88:	80 91 68 06 	lds	r24, 0x0668	; 0x800668 <__TEXT_REGION_LENGTH__+0x700668>
     d8c:	80 73       	andi	r24, 0x30	; 48
     d8e:	49 f4       	brne	.+18     	; 0xda2 <main+0x198>
						PrintCSV_H2A(&gCtrl_IO);
     d90:	86 e5       	ldi	r24, 0x56	; 86
     d92:	90 e2       	ldi	r25, 0x20	; 32
     d94:	0e 94 74 18 	call	0x30e8	; 0x30e8 <PrintCSV_H2A>
     d98:	c0 e0       	ldi	r28, 0x00	; 0
					}
					else {
						PrintCSV_EVA(&gCtrl_IO);
					}
					debugPrintstate = DEBUGPRINT_9DOF;
     d9a:	68 94       	set
     d9c:	33 24       	eor	r3, r3
     d9e:	31 f8       	bld	r3, 1
     da0:	26 c0       	rjmp	.+76     	; 0xdee <main+0x1e4>
				case DEBUGPRINT_ANALOG:
					if(I_AM_H2A) {
						PrintCSV_H2A(&gCtrl_IO);
					}
					else {
						PrintCSV_EVA(&gCtrl_IO);
     da2:	86 e5       	ldi	r24, 0x56	; 86
     da4:	90 e2       	ldi	r25, 0x20	; 32
     da6:	0e 94 98 20 	call	0x4130	; 0x4130 <PrintCSV_EVA>
     daa:	c0 e0       	ldi	r28, 0x00	; 0
					}
					debugPrintstate = DEBUGPRINT_9DOF;
     dac:	68 94       	set
     dae:	33 24       	eor	r3, r3
     db0:	31 f8       	bld	r3, 1
     db2:	1d c0       	rjmp	.+58     	; 0xdee <main+0x1e4>
					break;
				case DEBUGPRINT_9DOF:
					PrintCSV_9DOF(&gCtrl_IO);
     db4:	86 e5       	ldi	r24, 0x56	; 86
     db6:	90 e2       	ldi	r25, 0x20	; 32
     db8:	0e 94 21 09 	call	0x1242	; 0x1242 <PrintCSV_9DOF>
					debugPrintstate = DEBUGPRINT_BUS;
					break;
     dbc:	c0 e0       	ldi	r28, 0x00	; 0
					}
					debugPrintstate = DEBUGPRINT_9DOF;
					break;
				case DEBUGPRINT_9DOF:
					PrintCSV_9DOF(&gCtrl_IO);
					debugPrintstate = DEBUGPRINT_BUS;
     dbe:	0f 2e       	mov	r0, r31
     dc0:	f3 e0       	ldi	r31, 0x03	; 3
     dc2:	3f 2e       	mov	r3, r31
     dc4:	f0 2d       	mov	r31, r0
					break;
     dc6:	13 c0       	rjmp	.+38     	; 0xdee <main+0x1e4>
				case DEBUGPRINT_BUS:
					PrintBussensors(&gCtrl_IO);
     dc8:	86 e5       	ldi	r24, 0x56	; 86
     dca:	90 e2       	ldi	r25, 0x20	; 32
     dcc:	0e 94 cf 2d 	call	0x5b9e	; 0x5b9e <PrintBussensors>
					debugPrintstate = DEBUGPRINT_DONE;
				case DEBUGPRINT_DONE:
					fprintf(&gCtrl_IO, "<\r\n");
     dd0:	26 e5       	ldi	r18, 0x56	; 86
     dd2:	30 e2       	ldi	r19, 0x20	; 32
     dd4:	43 e0       	ldi	r20, 0x03	; 3
     dd6:	50 e0       	ldi	r21, 0x00	; 0
     dd8:	61 e0       	ldi	r22, 0x01	; 1
     dda:	70 e0       	ldi	r23, 0x00	; 0
     ddc:	82 ec       	ldi	r24, 0xC2	; 194
     dde:	91 e2       	ldi	r25, 0x21	; 33
     de0:	0e 94 66 3d 	call	0x7acc	; 0x7acc <fwrite>
     de4:	c0 e0       	ldi	r28, 0x00	; 0
				default:
					debugPrintstate = DEBUGPRINT_START;
     de6:	31 2c       	mov	r3, r1
     de8:	02 c0       	rjmp	.+4      	; 0xdee <main+0x1e4>
				escTimeoutActive = 0;
		}

		/* Dump data on the serial (debug) port */
		if(!escTimeoutActive && CanWrite_Ctrl() >= PRINTCSV_LINELEN) {
			switch(debugPrintstate) {
     dea:	c0 e0       	ldi	r28, 0x00	; 0
					PrintBussensors(&gCtrl_IO);
					debugPrintstate = DEBUGPRINT_DONE;
				case DEBUGPRINT_DONE:
					fprintf(&gCtrl_IO, "<\r\n");
				default:
					debugPrintstate = DEBUGPRINT_START;
     dec:	31 2c       	mov	r3, r1
			}
		}

		/* Handle the slave code */
		if(CanRead_Comm485())
     dee:	0e 94 47 2e 	call	0x5c8e	; 0x5c8e <CanRead_Comm485>
     df2:	88 23       	and	r24, r24
     df4:	19 f0       	breq	.+6      	; 0xdfc <main+0x1f2>
			PORTF.OUTCLR = PIN4_bm | PIN5_bm;
     df6:	f8 01       	movw	r30, r16
     df8:	d6 83       	std	Z+6, r29	; 0x06
     dfa:	02 c0       	rjmp	.+4      	; 0xe00 <main+0x1f6>
		else
			PORTF.OUTSET = PIN4_bm | PIN5_bm;
     dfc:	f8 01       	movw	r30, r16
     dfe:	d5 83       	std	Z+5, r29	; 0x05
		if ( ReadLineRS45( slaveData ) == 1 ){
     e00:	8d ef       	ldi	r24, 0xFD	; 253
     e02:	97 e2       	ldi	r25, 0x27	; 39
     e04:	0e 94 de 03 	call	0x7bc	; 0x7bc <ReadLineRS45>
     e08:	81 30       	cpi	r24, 0x01	; 1
     e0a:	09 f0       	breq	.+2      	; 0xe0e <main+0x204>
     e0c:	58 cf       	rjmp	.-336    	; 0xcbe <main+0xb4>
			ScanDataInSlave(slaveData);
     e0e:	8d ef       	ldi	r24, 0xFD	; 253
     e10:	97 e2       	ldi	r25, 0x27	; 39
     e12:	0e 94 0f 04 	call	0x81e	; 0x81e <ScanDataInSlave>
     e16:	53 cf       	rjmp	.-346    	; 0xcbe <main+0xb4>
			if(now - prev >= ESC_TIMEOUT)
				escTimeoutActive = 0;
		}

		/* Dump data on the serial (debug) port */
		if(!escTimeoutActive && CanWrite_Ctrl() >= PRINTCSV_LINELEN) {
     e18:	0e 94 dc 2e 	call	0x5db8	; 0x5db8 <CanWrite_Ctrl>
     e1c:	86 39       	cpi	r24, 0x96	; 150
     e1e:	08 f0       	brcs	.+2      	; 0xe22 <main+0x218>
     e20:	84 cf       	rjmp	.-248    	; 0xd2a <main+0x120>
     e22:	c0 e0       	ldi	r28, 0x00	; 0
     e24:	e4 cf       	rjmp	.-56     	; 0xdee <main+0x1e4>

00000e26 <Process9DOF>:
	S9DOFWrite(0x21, 0x00, SELECT_G);
	
} /* Init9DOF */


void Process9DOF(void) {
     e26:	08 95       	ret

00000e28 <S9DOFWrite>:
		);
	
} /* PrintCSV_9DOF */


void S9DOFWrite(char Address, char Data, uint8_t xm_or_g) {
     e28:	0f 93       	push	r16
     e2a:	1f 93       	push	r17
     e2c:	cf 93       	push	r28
     e2e:	df 93       	push	r29
	uint8_t bit = 0, i;

	if (xm_or_g == SELECT_G)CS_G_POORT.OUTCLR = CS_G;
     e30:	41 30       	cpi	r20, 0x01	; 1
     e32:	21 f4       	brne	.+8      	; 0xe3c <S9DOFWrite+0x14>
     e34:	91 e0       	ldi	r25, 0x01	; 1
     e36:	90 93 46 06 	sts	0x0646, r25	; 0x800646 <__TEXT_REGION_LENGTH__+0x700646>
     e3a:	40 c0       	rjmp	.+128    	; 0xebc <S9DOFWrite+0x94>
	else CS_XM_POORT.OUTCLR = CS_XM;
     e3c:	90 e8       	ldi	r25, 0x80	; 128
     e3e:	90 93 46 06 	sts	0x0646, r25	; 0x800646 <__TEXT_REGION_LENGTH__+0x700646>
     e42:	3c c0       	rjmp	.+120    	; 0xebc <S9DOFWrite+0x94>

	for(i = 0; i < 8; i++) {
		SCL_POORT.OUTCLR = SCL;
     e44:	96 83       	std	Z+6, r25	; 0x06
		bit = ((Address << i) & 0x80);
		if (bit) {SDA_POORT.OUTSET = SDA;}
     e46:	de 01       	movw	r26, r28
     e48:	02 2e       	mov	r0, r18
     e4a:	02 c0       	rjmp	.+4      	; 0xe50 <S9DOFWrite+0x28>
     e4c:	aa 0f       	add	r26, r26
     e4e:	bb 1f       	adc	r27, r27
     e50:	0a 94       	dec	r0
     e52:	e2 f7       	brpl	.-8      	; 0xe4c <S9DOFWrite+0x24>
     e54:	aa 23       	and	r26, r26
     e56:	24 f4       	brge	.+8      	; 0xe60 <S9DOFWrite+0x38>
     e58:	d8 01       	movw	r26, r16
     e5a:	15 96       	adiw	r26, 0x05	; 5
     e5c:	8c 93       	st	X, r24
     e5e:	03 c0       	rjmp	.+6      	; 0xe66 <S9DOFWrite+0x3e>
		else {SDA_POORT.OUTCLR = SDA;}
     e60:	d8 01       	movw	r26, r16
     e62:	16 96       	adiw	r26, 0x06	; 6
     e64:	8c 93       	st	X, r24
		SCL_POORT.OUTSET = SCL;
     e66:	95 83       	std	Z+5, r25	; 0x05
     e68:	2f 5f       	subi	r18, 0xFF	; 255
     e6a:	3f 4f       	sbci	r19, 0xFF	; 255
	uint8_t bit = 0, i;

	if (xm_or_g == SELECT_G)CS_G_POORT.OUTCLR = CS_G;
	else CS_XM_POORT.OUTCLR = CS_XM;

	for(i = 0; i < 8; i++) {
     e6c:	28 30       	cpi	r18, 0x08	; 8
     e6e:	31 05       	cpc	r19, r1
     e70:	49 f7       	brne	.-46     	; 0xe44 <S9DOFWrite+0x1c>
     e72:	80 e0       	ldi	r24, 0x00	; 0
     e74:	90 e0       	ldi	r25, 0x00	; 0
		SCL_POORT.OUTSET = SCL;
	}


	for(i = 0; i < 8; i++) {
		SCL_POORT.OUTCLR = SCL;
     e76:	e0 e6       	ldi	r30, 0x60	; 96
     e78:	f6 e0       	ldi	r31, 0x06	; 6
     e7a:	21 e0       	ldi	r18, 0x01	; 1
		bit = ((Data << i) & 0x80);
		if (bit) {SDA_POORT.OUTSET = SDA;}
     e7c:	70 e0       	ldi	r23, 0x00	; 0
		else {SDA_POORT.OUTCLR = SDA;}
     e7e:	c0 e8       	ldi	r28, 0x80	; 128
     e80:	d6 e0       	ldi	r29, 0x06	; 6
     e82:	30 e4       	ldi	r19, 0x40	; 64
		SCL_POORT.OUTSET = SCL;
	}


	for(i = 0; i < 8; i++) {
		SCL_POORT.OUTCLR = SCL;
     e84:	26 83       	std	Z+6, r18	; 0x06
		bit = ((Data << i) & 0x80);
		if (bit) {SDA_POORT.OUTSET = SDA;}
     e86:	db 01       	movw	r26, r22
     e88:	08 2e       	mov	r0, r24
     e8a:	02 c0       	rjmp	.+4      	; 0xe90 <S9DOFWrite+0x68>
     e8c:	aa 0f       	add	r26, r26
     e8e:	bb 1f       	adc	r27, r27
     e90:	0a 94       	dec	r0
     e92:	e2 f7       	brpl	.-8      	; 0xe8c <S9DOFWrite+0x64>
     e94:	aa 23       	and	r26, r26
     e96:	14 f4       	brge	.+4      	; 0xe9c <S9DOFWrite+0x74>
     e98:	3d 83       	std	Y+5, r19	; 0x05
     e9a:	01 c0       	rjmp	.+2      	; 0xe9e <S9DOFWrite+0x76>
		else {SDA_POORT.OUTCLR = SDA;}
     e9c:	3e 83       	std	Y+6, r19	; 0x06
		SCL_POORT.OUTSET = SCL;
     e9e:	25 83       	std	Z+5, r18	; 0x05
     ea0:	01 96       	adiw	r24, 0x01	; 1
		else {SDA_POORT.OUTCLR = SDA;}
		SCL_POORT.OUTSET = SCL;
	}


	for(i = 0; i < 8; i++) {
     ea2:	88 30       	cpi	r24, 0x08	; 8
     ea4:	91 05       	cpc	r25, r1
     ea6:	71 f7       	brne	.-36     	; 0xe84 <S9DOFWrite+0x5c>
		if (bit) {SDA_POORT.OUTSET = SDA;}
		else {SDA_POORT.OUTCLR = SDA;}
		SCL_POORT.OUTSET = SCL;
	}

	if (xm_or_g == SELECT_G)CS_G_POORT.OUTSET = CS_G;
     ea8:	41 30       	cpi	r20, 0x01	; 1
     eaa:	21 f4       	brne	.+8      	; 0xeb4 <S9DOFWrite+0x8c>
     eac:	81 e0       	ldi	r24, 0x01	; 1
     eae:	80 93 45 06 	sts	0x0645, r24	; 0x800645 <__TEXT_REGION_LENGTH__+0x700645>
     eb2:	0f c0       	rjmp	.+30     	; 0xed2 <S9DOFWrite+0xaa>
	else CS_XM_POORT.OUTSET = CS_XM;
     eb4:	80 e8       	ldi	r24, 0x80	; 128
     eb6:	80 93 45 06 	sts	0x0645, r24	; 0x800645 <__TEXT_REGION_LENGTH__+0x700645>
		
} /* S9DOFWrite */
     eba:	0b c0       	rjmp	.+22     	; 0xed2 <S9DOFWrite+0xaa>
		);
	
} /* PrintCSV_9DOF */


void S9DOFWrite(char Address, char Data, uint8_t xm_or_g) {
     ebc:	20 e0       	ldi	r18, 0x00	; 0
     ebe:	30 e0       	ldi	r19, 0x00	; 0

	if (xm_or_g == SELECT_G)CS_G_POORT.OUTCLR = CS_G;
	else CS_XM_POORT.OUTCLR = CS_XM;

	for(i = 0; i < 8; i++) {
		SCL_POORT.OUTCLR = SCL;
     ec0:	e0 e6       	ldi	r30, 0x60	; 96
     ec2:	f6 e0       	ldi	r31, 0x06	; 6
     ec4:	91 e0       	ldi	r25, 0x01	; 1
		bit = ((Address << i) & 0x80);
		if (bit) {SDA_POORT.OUTSET = SDA;}
     ec6:	c8 2f       	mov	r28, r24
     ec8:	d0 e0       	ldi	r29, 0x00	; 0
		else {SDA_POORT.OUTCLR = SDA;}
     eca:	00 e8       	ldi	r16, 0x80	; 128
     ecc:	16 e0       	ldi	r17, 0x06	; 6
     ece:	80 e4       	ldi	r24, 0x40	; 64
     ed0:	b9 cf       	rjmp	.-142    	; 0xe44 <S9DOFWrite+0x1c>
	}

	if (xm_or_g == SELECT_G)CS_G_POORT.OUTSET = CS_G;
	else CS_XM_POORT.OUTSET = CS_XM;
		
} /* S9DOFWrite */
     ed2:	df 91       	pop	r29
     ed4:	cf 91       	pop	r28
     ed6:	1f 91       	pop	r17
     ed8:	0f 91       	pop	r16
     eda:	08 95       	ret

00000edc <Init9DOF>:

#define SENSORS_GRAVITY_EARTH	9.81
#define GYRO_RES	0.0074770348//245/32768


void Init9DOF(void) {
     edc:	cf 93       	push	r28
     ede:	df 93       	push	r29
	
	SDA_POORT.DIRSET	=	SDA;
     ee0:	a0 e8       	ldi	r26, 0x80	; 128
     ee2:	b6 e0       	ldi	r27, 0x06	; 6
     ee4:	20 e4       	ldi	r18, 0x40	; 64
     ee6:	11 96       	adiw	r26, 0x01	; 1
     ee8:	2c 93       	st	X, r18
     eea:	11 97       	sbiw	r26, 0x01	; 1
	CS_G_POORT.DIRSET	=	CS_G;
     eec:	e0 e4       	ldi	r30, 0x40	; 64
     eee:	f6 e0       	ldi	r31, 0x06	; 6
     ef0:	81 e0       	ldi	r24, 0x01	; 1
     ef2:	81 83       	std	Z+1, r24	; 0x01
	CS_XM_POORT.DIRSET	=	CS_XM;
     ef4:	90 e8       	ldi	r25, 0x80	; 128
     ef6:	91 83       	std	Z+1, r25	; 0x01
	SCL_POORT.DIRSET	=	SCL;
     ef8:	c0 e6       	ldi	r28, 0x60	; 96
     efa:	d6 e0       	ldi	r29, 0x06	; 6
     efc:	89 83       	std	Y+1, r24	; 0x01

	SCL_POORT.OUTSET	=	SCL;
     efe:	8d 83       	std	Y+5, r24	; 0x05
	SDA_POORT.OUTCLR	=	SDA;
     f00:	16 96       	adiw	r26, 0x06	; 6
     f02:	2c 93       	st	X, r18
     f04:	16 97       	sbiw	r26, 0x06	; 6
	CS_G_POORT.OUTSET	=	CS_G;
     f06:	85 83       	std	Z+5, r24	; 0x05
	CS_XM_POORT.OUTSET	=	CS_XM;
     f08:	95 83       	std	Z+5, r25	; 0x05

	SDO_G_POORT.DIRCLR	=	SDO_G;
     f0a:	80 93 a2 06 	sts	0x06A2, r24	; 0x8006a2 <__TEXT_REGION_LENGTH__+0x7006a2>
	SDO_XM_POORT.DIRCLR	=	SDO_XM;
     f0e:	12 96       	adiw	r26, 0x02	; 2
     f10:	9c 93       	st	X, r25

	S9DOFWrite(0x20, 0x47, SELECT_XM);
     f12:	40 e0       	ldi	r20, 0x00	; 0
     f14:	67 e4       	ldi	r22, 0x47	; 71
     f16:	80 e2       	ldi	r24, 0x20	; 32
     f18:	0e 94 14 07 	call	0xe28	; 0xe28 <S9DOFWrite>
	S9DOFWrite(0x21, 0x08, SELECT_XM);
     f1c:	40 e0       	ldi	r20, 0x00	; 0
     f1e:	68 e0       	ldi	r22, 0x08	; 8
     f20:	81 e2       	ldi	r24, 0x21	; 33
     f22:	0e 94 14 07 	call	0xe28	; 0xe28 <S9DOFWrite>
	S9DOFWrite(0x24, 0x94, SELECT_XM);//was 0x10
     f26:	40 e0       	ldi	r20, 0x00	; 0
     f28:	64 e9       	ldi	r22, 0x94	; 148
     f2a:	84 e2       	ldi	r24, 0x24	; 36
     f2c:	0e 94 14 07 	call	0xe28	; 0xe28 <S9DOFWrite>
	S9DOFWrite(0x25, 0x20, SELECT_XM);
     f30:	40 e0       	ldi	r20, 0x00	; 0
     f32:	60 e2       	ldi	r22, 0x20	; 32
     f34:	85 e2       	ldi	r24, 0x25	; 37
     f36:	0e 94 14 07 	call	0xe28	; 0xe28 <S9DOFWrite>
	S9DOFWrite(0x26, 0x00, SELECT_XM);
     f3a:	40 e0       	ldi	r20, 0x00	; 0
     f3c:	60 e0       	ldi	r22, 0x00	; 0
     f3e:	86 e2       	ldi	r24, 0x26	; 38
     f40:	0e 94 14 07 	call	0xe28	; 0xe28 <S9DOFWrite>

	S9DOFWrite(0x20, 0x8F, SELECT_G);
     f44:	41 e0       	ldi	r20, 0x01	; 1
     f46:	6f e8       	ldi	r22, 0x8F	; 143
     f48:	80 e2       	ldi	r24, 0x20	; 32
     f4a:	0e 94 14 07 	call	0xe28	; 0xe28 <S9DOFWrite>
	S9DOFWrite(0x21, 0x00, SELECT_G);
     f4e:	41 e0       	ldi	r20, 0x01	; 1
     f50:	60 e0       	ldi	r22, 0x00	; 0
     f52:	81 e2       	ldi	r24, 0x21	; 33
     f54:	0e 94 14 07 	call	0xe28	; 0xe28 <S9DOFWrite>
	
} /* Init9DOF */
     f58:	df 91       	pop	r29
     f5a:	cf 91       	pop	r28
     f5c:	08 95       	ret

00000f5e <S9DOFRead>:
	else CS_XM_POORT.OUTSET = CS_XM;
		
} /* S9DOFWrite */


uint16_t S9DOFRead(char Address, uint8_t bytes, uint8_t xm_or_g) {
     f5e:	4f 92       	push	r4
     f60:	5f 92       	push	r5
     f62:	7f 92       	push	r7
     f64:	8f 92       	push	r8
     f66:	9f 92       	push	r9
     f68:	af 92       	push	r10
     f6a:	bf 92       	push	r11
     f6c:	cf 92       	push	r12
     f6e:	df 92       	push	r13
     f70:	ef 92       	push	r14
     f72:	ff 92       	push	r15
     f74:	0f 93       	push	r16
     f76:	1f 93       	push	r17
     f78:	cf 93       	push	r28
     f7a:	df 93       	push	r29
     f7c:	76 2e       	mov	r7, r22
	int8_t bitXM = 0;
	uint16_t data = 0;
	uint16_t byteGyroG = 0, byte2GyroG =0;
	uint16_t byteGyroXM = 0, byte2GyroXM = 0;

	if (xm_or_g == SELECT_G)
     f7e:	41 30       	cpi	r20, 0x01	; 1
     f80:	21 f4       	brne	.+8      	; 0xf8a <S9DOFRead+0x2c>
		CS_G_POORT.OUTCLR = CS_G;
     f82:	91 e0       	ldi	r25, 0x01	; 1
     f84:	90 93 46 06 	sts	0x0646, r25	; 0x800646 <__TEXT_REGION_LENGTH__+0x700646>
     f88:	03 c0       	rjmp	.+6      	; 0xf90 <S9DOFRead+0x32>
	else 
		CS_XM_POORT.OUTCLR = CS_XM;
     f8a:	90 e8       	ldi	r25, 0x80	; 128
     f8c:	90 93 46 06 	sts	0x0646, r25	; 0x800646 <__TEXT_REGION_LENGTH__+0x700646>

	Address |= 0x80;
     f90:	80 68       	ori	r24, 0x80	; 128
     f92:	60 e0       	ldi	r22, 0x00	; 0
     f94:	70 e0       	ldi	r23, 0x00	; 0

	for(i = 0; i < 8; i++) {
		bit = !!((Address << i) & 0x80);
		if (bit) {
     f96:	a8 2f       	mov	r26, r24
     f98:	b0 e0       	ldi	r27, 0x00	; 0
			SDA_POORT.OUTSET = SDA;
		}
		else {
			SDA_POORT.OUTCLR = SDA;
     f9a:	0f 2e       	mov	r0, r31
     f9c:	f0 e8       	ldi	r31, 0x80	; 128
     f9e:	ef 2e       	mov	r14, r31
     fa0:	f6 e0       	ldi	r31, 0x06	; 6
     fa2:	ff 2e       	mov	r15, r31
     fa4:	f0 2d       	mov	r31, r0
     fa6:	80 e4       	ldi	r24, 0x40	; 64
		}
		SCL_POORT.OUTCLR = SCL;
     fa8:	e0 e6       	ldi	r30, 0x60	; 96
     faa:	f6 e0       	ldi	r31, 0x06	; 6
     fac:	91 e0       	ldi	r25, 0x01	; 1

	Address |= 0x80;

	for(i = 0; i < 8; i++) {
		bit = !!((Address << i) & 0x80);
		if (bit) {
     fae:	9d 01       	movw	r18, r26
     fb0:	06 2e       	mov	r0, r22
     fb2:	02 c0       	rjmp	.+4      	; 0xfb8 <S9DOFRead+0x5a>
     fb4:	22 0f       	add	r18, r18
     fb6:	33 1f       	adc	r19, r19
     fb8:	0a 94       	dec	r0
     fba:	e2 f7       	brpl	.-8      	; 0xfb4 <S9DOFRead+0x56>
     fbc:	27 ff       	sbrs	r18, 7
     fbe:	03 c0       	rjmp	.+6      	; 0xfc6 <S9DOFRead+0x68>
			SDA_POORT.OUTSET = SDA;
     fc0:	e7 01       	movw	r28, r14
     fc2:	8d 83       	std	Y+5, r24	; 0x05
     fc4:	02 c0       	rjmp	.+4      	; 0xfca <S9DOFRead+0x6c>
		}
		else {
			SDA_POORT.OUTCLR = SDA;
     fc6:	e7 01       	movw	r28, r14
     fc8:	8e 83       	std	Y+6, r24	; 0x06
		}
		SCL_POORT.OUTCLR = SCL;
     fca:	96 83       	std	Z+6, r25	; 0x06
		SCL_POORT.OUTSET = SCL;
     fcc:	95 83       	std	Z+5, r25	; 0x05
     fce:	6f 5f       	subi	r22, 0xFF	; 255
     fd0:	7f 4f       	sbci	r23, 0xFF	; 255
	else 
		CS_XM_POORT.OUTCLR = CS_XM;

	Address |= 0x80;

	for(i = 0; i < 8; i++) {
     fd2:	68 30       	cpi	r22, 0x08	; 8
     fd4:	71 05       	cpc	r23, r1
     fd6:	59 f7       	brne	.-42     	; 0xfae <S9DOFRead+0x50>
			SDA_POORT.OUTCLR = SDA;
		}
		SCL_POORT.OUTCLR = SCL;
		SCL_POORT.OUTSET = SCL;
	}
	SDA_POORT.OUTSET = SDA;
     fd8:	80 e4       	ldi	r24, 0x40	; 64
     fda:	80 93 85 06 	sts	0x0685, r24	; 0x800685 <__TEXT_REGION_LENGTH__+0x700685>
     fde:	98 e0       	ldi	r25, 0x08	; 8
	uint8_t bit, i;
	int8_t bitG = 0;
	int8_t bitXM = 0;
	uint16_t data = 0;
	uint16_t byteGyroG = 0, byte2GyroG =0;
	uint16_t byteGyroXM = 0, byte2GyroXM = 0;
     fe0:	20 e0       	ldi	r18, 0x00	; 0
     fe2:	30 e0       	ldi	r19, 0x00	; 0
uint16_t S9DOFRead(char Address, uint8_t bytes, uint8_t xm_or_g) {
	uint8_t bit, i;
	int8_t bitG = 0;
	int8_t bitXM = 0;
	uint16_t data = 0;
	uint16_t byteGyroG = 0, byte2GyroG =0;
     fe4:	e0 e0       	ldi	r30, 0x00	; 0
     fe6:	f0 e0       	ldi	r31, 0x00	; 0
		SCL_POORT.OUTSET = SCL;
	}
	SDA_POORT.OUTSET = SDA;

	for(i = 0; i < 8; i++) {
		SCL_POORT.OUTCLR = SCL;
     fe8:	c0 e6       	ldi	r28, 0x60	; 96
     fea:	d6 e0       	ldi	r29, 0x06	; 6
     fec:	51 e0       	ldi	r21, 0x01	; 1
		SCL_POORT.OUTSET = SCL;
		
		if(SDO_G_POORT.IN & SDO_G)bitG = 1;
     fee:	0f 2e       	mov	r0, r31
     ff0:	f0 ea       	ldi	r31, 0xA0	; 160
     ff2:	cf 2e       	mov	r12, r31
     ff4:	f6 e0       	ldi	r31, 0x06	; 6
     ff6:	df 2e       	mov	r13, r31
     ff8:	f0 2d       	mov	r31, r0
		else bitG = 0;
		byteGyroG = ((byteGyroG&0x7F)<<1)|bitG;

		if(SDO_XM_POORT.IN & SDO_XM)bitXM = 1;
     ffa:	0f 2e       	mov	r0, r31
     ffc:	f0 e8       	ldi	r31, 0x80	; 128
     ffe:	ef 2e       	mov	r14, r31
    1000:	f6 e0       	ldi	r31, 0x06	; 6
    1002:	ff 2e       	mov	r15, r31
    1004:	f0 2d       	mov	r31, r0
		SCL_POORT.OUTSET = SCL;
	}
	SDA_POORT.OUTSET = SDA;

	for(i = 0; i < 8; i++) {
		SCL_POORT.OUTCLR = SCL;
    1006:	5e 83       	std	Y+6, r21	; 0x06
		SCL_POORT.OUTSET = SCL;
    1008:	5d 83       	std	Y+5, r21	; 0x05
		
		if(SDO_G_POORT.IN & SDO_G)bitG = 1;
    100a:	d6 01       	movw	r26, r12
    100c:	18 96       	adiw	r26, 0x08	; 8
    100e:	8c 91       	ld	r24, X
		else bitG = 0;
		byteGyroG = ((byteGyroG&0x7F)<<1)|bitG;
    1010:	ee 0f       	add	r30, r30
    1012:	ff 1f       	adc	r31, r31
    1014:	ff 27       	eor	r31, r31
    1016:	80 fb       	bst	r24, 0
    1018:	44 24       	eor	r4, r4
    101a:	40 f8       	bld	r4, 0
    101c:	51 2c       	mov	r5, r1
    101e:	e4 29       	or	r30, r4
    1020:	f5 29       	or	r31, r5

		if(SDO_XM_POORT.IN & SDO_XM)bitXM = 1;
    1022:	d7 01       	movw	r26, r14
    1024:	18 96       	adiw	r26, 0x08	; 8
    1026:	ac 90       	ld	r10, X
		else bitXM = 0;
		byteGyroXM = ((byteGyroXM&0x7F)<<1)|bitXM;
    1028:	49 01       	movw	r8, r18
    102a:	88 0c       	add	r8, r8
    102c:	99 1c       	adc	r9, r9
    102e:	99 24       	eor	r9, r9
    1030:	2a 2d       	mov	r18, r10
    1032:	aa 0c       	add	r10, r10
    1034:	33 0b       	sbc	r19, r19
    1036:	59 01       	movw	r10, r18
    1038:	aa 24       	eor	r10, r10
    103a:	bb 0c       	add	r11, r11
    103c:	aa 1c       	adc	r10, r10
    103e:	bb 24       	eor	r11, r11
    1040:	95 01       	movw	r18, r10
    1042:	28 29       	or	r18, r8
    1044:	39 29       	or	r19, r9
    1046:	91 50       	subi	r25, 0x01	; 1
		SCL_POORT.OUTCLR = SCL;
		SCL_POORT.OUTSET = SCL;
	}
	SDA_POORT.OUTSET = SDA;

	for(i = 0; i < 8; i++) {
    1048:	f1 f6       	brne	.-68     	; 0x1006 <S9DOFRead+0xa8>
		if(SDO_XM_POORT.IN & SDO_XM)bitXM = 1;
		else bitXM = 0;
		byteGyroXM = ((byteGyroXM&0x7F)<<1)|bitXM;
	}

	if(bytes>1) {
    104a:	b1 e0       	ldi	r27, 0x01	; 1
    104c:	b7 15       	cp	r27, r7
    104e:	d8 f5       	brcc	.+118    	; 0x10c6 <S9DOFRead+0x168>
    1050:	80 e0       	ldi	r24, 0x00	; 0
    1052:	90 e0       	ldi	r25, 0x00	; 0
    1054:	c0 e0       	ldi	r28, 0x00	; 0
    1056:	d0 e0       	ldi	r29, 0x00	; 0
		for(int count = 0; count < 8; count++) {
			SCL_POORT.OUTCLR = SCL;
    1058:	0f 2e       	mov	r0, r31
    105a:	f0 e6       	ldi	r31, 0x60	; 96
    105c:	ef 2e       	mov	r14, r31
    105e:	f6 e0       	ldi	r31, 0x06	; 6
    1060:	ff 2e       	mov	r15, r31
    1062:	f0 2d       	mov	r31, r0
    1064:	51 e0       	ldi	r21, 0x01	; 1

			if(SDO_G_POORT.IN & SDO_G)	bitG = 1;
    1066:	0f 2e       	mov	r0, r31
    1068:	f0 ea       	ldi	r31, 0xA0	; 160
    106a:	af 2e       	mov	r10, r31
    106c:	f6 e0       	ldi	r31, 0x06	; 6
    106e:	bf 2e       	mov	r11, r31
    1070:	f0 2d       	mov	r31, r0
			else bitG = 0;
			byte2GyroG = ((byte2GyroG&0x7F)<<1)|bitG;

			if(SDO_XM_POORT.IN & SDO_XM)
    1072:	0f 2e       	mov	r0, r31
    1074:	f0 e8       	ldi	r31, 0x80	; 128
    1076:	cf 2e       	mov	r12, r31
    1078:	f6 e0       	ldi	r31, 0x06	; 6
    107a:	df 2e       	mov	r13, r31
    107c:	f0 2d       	mov	r31, r0
		byteGyroXM = ((byteGyroXM&0x7F)<<1)|bitXM;
	}

	if(bytes>1) {
		for(int count = 0; count < 8; count++) {
			SCL_POORT.OUTCLR = SCL;
    107e:	d7 01       	movw	r26, r14
    1080:	16 96       	adiw	r26, 0x06	; 6
    1082:	5c 93       	st	X, r21

			if(SDO_G_POORT.IN & SDO_G)	bitG = 1;
    1084:	d5 01       	movw	r26, r10
    1086:	18 96       	adiw	r26, 0x08	; 8
    1088:	9c 90       	ld	r9, X
			else bitG = 0;
			byte2GyroG = ((byte2GyroG&0x7F)<<1)|bitG;
    108a:	cc 0f       	add	r28, r28
    108c:	dd 1f       	adc	r29, r29
    108e:	dd 27       	eor	r29, r29
    1090:	09 2d       	mov	r16, r9
    1092:	01 70       	andi	r16, 0x01	; 1
    1094:	10 e0       	ldi	r17, 0x00	; 0
    1096:	c0 2b       	or	r28, r16
    1098:	d1 2b       	or	r29, r17

			if(SDO_XM_POORT.IN & SDO_XM)
    109a:	d6 01       	movw	r26, r12
    109c:	18 96       	adiw	r26, 0x08	; 8
    109e:	9c 90       	ld	r9, X
				bitXM = 1;
			else 
				bitXM = 0;
			byte2GyroXM = ((byte2GyroXM &0x7F)<<1)|bitXM;
    10a0:	88 0f       	add	r24, r24
    10a2:	99 1f       	adc	r25, r25
    10a4:	99 27       	eor	r25, r25
    10a6:	a9 2d       	mov	r26, r9
    10a8:	99 0c       	add	r9, r9
    10aa:	bb 0b       	sbc	r27, r27
    10ac:	aa 27       	eor	r26, r26
    10ae:	bb 0f       	add	r27, r27
    10b0:	aa 1f       	adc	r26, r26
    10b2:	bb 27       	eor	r27, r27
    10b4:	8a 2b       	or	r24, r26
    10b6:	9b 2b       	or	r25, r27

			SCL_POORT.OUTSET = SCL;
    10b8:	d7 01       	movw	r26, r14
    10ba:	15 96       	adiw	r26, 0x05	; 5
    10bc:	5c 93       	st	X, r21
    10be:	61 50       	subi	r22, 0x01	; 1
    10c0:	71 09       	sbc	r23, r1
		else bitXM = 0;
		byteGyroXM = ((byteGyroXM&0x7F)<<1)|bitXM;
	}

	if(bytes>1) {
		for(int count = 0; count < 8; count++) {
    10c2:	e9 f6       	brne	.-70     	; 0x107e <S9DOFRead+0x120>
    10c4:	04 c0       	rjmp	.+8      	; 0x10ce <S9DOFRead+0x170>
	uint8_t bit, i;
	int8_t bitG = 0;
	int8_t bitXM = 0;
	uint16_t data = 0;
	uint16_t byteGyroG = 0, byte2GyroG =0;
	uint16_t byteGyroXM = 0, byte2GyroXM = 0;
    10c6:	80 e0       	ldi	r24, 0x00	; 0
    10c8:	90 e0       	ldi	r25, 0x00	; 0
uint16_t S9DOFRead(char Address, uint8_t bytes, uint8_t xm_or_g) {
	uint8_t bit, i;
	int8_t bitG = 0;
	int8_t bitXM = 0;
	uint16_t data = 0;
	uint16_t byteGyroG = 0, byte2GyroG =0;
    10ca:	c0 e0       	ldi	r28, 0x00	; 0
    10cc:	d0 e0       	ldi	r29, 0x00	; 0

			SCL_POORT.OUTSET = SCL;
		}
	}

	if (xm_or_g == SELECT_G)
    10ce:	41 30       	cpi	r20, 0x01	; 1
    10d0:	41 f4       	brne	.+16     	; 0x10e2 <S9DOFRead+0x184>
		CS_G_POORT.OUTSET = CS_G;
    10d2:	81 e0       	ldi	r24, 0x01	; 1
    10d4:	80 93 45 06 	sts	0x0645, r24	; 0x800645 <__TEXT_REGION_LENGTH__+0x700645>
	else 
		CS_XM_POORT.OUTSET = CS_XM;

	if (xm_or_g == SELECT_G) 
		data = (((uint16_t) byte2GyroG) << 8) | byteGyroG;
    10d8:	9c 2f       	mov	r25, r28
    10da:	88 27       	eor	r24, r24
    10dc:	8e 2b       	or	r24, r30
    10de:	9f 2b       	or	r25, r31
    10e0:	07 c0       	rjmp	.+14     	; 0x10f0 <S9DOFRead+0x192>
	}

	if (xm_or_g == SELECT_G)
		CS_G_POORT.OUTSET = CS_G;
	else 
		CS_XM_POORT.OUTSET = CS_XM;
    10e2:	40 e8       	ldi	r20, 0x80	; 128
    10e4:	40 93 45 06 	sts	0x0645, r20	; 0x800645 <__TEXT_REGION_LENGTH__+0x700645>

	if (xm_or_g == SELECT_G) 
		data = (((uint16_t) byte2GyroG) << 8) | byteGyroG;
	else 
		data = (((uint16_t) byte2GyroXM) << 8) | byteGyroXM;
    10e8:	98 2f       	mov	r25, r24
    10ea:	88 27       	eor	r24, r24
    10ec:	82 2b       	or	r24, r18
    10ee:	93 2b       	or	r25, r19

	return data;
}
    10f0:	df 91       	pop	r29
    10f2:	cf 91       	pop	r28
    10f4:	1f 91       	pop	r17
    10f6:	0f 91       	pop	r16
    10f8:	ff 90       	pop	r15
    10fa:	ef 90       	pop	r14
    10fc:	df 90       	pop	r13
    10fe:	cf 90       	pop	r12
    1100:	bf 90       	pop	r11
    1102:	af 90       	pop	r10
    1104:	9f 90       	pop	r9
    1106:	8f 90       	pop	r8
    1108:	7f 90       	pop	r7
    110a:	5f 90       	pop	r5
    110c:	4f 90       	pop	r4
    110e:	08 95       	ret

00001110 <GyroGetTemp>:


float GyroGetTemp(void) {
	int16_t data = 0;

	data = (int16_t)S9DOFRead(0xC5,2,SELECT_XM);
    1110:	40 e0       	ldi	r20, 0x00	; 0
    1112:	62 e0       	ldi	r22, 0x02	; 2
    1114:	85 ec       	ldi	r24, 0xC5	; 197
    1116:	0e 94 af 07 	call	0xf5e	; 0xf5e <S9DOFRead>

	return data / 8.0f;
    111a:	bc 01       	movw	r22, r24
    111c:	99 0f       	add	r25, r25
    111e:	88 0b       	sbc	r24, r24
    1120:	99 0b       	sbc	r25, r25
    1122:	0e 94 3e 33 	call	0x667c	; 0x667c <__floatsisf>
    1126:	20 e0       	ldi	r18, 0x00	; 0
    1128:	30 e0       	ldi	r19, 0x00	; 0
    112a:	40 e0       	ldi	r20, 0x00	; 0
    112c:	5e e3       	ldi	r21, 0x3E	; 62
    112e:	0e 94 3c 34 	call	0x6878	; 0x6878 <__mulsf3>
}
    1132:	08 95       	ret

00001134 <GyroGetMagnetic>:


float GyroGetMagnetic(uint8_t X_Y_Z)
{
	int16_t data = 0;
	if (X_Y_Z == GET_X)
    1134:	81 11       	cpse	r24, r1
    1136:	06 c0       	rjmp	.+12     	; 0x1144 <GyroGetMagnetic+0x10>
	{
		data = (int16_t) S9DOFRead(0xC8,2,SELECT_XM);
    1138:	40 e0       	ldi	r20, 0x00	; 0
    113a:	62 e0       	ldi	r22, 0x02	; 2
    113c:	88 ec       	ldi	r24, 0xC8	; 200
    113e:	0e 94 af 07 	call	0xf5e	; 0xf5e <S9DOFRead>
    1142:	12 c0       	rjmp	.+36     	; 0x1168 <GyroGetMagnetic+0x34>
	}
	if (X_Y_Z == GET_Y)
    1144:	81 30       	cpi	r24, 0x01	; 1
    1146:	31 f4       	brne	.+12     	; 0x1154 <GyroGetMagnetic+0x20>
	{
		data = (int16_t) S9DOFRead(0xCA,2,SELECT_XM);
    1148:	40 e0       	ldi	r20, 0x00	; 0
    114a:	62 e0       	ldi	r22, 0x02	; 2
    114c:	8a ec       	ldi	r24, 0xCA	; 202
    114e:	0e 94 af 07 	call	0xf5e	; 0xf5e <S9DOFRead>
    1152:	0a c0       	rjmp	.+20     	; 0x1168 <GyroGetMagnetic+0x34>
	}
	if (X_Y_Z == GET_Z)
    1154:	82 30       	cpi	r24, 0x02	; 2
    1156:	31 f4       	brne	.+12     	; 0x1164 <GyroGetMagnetic+0x30>
	{
		data = (int16_t) S9DOFRead(0xCC,2,SELECT_XM);
    1158:	40 e0       	ldi	r20, 0x00	; 0
    115a:	62 e0       	ldi	r22, 0x02	; 2
    115c:	8c ec       	ldi	r24, 0xCC	; 204
    115e:	0e 94 af 07 	call	0xf5e	; 0xf5e <S9DOFRead>
    1162:	02 c0       	rjmp	.+4      	; 0x1168 <GyroGetMagnetic+0x34>
}


float GyroGetMagnetic(uint8_t X_Y_Z)
{
	int16_t data = 0;
    1164:	80 e0       	ldi	r24, 0x00	; 0
    1166:	90 e0       	ldi	r25, 0x00	; 0

//if(data||0x8000)data = (~data +1)*(-1);

	float return_data = ((float)data / 1000)*LSM9DS0_MAG_MGAUSS_4GAUSS;

	return return_data;
    1168:	bc 01       	movw	r22, r24
    116a:	99 0f       	add	r25, r25
    116c:	88 0b       	sbc	r24, r24
    116e:	99 0b       	sbc	r25, r25
    1170:	0e 94 3e 33 	call	0x667c	; 0x667c <__floatsisf>
    1174:	20 e0       	ldi	r18, 0x00	; 0
    1176:	30 e0       	ldi	r19, 0x00	; 0
    1178:	4a e7       	ldi	r20, 0x7A	; 122
    117a:	54 e4       	ldi	r21, 0x44	; 68
    117c:	0e 94 8e 32 	call	0x651c	; 0x651c <__divsf3>
    1180:	2a e0       	ldi	r18, 0x0A	; 10
    1182:	37 ed       	ldi	r19, 0xD7	; 215
    1184:	43 e2       	ldi	r20, 0x23	; 35
    1186:	5e e3       	ldi	r21, 0x3E	; 62
    1188:	0e 94 3c 34 	call	0x6878	; 0x6878 <__mulsf3>
}
    118c:	08 95       	ret

0000118e <GyroGetAcceleration>:


float GyroGetAcceleration(uint8_t X_Y_Z) {
	int16_t data = 0;
	
	if (X_Y_Z == GET_X)
    118e:	81 11       	cpse	r24, r1
    1190:	06 c0       	rjmp	.+12     	; 0x119e <GyroGetAcceleration+0x10>
	{
		data = (int16_t) S9DOFRead(0xE8,2,SELECT_XM);
    1192:	40 e0       	ldi	r20, 0x00	; 0
    1194:	62 e0       	ldi	r22, 0x02	; 2
    1196:	88 ee       	ldi	r24, 0xE8	; 232
    1198:	0e 94 af 07 	call	0xf5e	; 0xf5e <S9DOFRead>
    119c:	12 c0       	rjmp	.+36     	; 0x11c2 <GyroGetAcceleration+0x34>
	}
	if (X_Y_Z == GET_Y)
    119e:	81 30       	cpi	r24, 0x01	; 1
    11a0:	31 f4       	brne	.+12     	; 0x11ae <GyroGetAcceleration+0x20>
	{
		data = (int16_t) S9DOFRead(0xEA,2,SELECT_XM);
    11a2:	40 e0       	ldi	r20, 0x00	; 0
    11a4:	62 e0       	ldi	r22, 0x02	; 2
    11a6:	8a ee       	ldi	r24, 0xEA	; 234
    11a8:	0e 94 af 07 	call	0xf5e	; 0xf5e <S9DOFRead>
    11ac:	0a c0       	rjmp	.+20     	; 0x11c2 <GyroGetAcceleration+0x34>
	}
	if (X_Y_Z == GET_Z)
    11ae:	82 30       	cpi	r24, 0x02	; 2
    11b0:	31 f4       	brne	.+12     	; 0x11be <GyroGetAcceleration+0x30>
	{
		data = (int16_t) S9DOFRead(0xEC,2,SELECT_XM);
    11b2:	40 e0       	ldi	r20, 0x00	; 0
    11b4:	62 e0       	ldi	r22, 0x02	; 2
    11b6:	8c ee       	ldi	r24, 0xEC	; 236
    11b8:	0e 94 af 07 	call	0xf5e	; 0xf5e <S9DOFRead>
    11bc:	02 c0       	rjmp	.+4      	; 0x11c2 <GyroGetAcceleration+0x34>
	return return_data;
}


float GyroGetAcceleration(uint8_t X_Y_Z) {
	int16_t data = 0;
    11be:	80 e0       	ldi	r24, 0x00	; 0
    11c0:	90 e0       	ldi	r25, 0x00	; 0

	//if(data||0x8000)data = (~data +1)*(-1);

	float return_data = (((float)data / 1000) * SENSORS_GRAVITY_EARTH)*LSM9DS0_ACCEL_MG_LSB_4G; // factor voor

	return return_data;
    11c2:	bc 01       	movw	r22, r24
    11c4:	99 0f       	add	r25, r25
    11c6:	88 0b       	sbc	r24, r24
    11c8:	99 0b       	sbc	r25, r25
    11ca:	0e 94 3e 33 	call	0x667c	; 0x667c <__floatsisf>
    11ce:	20 e0       	ldi	r18, 0x00	; 0
    11d0:	30 e0       	ldi	r19, 0x00	; 0
    11d2:	4a e7       	ldi	r20, 0x7A	; 122
    11d4:	54 e4       	ldi	r21, 0x44	; 68
    11d6:	0e 94 8e 32 	call	0x651c	; 0x651c <__divsf3>
    11da:	23 ec       	ldi	r18, 0xC3	; 195
    11dc:	35 ef       	ldi	r19, 0xF5	; 245
    11de:	4c e1       	ldi	r20, 0x1C	; 28
    11e0:	51 e4       	ldi	r21, 0x41	; 65
    11e2:	0e 94 3c 34 	call	0x6878	; 0x6878 <__mulsf3>
    11e6:	23 e2       	ldi	r18, 0x23	; 35
    11e8:	3b ed       	ldi	r19, 0xDB	; 219
    11ea:	49 ef       	ldi	r20, 0xF9	; 249
    11ec:	5d e3       	ldi	r21, 0x3D	; 61
    11ee:	0e 94 3c 34 	call	0x6878	; 0x6878 <__mulsf3>
}
    11f2:	08 95       	ret

000011f4 <GyroGetGyro>:


float GyroGetGyro(uint8_t X_Y_Z) {
	int16_t data = 0;

	if (X_Y_Z == GET_X)
    11f4:	81 11       	cpse	r24, r1
    11f6:	06 c0       	rjmp	.+12     	; 0x1204 <GyroGetGyro+0x10>
	{
		data = (int16_t) S9DOFRead(0x68,2,SELECT_G);
    11f8:	41 e0       	ldi	r20, 0x01	; 1
    11fa:	62 e0       	ldi	r22, 0x02	; 2
    11fc:	88 e6       	ldi	r24, 0x68	; 104
    11fe:	0e 94 af 07 	call	0xf5e	; 0xf5e <S9DOFRead>
    1202:	12 c0       	rjmp	.+36     	; 0x1228 <GyroGetGyro+0x34>
	}
	if (X_Y_Z == GET_Y)
    1204:	81 30       	cpi	r24, 0x01	; 1
    1206:	31 f4       	brne	.+12     	; 0x1214 <GyroGetGyro+0x20>
	{
		data = (int16_t) S9DOFRead(0x6A,2,SELECT_G);
    1208:	41 e0       	ldi	r20, 0x01	; 1
    120a:	62 e0       	ldi	r22, 0x02	; 2
    120c:	8a e6       	ldi	r24, 0x6A	; 106
    120e:	0e 94 af 07 	call	0xf5e	; 0xf5e <S9DOFRead>
    1212:	0a c0       	rjmp	.+20     	; 0x1228 <GyroGetGyro+0x34>
	}
	if (X_Y_Z == GET_Z)
    1214:	82 30       	cpi	r24, 0x02	; 2
    1216:	31 f4       	brne	.+12     	; 0x1224 <GyroGetGyro+0x30>
	{
		data = (int16_t) S9DOFRead(0x6C,2,SELECT_G);
    1218:	41 e0       	ldi	r20, 0x01	; 1
    121a:	62 e0       	ldi	r22, 0x02	; 2
    121c:	8c e6       	ldi	r24, 0x6C	; 108
    121e:	0e 94 af 07 	call	0xf5e	; 0xf5e <S9DOFRead>
    1222:	02 c0       	rjmp	.+4      	; 0x1228 <GyroGetGyro+0x34>
	return return_data;
}


float GyroGetGyro(uint8_t X_Y_Z) {
	int16_t data = 0;
    1224:	80 e0       	ldi	r24, 0x00	; 0
    1226:	90 e0       	ldi	r25, 0x00	; 0

//if(data||0x8000)data = (~data +1)*(-1);

	float return_data = ((float)data)*LSM9DS0_GYRO_DPS_DIGIT_245DPS;

	return return_data;
    1228:	bc 01       	movw	r22, r24
    122a:	99 0f       	add	r25, r25
    122c:	88 0b       	sbc	r24, r24
    122e:	99 0b       	sbc	r25, r25
    1230:	0e 94 3e 33 	call	0x667c	; 0x667c <__floatsisf>
    1234:	29 e2       	ldi	r18, 0x29	; 41
    1236:	3c e5       	ldi	r19, 0x5C	; 92
    1238:	4f e0       	ldi	r20, 0x0F	; 15
    123a:	5c e3       	ldi	r21, 0x3C	; 60
    123c:	0e 94 3c 34 	call	0x6878	; 0x6878 <__mulsf3>
}
    1240:	08 95       	ret

00001242 <PrintCSV_9DOF>:
void Process9DOF(void) {
	
} /* Process9DOF */


void PrintCSV_9DOF(FILE *fd) {
    1242:	2f 92       	push	r2
    1244:	3f 92       	push	r3
    1246:	4f 92       	push	r4
    1248:	5f 92       	push	r5
    124a:	6f 92       	push	r6
    124c:	7f 92       	push	r7
    124e:	8f 92       	push	r8
    1250:	9f 92       	push	r9
    1252:	af 92       	push	r10
    1254:	bf 92       	push	r11
    1256:	cf 92       	push	r12
    1258:	df 92       	push	r13
    125a:	ef 92       	push	r14
    125c:	ff 92       	push	r15
    125e:	0f 93       	push	r16
    1260:	1f 93       	push	r17
    1262:	cf 93       	push	r28
    1264:	df 93       	push	r29
    1266:	cd b7       	in	r28, 0x3d	; 61
    1268:	de b7       	in	r29, 0x3e	; 62
    126a:	66 97       	sbiw	r28, 0x16	; 22
    126c:	cd bf       	out	0x3d, r28	; 61
    126e:	de bf       	out	0x3e, r29	; 62
    1270:	8b 8b       	std	Y+19, r24	; 0x13
    1272:	9c 8b       	std	Y+20, r25	; 0x14
		0.0
#else
		GyroGetAcceleration(GET_X), GyroGetAcceleration(GET_Y), GyroGetAcceleration(GET_Z),
		GyroGetMagnetic(GET_X), GyroGetMagnetic(GET_Y), GyroGetMagnetic(GET_Z),
		GyroGetGyro(GET_X), GyroGetGyro(GET_Y), GyroGetGyro(GET_Z),
		GyroGetTemp()
    1274:	0e 94 88 08 	call	0x1110	; 0x1110 <GyroGetTemp>
    1278:	56 2e       	mov	r5, r22
    127a:	47 2e       	mov	r4, r23
    127c:	38 2e       	mov	r3, r24
    127e:	29 2e       	mov	r2, r25
		0.0,0.0,0.0,
		0.0
#else
		GyroGetAcceleration(GET_X), GyroGetAcceleration(GET_Y), GyroGetAcceleration(GET_Z),
		GyroGetMagnetic(GET_X), GyroGetMagnetic(GET_Y), GyroGetMagnetic(GET_Z),
		GyroGetGyro(GET_X), GyroGetGyro(GET_Y), GyroGetGyro(GET_Z),
    1280:	82 e0       	ldi	r24, 0x02	; 2
    1282:	0e 94 fa 08 	call	0x11f4	; 0x11f4 <GyroGetGyro>
    1286:	96 2e       	mov	r9, r22
    1288:	87 2e       	mov	r8, r23
    128a:	78 2e       	mov	r7, r24
    128c:	69 2e       	mov	r6, r25
    128e:	81 e0       	ldi	r24, 0x01	; 1
    1290:	0e 94 fa 08 	call	0x11f4	; 0x11f4 <GyroGetGyro>
    1294:	69 83       	std	Y+1, r22	; 0x01
    1296:	7a 83       	std	Y+2, r23	; 0x02
    1298:	b8 2e       	mov	r11, r24
    129a:	a9 2e       	mov	r10, r25
    129c:	80 e0       	ldi	r24, 0x00	; 0
    129e:	0e 94 fa 08 	call	0x11f4	; 0x11f4 <GyroGetGyro>
    12a2:	6b 83       	std	Y+3, r22	; 0x03
    12a4:	7c 83       	std	Y+4, r23	; 0x04
    12a6:	8d 83       	std	Y+5, r24	; 0x05
    12a8:	9e 83       	std	Y+6, r25	; 0x06
		0.0,0.0,0.0,
		0.0,0.0,0.0,
		0.0
#else
		GyroGetAcceleration(GET_X), GyroGetAcceleration(GET_Y), GyroGetAcceleration(GET_Z),
		GyroGetMagnetic(GET_X), GyroGetMagnetic(GET_Y), GyroGetMagnetic(GET_Z),
    12aa:	82 e0       	ldi	r24, 0x02	; 2
    12ac:	0e 94 9a 08 	call	0x1134	; 0x1134 <GyroGetMagnetic>
    12b0:	6f 83       	std	Y+7, r22	; 0x07
    12b2:	78 87       	std	Y+8, r23	; 0x08
    12b4:	89 87       	std	Y+9, r24	; 0x09
    12b6:	9a 87       	std	Y+10, r25	; 0x0a
    12b8:	81 e0       	ldi	r24, 0x01	; 1
    12ba:	0e 94 9a 08 	call	0x1134	; 0x1134 <GyroGetMagnetic>
    12be:	6b 87       	std	Y+11, r22	; 0x0b
    12c0:	7c 87       	std	Y+12, r23	; 0x0c
    12c2:	8d 87       	std	Y+13, r24	; 0x0d
    12c4:	9e 87       	std	Y+14, r25	; 0x0e
    12c6:	80 e0       	ldi	r24, 0x00	; 0
    12c8:	0e 94 9a 08 	call	0x1134	; 0x1134 <GyroGetMagnetic>
    12cc:	6f 87       	std	Y+15, r22	; 0x0f
    12ce:	78 8b       	std	Y+16, r23	; 0x10
    12d0:	89 8b       	std	Y+17, r24	; 0x11
    12d2:	9a 8b       	std	Y+18, r25	; 0x12
		0.0,0.0,0.0,
		0.0,0.0,0.0,
		0.0,0.0,0.0,
		0.0
#else
		GyroGetAcceleration(GET_X), GyroGetAcceleration(GET_Y), GyroGetAcceleration(GET_Z),
    12d4:	82 e0       	ldi	r24, 0x02	; 2
    12d6:	0e 94 c7 08 	call	0x118e	; 0x118e <GyroGetAcceleration>
    12da:	f6 2e       	mov	r15, r22
    12dc:	e7 2e       	mov	r14, r23
    12de:	d8 2e       	mov	r13, r24
    12e0:	c9 2e       	mov	r12, r25
    12e2:	81 e0       	ldi	r24, 0x01	; 1
    12e4:	0e 94 c7 08 	call	0x118e	; 0x118e <GyroGetAcceleration>
    12e8:	6d 8b       	std	Y+21, r22	; 0x15
    12ea:	7e 8b       	std	Y+22, r23	; 0x16
    12ec:	18 2f       	mov	r17, r24
    12ee:	09 2f       	mov	r16, r25
    12f0:	80 e0       	ldi	r24, 0x00	; 0
    12f2:	0e 94 c7 08 	call	0x118e	; 0x118e <GyroGetAcceleration>


void PrintCSV_9DOF(FILE *fd) {
	
	// Dummy print for now. Format will be: Accel[XYZ],Magneto[XYZ],Gyro[XYZ],Temp
	fprintf(fd, "%.3f,%.3f,%.3f,%.1f,%.1f,%.1f,%.1f,%.1f,%.1f,%.1f,",
    12f6:	2f 92       	push	r2
    12f8:	3f 92       	push	r3
    12fa:	4f 92       	push	r4
    12fc:	5f 92       	push	r5
    12fe:	6f 92       	push	r6
    1300:	7f 92       	push	r7
    1302:	8f 92       	push	r8
    1304:	9f 92       	push	r9
    1306:	af 92       	push	r10
    1308:	bf 92       	push	r11
    130a:	2a 81       	ldd	r18, Y+2	; 0x02
    130c:	2f 93       	push	r18
    130e:	29 81       	ldd	r18, Y+1	; 0x01
    1310:	2f 93       	push	r18
    1312:	2e 81       	ldd	r18, Y+6	; 0x06
    1314:	2f 93       	push	r18
    1316:	2d 81       	ldd	r18, Y+5	; 0x05
    1318:	2f 93       	push	r18
    131a:	2c 81       	ldd	r18, Y+4	; 0x04
    131c:	2f 93       	push	r18
    131e:	2b 81       	ldd	r18, Y+3	; 0x03
    1320:	2f 93       	push	r18
    1322:	2a 85       	ldd	r18, Y+10	; 0x0a
    1324:	2f 93       	push	r18
    1326:	29 85       	ldd	r18, Y+9	; 0x09
    1328:	2f 93       	push	r18
    132a:	28 85       	ldd	r18, Y+8	; 0x08
    132c:	2f 93       	push	r18
    132e:	2f 81       	ldd	r18, Y+7	; 0x07
    1330:	2f 93       	push	r18
    1332:	2e 85       	ldd	r18, Y+14	; 0x0e
    1334:	2f 93       	push	r18
    1336:	2d 85       	ldd	r18, Y+13	; 0x0d
    1338:	2f 93       	push	r18
    133a:	2c 85       	ldd	r18, Y+12	; 0x0c
    133c:	2f 93       	push	r18
    133e:	2b 85       	ldd	r18, Y+11	; 0x0b
    1340:	2f 93       	push	r18
    1342:	2a 89       	ldd	r18, Y+18	; 0x12
    1344:	2f 93       	push	r18
    1346:	29 89       	ldd	r18, Y+17	; 0x11
    1348:	2f 93       	push	r18
    134a:	28 89       	ldd	r18, Y+16	; 0x10
    134c:	2f 93       	push	r18
    134e:	2f 85       	ldd	r18, Y+15	; 0x0f
    1350:	2f 93       	push	r18
    1352:	cf 92       	push	r12
    1354:	df 92       	push	r13
    1356:	ef 92       	push	r14
    1358:	ff 92       	push	r15
    135a:	0f 93       	push	r16
    135c:	1f 93       	push	r17
    135e:	2e 89       	ldd	r18, Y+22	; 0x16
    1360:	2f 93       	push	r18
    1362:	2d 89       	ldd	r18, Y+21	; 0x15
    1364:	2f 93       	push	r18
    1366:	9f 93       	push	r25
    1368:	8f 93       	push	r24
    136a:	7f 93       	push	r23
    136c:	6f 93       	push	r22
    136e:	86 ec       	ldi	r24, 0xC6	; 198
    1370:	91 e2       	ldi	r25, 0x21	; 33
    1372:	9f 93       	push	r25
    1374:	8f 93       	push	r24
    1376:	8c 89       	ldd	r24, Y+20	; 0x14
    1378:	8f 93       	push	r24
    137a:	9b 89       	ldd	r25, Y+19	; 0x13
    137c:	9f 93       	push	r25
    137e:	0e 94 1a 3d 	call	0x7a34	; 0x7a34 <fprintf>
		GyroGetGyro(GET_X), GyroGetGyro(GET_Y), GyroGetGyro(GET_Z),
		GyroGetTemp()
#endif
		);
	
} /* PrintCSV_9DOF */
    1382:	cd bf       	out	0x3d, r28	; 61
    1384:	de bf       	out	0x3e, r29	; 62
    1386:	66 96       	adiw	r28, 0x16	; 22
    1388:	cd bf       	out	0x3d, r28	; 61
    138a:	de bf       	out	0x3e, r29	; 62
    138c:	df 91       	pop	r29
    138e:	cf 91       	pop	r28
    1390:	1f 91       	pop	r17
    1392:	0f 91       	pop	r16
    1394:	ff 90       	pop	r15
    1396:	ef 90       	pop	r14
    1398:	df 90       	pop	r13
    139a:	cf 90       	pop	r12
    139c:	bf 90       	pop	r11
    139e:	af 90       	pop	r10
    13a0:	9f 90       	pop	r9
    13a2:	8f 90       	pop	r8
    13a4:	7f 90       	pop	r7
    13a6:	6f 90       	pop	r6
    13a8:	5f 90       	pop	r5
    13aa:	4f 90       	pop	r4
    13ac:	3f 90       	pop	r3
    13ae:	2f 90       	pop	r2
    13b0:	08 95       	ret

000013b2 <CoreAnalogTakeSnapshot485>:

uint8_t IsSnapshotDone(void) {
	
	return !sTakeSnapshot;
	
} /* IsSnapshotCoreAnalogDone */
    13b2:	81 e0       	ldi	r24, 0x01	; 1
    13b4:	80 93 e7 28 	sts	0x28E7, r24	; 0x8028e7 <sTakeSnapshot485>
    13b8:	80 e0       	ldi	r24, 0x00	; 0
    13ba:	90 e0       	ldi	r25, 0x00	; 0
    13bc:	08 95       	ret

000013be <GetCruiseControlButtonStatus>:
    13be:	ff 92       	push	r15
    13c0:	0f 93       	push	r16
    13c2:	1f 93       	push	r17
    13c4:	cf 93       	push	r28
    13c6:	df 93       	push	r29
    13c8:	8b 01       	movw	r16, r22
    13ca:	ea 01       	movw	r28, r20
    13cc:	60 91 55 29 	lds	r22, 0x2955	; 0x802955 <sSensorDataSnapshot485+0x69>
    13d0:	70 91 56 29 	lds	r23, 0x2956	; 0x802956 <sSensorDataSnapshot485+0x6a>
    13d4:	80 91 57 29 	lds	r24, 0x2957	; 0x802957 <sSensorDataSnapshot485+0x6b>
    13d8:	90 91 58 29 	lds	r25, 0x2958	; 0x802958 <sSensorDataSnapshot485+0x6c>
    13dc:	f0 90 4f 29 	lds	r15, 0x294F	; 0x80294f <sSensorDataSnapshot485+0x63>
    13e0:	0e 94 3c 33 	call	0x6678	; 0x6678 <__floatunsisf>
    13e4:	20 e0       	ldi	r18, 0x00	; 0
    13e6:	30 e4       	ldi	r19, 0x40	; 64
    13e8:	4c e9       	ldi	r20, 0x9C	; 156
    13ea:	55 e4       	ldi	r21, 0x45	; 69
    13ec:	0e 94 8e 32 	call	0x651c	; 0x651c <__divsf3>
    13f0:	9f 93       	push	r25
    13f2:	8f 93       	push	r24
    13f4:	7f 93       	push	r23
    13f6:	6f 93       	push	r22
    13f8:	81 e0       	ldi	r24, 0x01	; 1
    13fa:	90 e0       	ldi	r25, 0x00	; 0
    13fc:	f1 10       	cpse	r15, r1
    13fe:	80 e0       	ldi	r24, 0x00	; 0
    1400:	9f 93       	push	r25
    1402:	8f 93       	push	r24
    1404:	89 ef       	ldi	r24, 0xF9	; 249
    1406:	91 e2       	ldi	r25, 0x21	; 33
    1408:	9f 93       	push	r25
    140a:	8f 93       	push	r24
    140c:	df 93       	push	r29
    140e:	cf 93       	push	r28
    1410:	1f 93       	push	r17
    1412:	0f 93       	push	r16
    1414:	0e 94 a8 3d 	call	0x7b50	; 0x7b50 <snprintf>
    1418:	ed b7       	in	r30, 0x3d	; 61
    141a:	fe b7       	in	r31, 0x3e	; 62
    141c:	3c 96       	adiw	r30, 0x0c	; 12
    141e:	ed bf       	out	0x3d, r30	; 61
    1420:	fe bf       	out	0x3e, r31	; 62
    1422:	8c 17       	cp	r24, r28
    1424:	9d 07       	cpc	r25, r29
    1426:	2c f0       	brlt	.+10     	; 0x1432 <GetCruiseControlButtonStatus+0x74>
    1428:	f8 01       	movw	r30, r16
    142a:	10 82       	st	Z, r1
    142c:	81 e0       	ldi	r24, 0x01	; 1
    142e:	90 e0       	ldi	r25, 0x00	; 0
    1430:	02 c0       	rjmp	.+4      	; 0x1436 <GetCruiseControlButtonStatus+0x78>
    1432:	80 e0       	ldi	r24, 0x00	; 0
    1434:	90 e0       	ldi	r25, 0x00	; 0
    1436:	df 91       	pop	r29
    1438:	cf 91       	pop	r28
    143a:	1f 91       	pop	r17
    143c:	0f 91       	pop	r16
    143e:	ff 90       	pop	r15
    1440:	08 95       	ret

00001442 <GetFullPowerButtonStatus>:
    1442:	ff 92       	push	r15
    1444:	0f 93       	push	r16
    1446:	1f 93       	push	r17
    1448:	cf 93       	push	r28
    144a:	df 93       	push	r29
    144c:	8b 01       	movw	r16, r22
    144e:	ea 01       	movw	r28, r20
    1450:	60 91 51 29 	lds	r22, 0x2951	; 0x802951 <sSensorDataSnapshot485+0x65>
    1454:	70 91 52 29 	lds	r23, 0x2952	; 0x802952 <sSensorDataSnapshot485+0x66>
    1458:	80 91 53 29 	lds	r24, 0x2953	; 0x802953 <sSensorDataSnapshot485+0x67>
    145c:	90 91 54 29 	lds	r25, 0x2954	; 0x802954 <sSensorDataSnapshot485+0x68>
    1460:	f0 90 4e 29 	lds	r15, 0x294E	; 0x80294e <sSensorDataSnapshot485+0x62>
    1464:	0e 94 3c 33 	call	0x6678	; 0x6678 <__floatunsisf>
    1468:	20 e0       	ldi	r18, 0x00	; 0
    146a:	30 e4       	ldi	r19, 0x40	; 64
    146c:	4c e9       	ldi	r20, 0x9C	; 156
    146e:	55 e4       	ldi	r21, 0x45	; 69
    1470:	0e 94 8e 32 	call	0x651c	; 0x651c <__divsf3>
    1474:	9f 93       	push	r25
    1476:	8f 93       	push	r24
    1478:	7f 93       	push	r23
    147a:	6f 93       	push	r22
    147c:	81 e0       	ldi	r24, 0x01	; 1
    147e:	90 e0       	ldi	r25, 0x00	; 0
    1480:	f1 10       	cpse	r15, r1
    1482:	80 e0       	ldi	r24, 0x00	; 0
    1484:	9f 93       	push	r25
    1486:	8f 93       	push	r24
    1488:	89 ef       	ldi	r24, 0xF9	; 249
    148a:	91 e2       	ldi	r25, 0x21	; 33
    148c:	9f 93       	push	r25
    148e:	8f 93       	push	r24
    1490:	df 93       	push	r29
    1492:	cf 93       	push	r28
    1494:	1f 93       	push	r17
    1496:	0f 93       	push	r16
    1498:	0e 94 a8 3d 	call	0x7b50	; 0x7b50 <snprintf>
    149c:	ed b7       	in	r30, 0x3d	; 61
    149e:	fe b7       	in	r31, 0x3e	; 62
    14a0:	3c 96       	adiw	r30, 0x0c	; 12
    14a2:	ed bf       	out	0x3d, r30	; 61
    14a4:	fe bf       	out	0x3e, r31	; 62
    14a6:	8c 17       	cp	r24, r28
    14a8:	9d 07       	cpc	r25, r29
    14aa:	2c f0       	brlt	.+10     	; 0x14b6 <GetFullPowerButtonStatus+0x74>
    14ac:	f8 01       	movw	r30, r16
    14ae:	10 82       	st	Z, r1
    14b0:	81 e0       	ldi	r24, 0x01	; 1
    14b2:	90 e0       	ldi	r25, 0x00	; 0
    14b4:	02 c0       	rjmp	.+4      	; 0x14ba <GetFullPowerButtonStatus+0x78>
    14b6:	80 e0       	ldi	r24, 0x00	; 0
    14b8:	90 e0       	ldi	r25, 0x00	; 0
    14ba:	df 91       	pop	r29
    14bc:	cf 91       	pop	r28
    14be:	1f 91       	pop	r17
    14c0:	0f 91       	pop	r16
    14c2:	ff 90       	pop	r15
    14c4:	08 95       	ret

000014c6 <GetMotorDriverTemp>:
    14c6:	0f 93       	push	r16
    14c8:	1f 93       	push	r17
    14ca:	cf 93       	push	r28
    14cc:	df 93       	push	r29
    14ce:	8b 01       	movw	r16, r22
    14d0:	ea 01       	movw	r28, r20
    14d2:	60 91 1a 29 	lds	r22, 0x291A	; 0x80291a <sSensorDataSnapshot485+0x2e>
    14d6:	70 91 1b 29 	lds	r23, 0x291B	; 0x80291b <sSensorDataSnapshot485+0x2f>
    14da:	80 91 1c 29 	lds	r24, 0x291C	; 0x80291c <sSensorDataSnapshot485+0x30>
    14de:	90 91 1d 29 	lds	r25, 0x291D	; 0x80291d <sSensorDataSnapshot485+0x31>
    14e2:	0e 94 3e 33 	call	0x667c	; 0x667c <__floatsisf>
    14e6:	20 e0       	ldi	r18, 0x00	; 0
    14e8:	30 e0       	ldi	r19, 0x00	; 0
    14ea:	40 e2       	ldi	r20, 0x20	; 32
    14ec:	59 e4       	ldi	r21, 0x49	; 73
    14ee:	0e 94 8e 32 	call	0x651c	; 0x651c <__divsf3>
    14f2:	9f 93       	push	r25
    14f4:	8f 93       	push	r24
    14f6:	7f 93       	push	r23
    14f8:	6f 93       	push	r22
    14fa:	81 e0       	ldi	r24, 0x01	; 1
    14fc:	92 e2       	ldi	r25, 0x22	; 34
    14fe:	9f 93       	push	r25
    1500:	8f 93       	push	r24
    1502:	df 93       	push	r29
    1504:	cf 93       	push	r28
    1506:	1f 93       	push	r17
    1508:	0f 93       	push	r16
    150a:	0e 94 a8 3d 	call	0x7b50	; 0x7b50 <snprintf>
    150e:	ed b7       	in	r30, 0x3d	; 61
    1510:	fe b7       	in	r31, 0x3e	; 62
    1512:	3a 96       	adiw	r30, 0x0a	; 10
    1514:	ed bf       	out	0x3d, r30	; 61
    1516:	fe bf       	out	0x3e, r31	; 62
    1518:	8c 17       	cp	r24, r28
    151a:	9d 07       	cpc	r25, r29
    151c:	2c f0       	brlt	.+10     	; 0x1528 <GetMotorDriverTemp+0x62>
    151e:	f8 01       	movw	r30, r16
    1520:	10 82       	st	Z, r1
    1522:	81 e0       	ldi	r24, 0x01	; 1
    1524:	90 e0       	ldi	r25, 0x00	; 0
    1526:	02 c0       	rjmp	.+4      	; 0x152c <GetMotorDriverTemp+0x66>
    1528:	80 e0       	ldi	r24, 0x00	; 0
    152a:	90 e0       	ldi	r25, 0x00	; 0
    152c:	df 91       	pop	r29
    152e:	cf 91       	pop	r28
    1530:	1f 91       	pop	r17
    1532:	0f 91       	pop	r16
    1534:	08 95       	ret

00001536 <GetWheelSpeedH2A>:
    1536:	cf 92       	push	r12
    1538:	df 92       	push	r13
    153a:	ef 92       	push	r14
    153c:	ff 92       	push	r15
    153e:	0f 93       	push	r16
    1540:	1f 93       	push	r17
    1542:	cf 93       	push	r28
    1544:	df 93       	push	r29
    1546:	8b 01       	movw	r16, r22
    1548:	ea 01       	movw	r28, r20
    154a:	60 91 46 29 	lds	r22, 0x2946	; 0x802946 <sSensorDataSnapshot485+0x5a>
    154e:	70 91 47 29 	lds	r23, 0x2947	; 0x802947 <sSensorDataSnapshot485+0x5b>
    1552:	80 91 48 29 	lds	r24, 0x2948	; 0x802948 <sSensorDataSnapshot485+0x5c>
    1556:	90 91 49 29 	lds	r25, 0x2949	; 0x802949 <sSensorDataSnapshot485+0x5d>
    155a:	61 15       	cp	r22, r1
    155c:	71 05       	cpc	r23, r1
    155e:	81 05       	cpc	r24, r1
    1560:	91 05       	cpc	r25, r1
    1562:	09 f1       	breq	.+66     	; 0x15a6 <GetWheelSpeedH2A+0x70>
    1564:	0e 94 3e 33 	call	0x667c	; 0x667c <__floatsisf>
    1568:	20 e0       	ldi	r18, 0x00	; 0
    156a:	30 e0       	ldi	r19, 0x00	; 0
    156c:	40 e8       	ldi	r20, 0x80	; 128
    156e:	57 e3       	ldi	r21, 0x37	; 55
    1570:	0e 94 3c 34 	call	0x6878	; 0x6878 <__mulsf3>
    1574:	9b 01       	movw	r18, r22
    1576:	ac 01       	movw	r20, r24
    1578:	60 e0       	ldi	r22, 0x00	; 0
    157a:	70 e8       	ldi	r23, 0x80	; 128
    157c:	8b e8       	ldi	r24, 0x8B	; 139
    157e:	94 e4       	ldi	r25, 0x44	; 68
    1580:	0e 94 8e 32 	call	0x651c	; 0x651c <__divsf3>
    1584:	f6 2e       	mov	r15, r22
    1586:	e7 2e       	mov	r14, r23
    1588:	d8 2e       	mov	r13, r24
    158a:	c9 2e       	mov	r12, r25
    158c:	20 e0       	ldi	r18, 0x00	; 0
    158e:	30 e0       	ldi	r19, 0x00	; 0
    1590:	40 e8       	ldi	r20, 0x80	; 128
    1592:	5f e3       	ldi	r21, 0x3F	; 63
    1594:	0e 94 89 32 	call	0x6512	; 0x6512 <__cmpsf2>
    1598:	88 23       	and	r24, r24
    159a:	4c f4       	brge	.+18     	; 0x15ae <GetWheelSpeedH2A+0x78>
    159c:	f1 2c       	mov	r15, r1
    159e:	e1 2c       	mov	r14, r1
    15a0:	d1 2c       	mov	r13, r1
    15a2:	c1 2c       	mov	r12, r1
    15a4:	04 c0       	rjmp	.+8      	; 0x15ae <GetWheelSpeedH2A+0x78>
    15a6:	f1 2c       	mov	r15, r1
    15a8:	e1 2c       	mov	r14, r1
    15aa:	d1 2c       	mov	r13, r1
    15ac:	c1 2c       	mov	r12, r1
    15ae:	cf 92       	push	r12
    15b0:	df 92       	push	r13
    15b2:	ef 92       	push	r14
    15b4:	ff 92       	push	r15
    15b6:	81 e0       	ldi	r24, 0x01	; 1
    15b8:	92 e2       	ldi	r25, 0x22	; 34
    15ba:	9f 93       	push	r25
    15bc:	8f 93       	push	r24
    15be:	df 93       	push	r29
    15c0:	cf 93       	push	r28
    15c2:	1f 93       	push	r17
    15c4:	0f 93       	push	r16
    15c6:	0e 94 a8 3d 	call	0x7b50	; 0x7b50 <snprintf>
    15ca:	ed b7       	in	r30, 0x3d	; 61
    15cc:	fe b7       	in	r31, 0x3e	; 62
    15ce:	3a 96       	adiw	r30, 0x0a	; 10
    15d0:	ed bf       	out	0x3d, r30	; 61
    15d2:	fe bf       	out	0x3e, r31	; 62
    15d4:	8c 17       	cp	r24, r28
    15d6:	9d 07       	cpc	r25, r29
    15d8:	2c f0       	brlt	.+10     	; 0x15e4 <GetWheelSpeedH2A+0xae>
    15da:	f8 01       	movw	r30, r16
    15dc:	10 82       	st	Z, r1
    15de:	81 e0       	ldi	r24, 0x01	; 1
    15e0:	90 e0       	ldi	r25, 0x00	; 0
    15e2:	02 c0       	rjmp	.+4      	; 0x15e8 <GetWheelSpeedH2A+0xb2>
    15e4:	80 e0       	ldi	r24, 0x00	; 0
    15e6:	90 e0       	ldi	r25, 0x00	; 0
    15e8:	df 91       	pop	r29
    15ea:	cf 91       	pop	r28
    15ec:	1f 91       	pop	r17
    15ee:	0f 91       	pop	r16
    15f0:	ff 90       	pop	r15
    15f2:	ef 90       	pop	r14
    15f4:	df 90       	pop	r13
    15f6:	cf 90       	pop	r12
    15f8:	08 95       	ret

000015fa <GetDiodeStatus>:
    15fa:	ff 92       	push	r15
    15fc:	0f 93       	push	r16
    15fe:	1f 93       	push	r17
    1600:	cf 93       	push	r28
    1602:	df 93       	push	r29
    1604:	8b 01       	movw	r16, r22
    1606:	ea 01       	movw	r28, r20
    1608:	ec ee       	ldi	r30, 0xEC	; 236
    160a:	f8 e2       	ldi	r31, 0x28	; 40
    160c:	62 a5       	ldd	r22, Z+42	; 0x2a
    160e:	73 a5       	ldd	r23, Z+43	; 0x2b
    1610:	84 a5       	ldd	r24, Z+44	; 0x2c
    1612:	95 a5       	ldd	r25, Z+45	; 0x2d
    1614:	f1 a4       	ldd	r15, Z+41	; 0x29
    1616:	0e 94 3c 33 	call	0x6678	; 0x6678 <__floatunsisf>
    161a:	20 e0       	ldi	r18, 0x00	; 0
    161c:	30 e4       	ldi	r19, 0x40	; 64
    161e:	4c e9       	ldi	r20, 0x9C	; 156
    1620:	55 e4       	ldi	r21, 0x45	; 69
    1622:	0e 94 8e 32 	call	0x651c	; 0x651c <__divsf3>
    1626:	9f 93       	push	r25
    1628:	8f 93       	push	r24
    162a:	7f 93       	push	r23
    162c:	6f 93       	push	r22
    162e:	81 e0       	ldi	r24, 0x01	; 1
    1630:	90 e0       	ldi	r25, 0x00	; 0
    1632:	f1 10       	cpse	r15, r1
    1634:	01 c0       	rjmp	.+2      	; 0x1638 <GetDiodeStatus+0x3e>
    1636:	80 e0       	ldi	r24, 0x00	; 0
    1638:	9f 93       	push	r25
    163a:	8f 93       	push	r24
    163c:	89 ef       	ldi	r24, 0xF9	; 249
    163e:	91 e2       	ldi	r25, 0x21	; 33
    1640:	9f 93       	push	r25
    1642:	8f 93       	push	r24
    1644:	df 93       	push	r29
    1646:	cf 93       	push	r28
    1648:	1f 93       	push	r17
    164a:	0f 93       	push	r16
    164c:	0e 94 a8 3d 	call	0x7b50	; 0x7b50 <snprintf>
    1650:	ed b7       	in	r30, 0x3d	; 61
    1652:	fe b7       	in	r31, 0x3e	; 62
    1654:	3c 96       	adiw	r30, 0x0c	; 12
    1656:	ed bf       	out	0x3d, r30	; 61
    1658:	fe bf       	out	0x3e, r31	; 62
    165a:	8c 17       	cp	r24, r28
    165c:	9d 07       	cpc	r25, r29
    165e:	2c f0       	brlt	.+10     	; 0x166a <GetDiodeStatus+0x70>
    1660:	f8 01       	movw	r30, r16
    1662:	10 82       	st	Z, r1
    1664:	81 e0       	ldi	r24, 0x01	; 1
    1666:	90 e0       	ldi	r25, 0x00	; 0
    1668:	02 c0       	rjmp	.+4      	; 0x166e <GetDiodeStatus+0x74>
    166a:	80 e0       	ldi	r24, 0x00	; 0
    166c:	90 e0       	ldi	r25, 0x00	; 0
    166e:	df 91       	pop	r29
    1670:	cf 91       	pop	r28
    1672:	1f 91       	pop	r17
    1674:	0f 91       	pop	r16
    1676:	ff 90       	pop	r15
    1678:	08 95       	ret

0000167a <GetTimeSnapshot>:
    167a:	0f 93       	push	r16
    167c:	1f 93       	push	r17
    167e:	cf 93       	push	r28
    1680:	df 93       	push	r29
    1682:	8b 01       	movw	r16, r22
    1684:	ea 01       	movw	r28, r20
    1686:	60 91 e8 28 	lds	r22, 0x28E8	; 0x8028e8 <sSessionCycleCountSnapshot485>
    168a:	70 91 e9 28 	lds	r23, 0x28E9	; 0x8028e9 <sSessionCycleCountSnapshot485+0x1>
    168e:	80 91 ea 28 	lds	r24, 0x28EA	; 0x8028ea <sSessionCycleCountSnapshot485+0x2>
    1692:	90 91 eb 28 	lds	r25, 0x28EB	; 0x8028eb <sSessionCycleCountSnapshot485+0x3>
    1696:	0e 94 3c 33 	call	0x6678	; 0x6678 <__floatunsisf>
    169a:	20 e0       	ldi	r18, 0x00	; 0
    169c:	30 e4       	ldi	r19, 0x40	; 64
    169e:	4c e9       	ldi	r20, 0x9C	; 156
    16a0:	55 e4       	ldi	r21, 0x45	; 69
    16a2:	0e 94 8e 32 	call	0x651c	; 0x651c <__divsf3>
    16a6:	9f 93       	push	r25
    16a8:	8f 93       	push	r24
    16aa:	7f 93       	push	r23
    16ac:	6f 93       	push	r22
    16ae:	8c ef       	ldi	r24, 0xFC	; 252
    16b0:	91 e2       	ldi	r25, 0x21	; 33
    16b2:	9f 93       	push	r25
    16b4:	8f 93       	push	r24
    16b6:	df 93       	push	r29
    16b8:	cf 93       	push	r28
    16ba:	1f 93       	push	r17
    16bc:	0f 93       	push	r16
    16be:	0e 94 a8 3d 	call	0x7b50	; 0x7b50 <snprintf>
    16c2:	ed b7       	in	r30, 0x3d	; 61
    16c4:	fe b7       	in	r31, 0x3e	; 62
    16c6:	3a 96       	adiw	r30, 0x0a	; 10
    16c8:	ed bf       	out	0x3d, r30	; 61
    16ca:	fe bf       	out	0x3e, r31	; 62
    16cc:	8c 17       	cp	r24, r28
    16ce:	9d 07       	cpc	r25, r29
    16d0:	2c f0       	brlt	.+10     	; 0x16dc <GetTimeSnapshot+0x62>
    16d2:	f8 01       	movw	r30, r16
    16d4:	10 82       	st	Z, r1
    16d6:	81 e0       	ldi	r24, 0x01	; 1
    16d8:	90 e0       	ldi	r25, 0x00	; 0
    16da:	02 c0       	rjmp	.+4      	; 0x16e0 <GetTimeSnapshot+0x66>
    16dc:	80 e0       	ldi	r24, 0x00	; 0
    16de:	90 e0       	ldi	r25, 0x00	; 0
    16e0:	df 91       	pop	r29
    16e2:	cf 91       	pop	r28
    16e4:	1f 91       	pop	r17
    16e6:	0f 91       	pop	r16
    16e8:	08 95       	ret

000016ea <GetSupercapEnergy>:
    16ea:	4f 92       	push	r4
    16ec:	5f 92       	push	r5
    16ee:	6f 92       	push	r6
    16f0:	7f 92       	push	r7
    16f2:	8f 92       	push	r8
    16f4:	9f 92       	push	r9
    16f6:	af 92       	push	r10
    16f8:	bf 92       	push	r11
    16fa:	cf 92       	push	r12
    16fc:	df 92       	push	r13
    16fe:	ef 92       	push	r14
    1700:	ff 92       	push	r15
    1702:	0f 93       	push	r16
    1704:	1f 93       	push	r17
    1706:	cf 93       	push	r28
    1708:	df 93       	push	r29
    170a:	8b 01       	movw	r16, r22
    170c:	ea 01       	movw	r28, r20
    170e:	ec ee       	ldi	r30, 0xEC	; 236
    1710:	f8 e2       	ldi	r31, 0x28	; 40
    1712:	20 a1       	ldd	r18, Z+32	; 0x20
    1714:	31 a1       	ldd	r19, Z+33	; 0x21
    1716:	42 a1       	ldd	r20, Z+34	; 0x22
    1718:	53 a1       	ldd	r21, Z+35	; 0x23
    171a:	64 a1       	ldd	r22, Z+36	; 0x24
    171c:	75 a1       	ldd	r23, Z+37	; 0x25
    171e:	86 a1       	ldd	r24, Z+38	; 0x26
    1720:	97 a1       	ldd	r25, Z+39	; 0x27
    1722:	e5 ee       	ldi	r30, 0xE5	; 229
    1724:	f9 e2       	ldi	r31, 0x29	; 41
    1726:	40 88       	ldd	r4, Z+16	; 0x10
    1728:	51 88       	ldd	r5, Z+17	; 0x11
    172a:	62 88       	ldd	r6, Z+18	; 0x12
    172c:	73 88       	ldd	r7, Z+19	; 0x13
    172e:	84 88       	ldd	r8, Z+20	; 0x14
    1730:	95 88       	ldd	r9, Z+21	; 0x15
    1732:	a6 88       	ldd	r10, Z+22	; 0x16
    1734:	b7 88       	ldd	r11, Z+23	; 0x17
    1736:	0e 94 36 33 	call	0x666c	; 0x666c <__floatdisf>
    173a:	6b 01       	movw	r12, r22
    173c:	7c 01       	movw	r14, r24
    173e:	20 e0       	ldi	r18, 0x00	; 0
    1740:	30 e4       	ldi	r19, 0x40	; 64
    1742:	4c e9       	ldi	r20, 0x9C	; 156
    1744:	55 e4       	ldi	r21, 0x45	; 69
    1746:	c3 01       	movw	r24, r6
    1748:	b2 01       	movw	r22, r4
    174a:	0e 94 3c 34 	call	0x6878	; 0x6878 <__mulsf3>
    174e:	a5 01       	movw	r20, r10
    1750:	94 01       	movw	r18, r8
    1752:	0e 94 3c 34 	call	0x6878	; 0x6878 <__mulsf3>
    1756:	9b 01       	movw	r18, r22
    1758:	ac 01       	movw	r20, r24
    175a:	c7 01       	movw	r24, r14
    175c:	b6 01       	movw	r22, r12
    175e:	0e 94 8e 32 	call	0x651c	; 0x651c <__divsf3>
    1762:	9f 93       	push	r25
    1764:	8f 93       	push	r24
    1766:	7f 93       	push	r23
    1768:	6f 93       	push	r22
    176a:	81 e0       	ldi	r24, 0x01	; 1
    176c:	92 e2       	ldi	r25, 0x22	; 34
    176e:	9f 93       	push	r25
    1770:	8f 93       	push	r24
    1772:	df 93       	push	r29
    1774:	cf 93       	push	r28
    1776:	1f 93       	push	r17
    1778:	0f 93       	push	r16
    177a:	0e 94 a8 3d 	call	0x7b50	; 0x7b50 <snprintf>
    177e:	ed b7       	in	r30, 0x3d	; 61
    1780:	fe b7       	in	r31, 0x3e	; 62
    1782:	3a 96       	adiw	r30, 0x0a	; 10
    1784:	ed bf       	out	0x3d, r30	; 61
    1786:	fe bf       	out	0x3e, r31	; 62
    1788:	8c 17       	cp	r24, r28
    178a:	9d 07       	cpc	r25, r29
    178c:	2c f0       	brlt	.+10     	; 0x1798 <GetSupercapEnergy+0xae>
    178e:	f8 01       	movw	r30, r16
    1790:	10 82       	st	Z, r1
    1792:	81 e0       	ldi	r24, 0x01	; 1
    1794:	90 e0       	ldi	r25, 0x00	; 0
    1796:	02 c0       	rjmp	.+4      	; 0x179c <GetSupercapEnergy+0xb2>
    1798:	80 e0       	ldi	r24, 0x00	; 0
    179a:	90 e0       	ldi	r25, 0x00	; 0
    179c:	df 91       	pop	r29
    179e:	cf 91       	pop	r28
    17a0:	1f 91       	pop	r17
    17a2:	0f 91       	pop	r16
    17a4:	ff 90       	pop	r15
    17a6:	ef 90       	pop	r14
    17a8:	df 90       	pop	r13
    17aa:	cf 90       	pop	r12
    17ac:	bf 90       	pop	r11
    17ae:	af 90       	pop	r10
    17b0:	9f 90       	pop	r9
    17b2:	8f 90       	pop	r8
    17b4:	7f 90       	pop	r7
    17b6:	6f 90       	pop	r6
    17b8:	5f 90       	pop	r5
    17ba:	4f 90       	pop	r4
    17bc:	08 95       	ret

000017be <GetSupercapPower>:
    17be:	4f 92       	push	r4
    17c0:	5f 92       	push	r5
    17c2:	6f 92       	push	r6
    17c4:	7f 92       	push	r7
    17c6:	8f 92       	push	r8
    17c8:	9f 92       	push	r9
    17ca:	af 92       	push	r10
    17cc:	bf 92       	push	r11
    17ce:	cf 92       	push	r12
    17d0:	df 92       	push	r13
    17d2:	ef 92       	push	r14
    17d4:	ff 92       	push	r15
    17d6:	0f 93       	push	r16
    17d8:	1f 93       	push	r17
    17da:	cf 93       	push	r28
    17dc:	df 93       	push	r29
    17de:	8b 01       	movw	r16, r22
    17e0:	ea 01       	movw	r28, r20
    17e2:	60 91 00 29 	lds	r22, 0x2900	; 0x802900 <sSensorDataSnapshot485+0x14>
    17e6:	70 91 01 29 	lds	r23, 0x2901	; 0x802901 <sSensorDataSnapshot485+0x15>
    17ea:	80 91 02 29 	lds	r24, 0x2902	; 0x802902 <sSensorDataSnapshot485+0x16>
    17ee:	90 91 03 29 	lds	r25, 0x2903	; 0x802903 <sSensorDataSnapshot485+0x17>
    17f2:	e5 ee       	ldi	r30, 0xE5	; 229
    17f4:	f9 e2       	ldi	r31, 0x29	; 41
    17f6:	40 88       	ldd	r4, Z+16	; 0x10
    17f8:	51 88       	ldd	r5, Z+17	; 0x11
    17fa:	62 88       	ldd	r6, Z+18	; 0x12
    17fc:	73 88       	ldd	r7, Z+19	; 0x13
    17fe:	84 88       	ldd	r8, Z+20	; 0x14
    1800:	95 88       	ldd	r9, Z+21	; 0x15
    1802:	a6 88       	ldd	r10, Z+22	; 0x16
    1804:	b7 88       	ldd	r11, Z+23	; 0x17
    1806:	0e 94 3e 33 	call	0x667c	; 0x667c <__floatsisf>
    180a:	6b 01       	movw	r12, r22
    180c:	7c 01       	movw	r14, r24
    180e:	20 e0       	ldi	r18, 0x00	; 0
    1810:	30 e0       	ldi	r19, 0x00	; 0
    1812:	40 e8       	ldi	r20, 0x80	; 128
    1814:	53 e4       	ldi	r21, 0x43	; 67
    1816:	c3 01       	movw	r24, r6
    1818:	b2 01       	movw	r22, r4
    181a:	0e 94 3c 34 	call	0x6878	; 0x6878 <__mulsf3>
    181e:	a5 01       	movw	r20, r10
    1820:	94 01       	movw	r18, r8
    1822:	0e 94 3c 34 	call	0x6878	; 0x6878 <__mulsf3>
    1826:	9b 01       	movw	r18, r22
    1828:	ac 01       	movw	r20, r24
    182a:	c7 01       	movw	r24, r14
    182c:	b6 01       	movw	r22, r12
    182e:	0e 94 8e 32 	call	0x651c	; 0x651c <__divsf3>
    1832:	9f 93       	push	r25
    1834:	8f 93       	push	r24
    1836:	7f 93       	push	r23
    1838:	6f 93       	push	r22
    183a:	81 e0       	ldi	r24, 0x01	; 1
    183c:	92 e2       	ldi	r25, 0x22	; 34
    183e:	9f 93       	push	r25
    1840:	8f 93       	push	r24
    1842:	df 93       	push	r29
    1844:	cf 93       	push	r28
    1846:	1f 93       	push	r17
    1848:	0f 93       	push	r16
    184a:	0e 94 a8 3d 	call	0x7b50	; 0x7b50 <snprintf>
    184e:	ed b7       	in	r30, 0x3d	; 61
    1850:	fe b7       	in	r31, 0x3e	; 62
    1852:	3a 96       	adiw	r30, 0x0a	; 10
    1854:	ed bf       	out	0x3d, r30	; 61
    1856:	fe bf       	out	0x3e, r31	; 62
    1858:	8c 17       	cp	r24, r28
    185a:	9d 07       	cpc	r25, r29
    185c:	2c f0       	brlt	.+10     	; 0x1868 <GetSupercapPower+0xaa>
    185e:	f8 01       	movw	r30, r16
    1860:	10 82       	st	Z, r1
    1862:	81 e0       	ldi	r24, 0x01	; 1
    1864:	90 e0       	ldi	r25, 0x00	; 0
    1866:	02 c0       	rjmp	.+4      	; 0x186c <GetSupercapPower+0xae>
    1868:	80 e0       	ldi	r24, 0x00	; 0
    186a:	90 e0       	ldi	r25, 0x00	; 0
    186c:	df 91       	pop	r29
    186e:	cf 91       	pop	r28
    1870:	1f 91       	pop	r17
    1872:	0f 91       	pop	r16
    1874:	ff 90       	pop	r15
    1876:	ef 90       	pop	r14
    1878:	df 90       	pop	r13
    187a:	cf 90       	pop	r12
    187c:	bf 90       	pop	r11
    187e:	af 90       	pop	r10
    1880:	9f 90       	pop	r9
    1882:	8f 90       	pop	r8
    1884:	7f 90       	pop	r7
    1886:	6f 90       	pop	r6
    1888:	5f 90       	pop	r5
    188a:	4f 90       	pop	r4
    188c:	08 95       	ret

0000188e <GetSupercapCurrent>:
    188e:	8f 92       	push	r8
    1890:	9f 92       	push	r9
    1892:	af 92       	push	r10
    1894:	bf 92       	push	r11
    1896:	cf 92       	push	r12
    1898:	df 92       	push	r13
    189a:	ef 92       	push	r14
    189c:	ff 92       	push	r15
    189e:	0f 93       	push	r16
    18a0:	1f 93       	push	r17
    18a2:	cf 93       	push	r28
    18a4:	df 93       	push	r29
    18a6:	8b 01       	movw	r16, r22
    18a8:	ea 01       	movw	r28, r20
    18aa:	60 91 f8 28 	lds	r22, 0x28F8	; 0x8028f8 <sSensorDataSnapshot485+0xc>
    18ae:	70 91 f9 28 	lds	r23, 0x28F9	; 0x8028f9 <sSensorDataSnapshot485+0xd>
    18b2:	80 91 fa 28 	lds	r24, 0x28FA	; 0x8028fa <sSensorDataSnapshot485+0xe>
    18b6:	90 91 fb 28 	lds	r25, 0x28FB	; 0x8028fb <sSensorDataSnapshot485+0xf>
    18ba:	80 90 f9 29 	lds	r8, 0x29F9	; 0x8029f9 <sCal+0x14>
    18be:	90 90 fa 29 	lds	r9, 0x29FA	; 0x8029fa <sCal+0x15>
    18c2:	a0 90 fb 29 	lds	r10, 0x29FB	; 0x8029fb <sCal+0x16>
    18c6:	b0 90 fc 29 	lds	r11, 0x29FC	; 0x8029fc <sCal+0x17>
    18ca:	0e 94 3e 33 	call	0x667c	; 0x667c <__floatsisf>
    18ce:	6b 01       	movw	r12, r22
    18d0:	7c 01       	movw	r14, r24
    18d2:	20 e0       	ldi	r18, 0x00	; 0
    18d4:	30 e0       	ldi	r19, 0x00	; 0
    18d6:	40 e8       	ldi	r20, 0x80	; 128
    18d8:	57 e4       	ldi	r21, 0x47	; 71
    18da:	c5 01       	movw	r24, r10
    18dc:	b4 01       	movw	r22, r8
    18de:	0e 94 3c 34 	call	0x6878	; 0x6878 <__mulsf3>
    18e2:	9b 01       	movw	r18, r22
    18e4:	ac 01       	movw	r20, r24
    18e6:	c7 01       	movw	r24, r14
    18e8:	b6 01       	movw	r22, r12
    18ea:	0e 94 8e 32 	call	0x651c	; 0x651c <__divsf3>
    18ee:	9f 93       	push	r25
    18f0:	8f 93       	push	r24
    18f2:	7f 93       	push	r23
    18f4:	6f 93       	push	r22
    18f6:	81 e0       	ldi	r24, 0x01	; 1
    18f8:	92 e2       	ldi	r25, 0x22	; 34
    18fa:	9f 93       	push	r25
    18fc:	8f 93       	push	r24
    18fe:	df 93       	push	r29
    1900:	cf 93       	push	r28
    1902:	1f 93       	push	r17
    1904:	0f 93       	push	r16
    1906:	0e 94 a8 3d 	call	0x7b50	; 0x7b50 <snprintf>
    190a:	ed b7       	in	r30, 0x3d	; 61
    190c:	fe b7       	in	r31, 0x3e	; 62
    190e:	3a 96       	adiw	r30, 0x0a	; 10
    1910:	ed bf       	out	0x3d, r30	; 61
    1912:	fe bf       	out	0x3e, r31	; 62
    1914:	8c 17       	cp	r24, r28
    1916:	9d 07       	cpc	r25, r29
    1918:	2c f0       	brlt	.+10     	; 0x1924 <GetSupercapCurrent+0x96>
    191a:	f8 01       	movw	r30, r16
    191c:	10 82       	st	Z, r1
    191e:	81 e0       	ldi	r24, 0x01	; 1
    1920:	90 e0       	ldi	r25, 0x00	; 0
    1922:	02 c0       	rjmp	.+4      	; 0x1928 <GetSupercapCurrent+0x9a>
    1924:	80 e0       	ldi	r24, 0x00	; 0
    1926:	90 e0       	ldi	r25, 0x00	; 0
    1928:	df 91       	pop	r29
    192a:	cf 91       	pop	r28
    192c:	1f 91       	pop	r17
    192e:	0f 91       	pop	r16
    1930:	ff 90       	pop	r15
    1932:	ef 90       	pop	r14
    1934:	df 90       	pop	r13
    1936:	cf 90       	pop	r12
    1938:	bf 90       	pop	r11
    193a:	af 90       	pop	r10
    193c:	9f 90       	pop	r9
    193e:	8f 90       	pop	r8
    1940:	08 95       	ret

00001942 <GetSupercapVoltage>:
    1942:	8f 92       	push	r8
    1944:	9f 92       	push	r9
    1946:	af 92       	push	r10
    1948:	bf 92       	push	r11
    194a:	cf 92       	push	r12
    194c:	df 92       	push	r13
    194e:	ef 92       	push	r14
    1950:	ff 92       	push	r15
    1952:	0f 93       	push	r16
    1954:	1f 93       	push	r17
    1956:	cf 93       	push	r28
    1958:	df 93       	push	r29
    195a:	8b 01       	movw	r16, r22
    195c:	ea 01       	movw	r28, r20
    195e:	60 91 f4 28 	lds	r22, 0x28F4	; 0x8028f4 <sSensorDataSnapshot485+0x8>
    1962:	70 91 f5 28 	lds	r23, 0x28F5	; 0x8028f5 <sSensorDataSnapshot485+0x9>
    1966:	80 91 f6 28 	lds	r24, 0x28F6	; 0x8028f6 <sSensorDataSnapshot485+0xa>
    196a:	90 91 f7 28 	lds	r25, 0x28F7	; 0x8028f7 <sSensorDataSnapshot485+0xb>
    196e:	80 90 f5 29 	lds	r8, 0x29F5	; 0x8029f5 <sCal+0x10>
    1972:	90 90 f6 29 	lds	r9, 0x29F6	; 0x8029f6 <sCal+0x11>
    1976:	a0 90 f7 29 	lds	r10, 0x29F7	; 0x8029f7 <sCal+0x12>
    197a:	b0 90 f8 29 	lds	r11, 0x29F8	; 0x8029f8 <sCal+0x13>
    197e:	0e 94 3e 33 	call	0x667c	; 0x667c <__floatsisf>
    1982:	6b 01       	movw	r12, r22
    1984:	7c 01       	movw	r14, r24
    1986:	20 e0       	ldi	r18, 0x00	; 0
    1988:	30 e0       	ldi	r19, 0x00	; 0
    198a:	40 e8       	ldi	r20, 0x80	; 128
    198c:	57 e4       	ldi	r21, 0x47	; 71
    198e:	c5 01       	movw	r24, r10
    1990:	b4 01       	movw	r22, r8
    1992:	0e 94 3c 34 	call	0x6878	; 0x6878 <__mulsf3>
    1996:	9b 01       	movw	r18, r22
    1998:	ac 01       	movw	r20, r24
    199a:	c7 01       	movw	r24, r14
    199c:	b6 01       	movw	r22, r12
    199e:	0e 94 8e 32 	call	0x651c	; 0x651c <__divsf3>
    19a2:	9f 93       	push	r25
    19a4:	8f 93       	push	r24
    19a6:	7f 93       	push	r23
    19a8:	6f 93       	push	r22
    19aa:	81 e0       	ldi	r24, 0x01	; 1
    19ac:	92 e2       	ldi	r25, 0x22	; 34
    19ae:	9f 93       	push	r25
    19b0:	8f 93       	push	r24
    19b2:	df 93       	push	r29
    19b4:	cf 93       	push	r28
    19b6:	1f 93       	push	r17
    19b8:	0f 93       	push	r16
    19ba:	0e 94 a8 3d 	call	0x7b50	; 0x7b50 <snprintf>
    19be:	ed b7       	in	r30, 0x3d	; 61
    19c0:	fe b7       	in	r31, 0x3e	; 62
    19c2:	3a 96       	adiw	r30, 0x0a	; 10
    19c4:	ed bf       	out	0x3d, r30	; 61
    19c6:	fe bf       	out	0x3e, r31	; 62
    19c8:	8c 17       	cp	r24, r28
    19ca:	9d 07       	cpc	r25, r29
    19cc:	2c f0       	brlt	.+10     	; 0x19d8 <GetSupercapVoltage+0x96>
    19ce:	f8 01       	movw	r30, r16
    19d0:	10 82       	st	Z, r1
    19d2:	81 e0       	ldi	r24, 0x01	; 1
    19d4:	90 e0       	ldi	r25, 0x00	; 0
    19d6:	02 c0       	rjmp	.+4      	; 0x19dc <GetSupercapVoltage+0x9a>
    19d8:	80 e0       	ldi	r24, 0x00	; 0
    19da:	90 e0       	ldi	r25, 0x00	; 0
    19dc:	df 91       	pop	r29
    19de:	cf 91       	pop	r28
    19e0:	1f 91       	pop	r17
    19e2:	0f 91       	pop	r16
    19e4:	ff 90       	pop	r15
    19e6:	ef 90       	pop	r14
    19e8:	df 90       	pop	r13
    19ea:	cf 90       	pop	r12
    19ec:	bf 90       	pop	r11
    19ee:	af 90       	pop	r10
    19f0:	9f 90       	pop	r9
    19f2:	8f 90       	pop	r8
    19f4:	08 95       	ret

000019f6 <GetFuelCellEnergy>:
    19f6:	4f 92       	push	r4
    19f8:	5f 92       	push	r5
    19fa:	6f 92       	push	r6
    19fc:	7f 92       	push	r7
    19fe:	8f 92       	push	r8
    1a00:	9f 92       	push	r9
    1a02:	af 92       	push	r10
    1a04:	bf 92       	push	r11
    1a06:	cf 92       	push	r12
    1a08:	df 92       	push	r13
    1a0a:	ef 92       	push	r14
    1a0c:	ff 92       	push	r15
    1a0e:	0f 93       	push	r16
    1a10:	1f 93       	push	r17
    1a12:	cf 93       	push	r28
    1a14:	df 93       	push	r29
    1a16:	8b 01       	movw	r16, r22
    1a18:	ea 01       	movw	r28, r20
    1a1a:	ec ee       	ldi	r30, 0xEC	; 236
    1a1c:	f8 e2       	ldi	r31, 0x28	; 40
    1a1e:	20 8d       	ldd	r18, Z+24	; 0x18
    1a20:	31 8d       	ldd	r19, Z+25	; 0x19
    1a22:	42 8d       	ldd	r20, Z+26	; 0x1a
    1a24:	53 8d       	ldd	r21, Z+27	; 0x1b
    1a26:	64 8d       	ldd	r22, Z+28	; 0x1c
    1a28:	75 8d       	ldd	r23, Z+29	; 0x1d
    1a2a:	86 8d       	ldd	r24, Z+30	; 0x1e
    1a2c:	97 8d       	ldd	r25, Z+31	; 0x1f
    1a2e:	e5 ee       	ldi	r30, 0xE5	; 229
    1a30:	f9 e2       	ldi	r31, 0x29	; 41
    1a32:	40 84       	ldd	r4, Z+8	; 0x08
    1a34:	51 84       	ldd	r5, Z+9	; 0x09
    1a36:	62 84       	ldd	r6, Z+10	; 0x0a
    1a38:	73 84       	ldd	r7, Z+11	; 0x0b
    1a3a:	84 84       	ldd	r8, Z+12	; 0x0c
    1a3c:	95 84       	ldd	r9, Z+13	; 0x0d
    1a3e:	a6 84       	ldd	r10, Z+14	; 0x0e
    1a40:	b7 84       	ldd	r11, Z+15	; 0x0f
    1a42:	0e 94 36 33 	call	0x666c	; 0x666c <__floatdisf>
    1a46:	6b 01       	movw	r12, r22
    1a48:	7c 01       	movw	r14, r24
    1a4a:	20 e0       	ldi	r18, 0x00	; 0
    1a4c:	30 e4       	ldi	r19, 0x40	; 64
    1a4e:	4c e9       	ldi	r20, 0x9C	; 156
    1a50:	55 e4       	ldi	r21, 0x45	; 69
    1a52:	c3 01       	movw	r24, r6
    1a54:	b2 01       	movw	r22, r4
    1a56:	0e 94 3c 34 	call	0x6878	; 0x6878 <__mulsf3>
    1a5a:	a5 01       	movw	r20, r10
    1a5c:	94 01       	movw	r18, r8
    1a5e:	0e 94 3c 34 	call	0x6878	; 0x6878 <__mulsf3>
    1a62:	9b 01       	movw	r18, r22
    1a64:	ac 01       	movw	r20, r24
    1a66:	c7 01       	movw	r24, r14
    1a68:	b6 01       	movw	r22, r12
    1a6a:	0e 94 8e 32 	call	0x651c	; 0x651c <__divsf3>
    1a6e:	9f 93       	push	r25
    1a70:	8f 93       	push	r24
    1a72:	7f 93       	push	r23
    1a74:	6f 93       	push	r22
    1a76:	81 e0       	ldi	r24, 0x01	; 1
    1a78:	92 e2       	ldi	r25, 0x22	; 34
    1a7a:	9f 93       	push	r25
    1a7c:	8f 93       	push	r24
    1a7e:	df 93       	push	r29
    1a80:	cf 93       	push	r28
    1a82:	1f 93       	push	r17
    1a84:	0f 93       	push	r16
    1a86:	0e 94 a8 3d 	call	0x7b50	; 0x7b50 <snprintf>
    1a8a:	ed b7       	in	r30, 0x3d	; 61
    1a8c:	fe b7       	in	r31, 0x3e	; 62
    1a8e:	3a 96       	adiw	r30, 0x0a	; 10
    1a90:	ed bf       	out	0x3d, r30	; 61
    1a92:	fe bf       	out	0x3e, r31	; 62
    1a94:	8c 17       	cp	r24, r28
    1a96:	9d 07       	cpc	r25, r29
    1a98:	2c f0       	brlt	.+10     	; 0x1aa4 <GetFuelCellEnergy+0xae>
    1a9a:	f8 01       	movw	r30, r16
    1a9c:	10 82       	st	Z, r1
    1a9e:	81 e0       	ldi	r24, 0x01	; 1
    1aa0:	90 e0       	ldi	r25, 0x00	; 0
    1aa2:	02 c0       	rjmp	.+4      	; 0x1aa8 <GetFuelCellEnergy+0xb2>
    1aa4:	80 e0       	ldi	r24, 0x00	; 0
    1aa6:	90 e0       	ldi	r25, 0x00	; 0
    1aa8:	df 91       	pop	r29
    1aaa:	cf 91       	pop	r28
    1aac:	1f 91       	pop	r17
    1aae:	0f 91       	pop	r16
    1ab0:	ff 90       	pop	r15
    1ab2:	ef 90       	pop	r14
    1ab4:	df 90       	pop	r13
    1ab6:	cf 90       	pop	r12
    1ab8:	bf 90       	pop	r11
    1aba:	af 90       	pop	r10
    1abc:	9f 90       	pop	r9
    1abe:	8f 90       	pop	r8
    1ac0:	7f 90       	pop	r7
    1ac2:	6f 90       	pop	r6
    1ac4:	5f 90       	pop	r5
    1ac6:	4f 90       	pop	r4
    1ac8:	08 95       	ret

00001aca <GetFuelCellPower>:
    1aca:	4f 92       	push	r4
    1acc:	5f 92       	push	r5
    1ace:	6f 92       	push	r6
    1ad0:	7f 92       	push	r7
    1ad2:	8f 92       	push	r8
    1ad4:	9f 92       	push	r9
    1ad6:	af 92       	push	r10
    1ad8:	bf 92       	push	r11
    1ada:	cf 92       	push	r12
    1adc:	df 92       	push	r13
    1ade:	ef 92       	push	r14
    1ae0:	ff 92       	push	r15
    1ae2:	0f 93       	push	r16
    1ae4:	1f 93       	push	r17
    1ae6:	cf 93       	push	r28
    1ae8:	df 93       	push	r29
    1aea:	8b 01       	movw	r16, r22
    1aec:	ea 01       	movw	r28, r20
    1aee:	60 91 fc 28 	lds	r22, 0x28FC	; 0x8028fc <sSensorDataSnapshot485+0x10>
    1af2:	70 91 fd 28 	lds	r23, 0x28FD	; 0x8028fd <sSensorDataSnapshot485+0x11>
    1af6:	80 91 fe 28 	lds	r24, 0x28FE	; 0x8028fe <sSensorDataSnapshot485+0x12>
    1afa:	90 91 ff 28 	lds	r25, 0x28FF	; 0x8028ff <sSensorDataSnapshot485+0x13>
    1afe:	e5 ee       	ldi	r30, 0xE5	; 229
    1b00:	f9 e2       	ldi	r31, 0x29	; 41
    1b02:	40 84       	ldd	r4, Z+8	; 0x08
    1b04:	51 84       	ldd	r5, Z+9	; 0x09
    1b06:	62 84       	ldd	r6, Z+10	; 0x0a
    1b08:	73 84       	ldd	r7, Z+11	; 0x0b
    1b0a:	84 84       	ldd	r8, Z+12	; 0x0c
    1b0c:	95 84       	ldd	r9, Z+13	; 0x0d
    1b0e:	a6 84       	ldd	r10, Z+14	; 0x0e
    1b10:	b7 84       	ldd	r11, Z+15	; 0x0f
    1b12:	0e 94 3e 33 	call	0x667c	; 0x667c <__floatsisf>
    1b16:	6b 01       	movw	r12, r22
    1b18:	7c 01       	movw	r14, r24
    1b1a:	20 e0       	ldi	r18, 0x00	; 0
    1b1c:	30 e0       	ldi	r19, 0x00	; 0
    1b1e:	40 e8       	ldi	r20, 0x80	; 128
    1b20:	53 e4       	ldi	r21, 0x43	; 67
    1b22:	c3 01       	movw	r24, r6
    1b24:	b2 01       	movw	r22, r4
    1b26:	0e 94 3c 34 	call	0x6878	; 0x6878 <__mulsf3>
    1b2a:	a5 01       	movw	r20, r10
    1b2c:	94 01       	movw	r18, r8
    1b2e:	0e 94 3c 34 	call	0x6878	; 0x6878 <__mulsf3>
    1b32:	9b 01       	movw	r18, r22
    1b34:	ac 01       	movw	r20, r24
    1b36:	c7 01       	movw	r24, r14
    1b38:	b6 01       	movw	r22, r12
    1b3a:	0e 94 8e 32 	call	0x651c	; 0x651c <__divsf3>
    1b3e:	9f 93       	push	r25
    1b40:	8f 93       	push	r24
    1b42:	7f 93       	push	r23
    1b44:	6f 93       	push	r22
    1b46:	81 e0       	ldi	r24, 0x01	; 1
    1b48:	92 e2       	ldi	r25, 0x22	; 34
    1b4a:	9f 93       	push	r25
    1b4c:	8f 93       	push	r24
    1b4e:	df 93       	push	r29
    1b50:	cf 93       	push	r28
    1b52:	1f 93       	push	r17
    1b54:	0f 93       	push	r16
    1b56:	0e 94 a8 3d 	call	0x7b50	; 0x7b50 <snprintf>
    1b5a:	ed b7       	in	r30, 0x3d	; 61
    1b5c:	fe b7       	in	r31, 0x3e	; 62
    1b5e:	3a 96       	adiw	r30, 0x0a	; 10
    1b60:	ed bf       	out	0x3d, r30	; 61
    1b62:	fe bf       	out	0x3e, r31	; 62
    1b64:	8c 17       	cp	r24, r28
    1b66:	9d 07       	cpc	r25, r29
    1b68:	2c f0       	brlt	.+10     	; 0x1b74 <GetFuelCellPower+0xaa>
    1b6a:	f8 01       	movw	r30, r16
    1b6c:	10 82       	st	Z, r1
    1b6e:	81 e0       	ldi	r24, 0x01	; 1
    1b70:	90 e0       	ldi	r25, 0x00	; 0
    1b72:	02 c0       	rjmp	.+4      	; 0x1b78 <GetFuelCellPower+0xae>
    1b74:	80 e0       	ldi	r24, 0x00	; 0
    1b76:	90 e0       	ldi	r25, 0x00	; 0
    1b78:	df 91       	pop	r29
    1b7a:	cf 91       	pop	r28
    1b7c:	1f 91       	pop	r17
    1b7e:	0f 91       	pop	r16
    1b80:	ff 90       	pop	r15
    1b82:	ef 90       	pop	r14
    1b84:	df 90       	pop	r13
    1b86:	cf 90       	pop	r12
    1b88:	bf 90       	pop	r11
    1b8a:	af 90       	pop	r10
    1b8c:	9f 90       	pop	r9
    1b8e:	8f 90       	pop	r8
    1b90:	7f 90       	pop	r7
    1b92:	6f 90       	pop	r6
    1b94:	5f 90       	pop	r5
    1b96:	4f 90       	pop	r4
    1b98:	08 95       	ret

00001b9a <GetFuelCellCurrent>:
    1b9a:	8f 92       	push	r8
    1b9c:	9f 92       	push	r9
    1b9e:	af 92       	push	r10
    1ba0:	bf 92       	push	r11
    1ba2:	cf 92       	push	r12
    1ba4:	df 92       	push	r13
    1ba6:	ef 92       	push	r14
    1ba8:	ff 92       	push	r15
    1baa:	0f 93       	push	r16
    1bac:	1f 93       	push	r17
    1bae:	cf 93       	push	r28
    1bb0:	df 93       	push	r29
    1bb2:	8b 01       	movw	r16, r22
    1bb4:	ea 01       	movw	r28, r20
    1bb6:	60 91 f0 28 	lds	r22, 0x28F0	; 0x8028f0 <sSensorDataSnapshot485+0x4>
    1bba:	70 91 f1 28 	lds	r23, 0x28F1	; 0x8028f1 <sSensorDataSnapshot485+0x5>
    1bbe:	80 91 f2 28 	lds	r24, 0x28F2	; 0x8028f2 <sSensorDataSnapshot485+0x6>
    1bc2:	90 91 f3 28 	lds	r25, 0x28F3	; 0x8028f3 <sSensorDataSnapshot485+0x7>
    1bc6:	80 90 f1 29 	lds	r8, 0x29F1	; 0x8029f1 <sCal+0xc>
    1bca:	90 90 f2 29 	lds	r9, 0x29F2	; 0x8029f2 <sCal+0xd>
    1bce:	a0 90 f3 29 	lds	r10, 0x29F3	; 0x8029f3 <sCal+0xe>
    1bd2:	b0 90 f4 29 	lds	r11, 0x29F4	; 0x8029f4 <sCal+0xf>
    1bd6:	0e 94 3e 33 	call	0x667c	; 0x667c <__floatsisf>
    1bda:	6b 01       	movw	r12, r22
    1bdc:	7c 01       	movw	r14, r24
    1bde:	20 e0       	ldi	r18, 0x00	; 0
    1be0:	30 e0       	ldi	r19, 0x00	; 0
    1be2:	40 e8       	ldi	r20, 0x80	; 128
    1be4:	57 e4       	ldi	r21, 0x47	; 71
    1be6:	c5 01       	movw	r24, r10
    1be8:	b4 01       	movw	r22, r8
    1bea:	0e 94 3c 34 	call	0x6878	; 0x6878 <__mulsf3>
    1bee:	9b 01       	movw	r18, r22
    1bf0:	ac 01       	movw	r20, r24
    1bf2:	c7 01       	movw	r24, r14
    1bf4:	b6 01       	movw	r22, r12
    1bf6:	0e 94 8e 32 	call	0x651c	; 0x651c <__divsf3>
    1bfa:	9f 93       	push	r25
    1bfc:	8f 93       	push	r24
    1bfe:	7f 93       	push	r23
    1c00:	6f 93       	push	r22
    1c02:	81 e0       	ldi	r24, 0x01	; 1
    1c04:	92 e2       	ldi	r25, 0x22	; 34
    1c06:	9f 93       	push	r25
    1c08:	8f 93       	push	r24
    1c0a:	df 93       	push	r29
    1c0c:	cf 93       	push	r28
    1c0e:	1f 93       	push	r17
    1c10:	0f 93       	push	r16
    1c12:	0e 94 a8 3d 	call	0x7b50	; 0x7b50 <snprintf>
    1c16:	ed b7       	in	r30, 0x3d	; 61
    1c18:	fe b7       	in	r31, 0x3e	; 62
    1c1a:	3a 96       	adiw	r30, 0x0a	; 10
    1c1c:	ed bf       	out	0x3d, r30	; 61
    1c1e:	fe bf       	out	0x3e, r31	; 62
    1c20:	8c 17       	cp	r24, r28
    1c22:	9d 07       	cpc	r25, r29
    1c24:	2c f0       	brlt	.+10     	; 0x1c30 <GetFuelCellCurrent+0x96>
    1c26:	f8 01       	movw	r30, r16
    1c28:	10 82       	st	Z, r1
    1c2a:	81 e0       	ldi	r24, 0x01	; 1
    1c2c:	90 e0       	ldi	r25, 0x00	; 0
    1c2e:	02 c0       	rjmp	.+4      	; 0x1c34 <GetFuelCellCurrent+0x9a>
    1c30:	80 e0       	ldi	r24, 0x00	; 0
    1c32:	90 e0       	ldi	r25, 0x00	; 0
    1c34:	df 91       	pop	r29
    1c36:	cf 91       	pop	r28
    1c38:	1f 91       	pop	r17
    1c3a:	0f 91       	pop	r16
    1c3c:	ff 90       	pop	r15
    1c3e:	ef 90       	pop	r14
    1c40:	df 90       	pop	r13
    1c42:	cf 90       	pop	r12
    1c44:	bf 90       	pop	r11
    1c46:	af 90       	pop	r10
    1c48:	9f 90       	pop	r9
    1c4a:	8f 90       	pop	r8
    1c4c:	08 95       	ret

00001c4e <GetFuelCellVoltage>:
    1c4e:	8f 92       	push	r8
    1c50:	9f 92       	push	r9
    1c52:	af 92       	push	r10
    1c54:	bf 92       	push	r11
    1c56:	cf 92       	push	r12
    1c58:	df 92       	push	r13
    1c5a:	ef 92       	push	r14
    1c5c:	ff 92       	push	r15
    1c5e:	0f 93       	push	r16
    1c60:	1f 93       	push	r17
    1c62:	cf 93       	push	r28
    1c64:	df 93       	push	r29
    1c66:	8b 01       	movw	r16, r22
    1c68:	ea 01       	movw	r28, r20
    1c6a:	60 91 ec 28 	lds	r22, 0x28EC	; 0x8028ec <sSensorDataSnapshot485>
    1c6e:	70 91 ed 28 	lds	r23, 0x28ED	; 0x8028ed <sSensorDataSnapshot485+0x1>
    1c72:	80 91 ee 28 	lds	r24, 0x28EE	; 0x8028ee <sSensorDataSnapshot485+0x2>
    1c76:	90 91 ef 28 	lds	r25, 0x28EF	; 0x8028ef <sSensorDataSnapshot485+0x3>
    1c7a:	80 90 ed 29 	lds	r8, 0x29ED	; 0x8029ed <sCal+0x8>
    1c7e:	90 90 ee 29 	lds	r9, 0x29EE	; 0x8029ee <sCal+0x9>
    1c82:	a0 90 ef 29 	lds	r10, 0x29EF	; 0x8029ef <sCal+0xa>
    1c86:	b0 90 f0 29 	lds	r11, 0x29F0	; 0x8029f0 <sCal+0xb>
    1c8a:	0e 94 3e 33 	call	0x667c	; 0x667c <__floatsisf>
    1c8e:	6b 01       	movw	r12, r22
    1c90:	7c 01       	movw	r14, r24
    1c92:	20 e0       	ldi	r18, 0x00	; 0
    1c94:	30 e0       	ldi	r19, 0x00	; 0
    1c96:	40 e8       	ldi	r20, 0x80	; 128
    1c98:	57 e4       	ldi	r21, 0x47	; 71
    1c9a:	c5 01       	movw	r24, r10
    1c9c:	b4 01       	movw	r22, r8
    1c9e:	0e 94 3c 34 	call	0x6878	; 0x6878 <__mulsf3>
    1ca2:	9b 01       	movw	r18, r22
    1ca4:	ac 01       	movw	r20, r24
    1ca6:	c7 01       	movw	r24, r14
    1ca8:	b6 01       	movw	r22, r12
    1caa:	0e 94 8e 32 	call	0x651c	; 0x651c <__divsf3>
    1cae:	9f 93       	push	r25
    1cb0:	8f 93       	push	r24
    1cb2:	7f 93       	push	r23
    1cb4:	6f 93       	push	r22
    1cb6:	81 e0       	ldi	r24, 0x01	; 1
    1cb8:	92 e2       	ldi	r25, 0x22	; 34
    1cba:	9f 93       	push	r25
    1cbc:	8f 93       	push	r24
    1cbe:	df 93       	push	r29
    1cc0:	cf 93       	push	r28
    1cc2:	1f 93       	push	r17
    1cc4:	0f 93       	push	r16
    1cc6:	0e 94 a8 3d 	call	0x7b50	; 0x7b50 <snprintf>
    1cca:	ed b7       	in	r30, 0x3d	; 61
    1ccc:	fe b7       	in	r31, 0x3e	; 62
    1cce:	3a 96       	adiw	r30, 0x0a	; 10
    1cd0:	ed bf       	out	0x3d, r30	; 61
    1cd2:	fe bf       	out	0x3e, r31	; 62
    1cd4:	8c 17       	cp	r24, r28
    1cd6:	9d 07       	cpc	r25, r29
    1cd8:	2c f0       	brlt	.+10     	; 0x1ce4 <GetFuelCellVoltage+0x96>
    1cda:	f8 01       	movw	r30, r16
    1cdc:	10 82       	st	Z, r1
    1cde:	81 e0       	ldi	r24, 0x01	; 1
    1ce0:	90 e0       	ldi	r25, 0x00	; 0
    1ce2:	02 c0       	rjmp	.+4      	; 0x1ce8 <GetFuelCellVoltage+0x9a>
    1ce4:	80 e0       	ldi	r24, 0x00	; 0
    1ce6:	90 e0       	ldi	r25, 0x00	; 0
    1ce8:	df 91       	pop	r29
    1cea:	cf 91       	pop	r28
    1cec:	1f 91       	pop	r17
    1cee:	0f 91       	pop	r16
    1cf0:	ff 90       	pop	r15
    1cf2:	ef 90       	pop	r14
    1cf4:	df 90       	pop	r13
    1cf6:	cf 90       	pop	r12
    1cf8:	bf 90       	pop	r11
    1cfa:	af 90       	pop	r10
    1cfc:	9f 90       	pop	r9
    1cfe:	8f 90       	pop	r8
    1d00:	08 95       	ret

00001d02 <GetMotorCurrent>:
    1d02:	0f 93       	push	r16
    1d04:	1f 93       	push	r17
    1d06:	cf 93       	push	r28
    1d08:	df 93       	push	r29
    1d0a:	8b 01       	movw	r16, r22
    1d0c:	ea 01       	movw	r28, r20
    1d0e:	60 91 22 29 	lds	r22, 0x2922	; 0x802922 <sSensorDataSnapshot485+0x36>
    1d12:	70 91 23 29 	lds	r23, 0x2923	; 0x802923 <sSensorDataSnapshot485+0x37>
    1d16:	80 91 24 29 	lds	r24, 0x2924	; 0x802924 <sSensorDataSnapshot485+0x38>
    1d1a:	90 91 25 29 	lds	r25, 0x2925	; 0x802925 <sSensorDataSnapshot485+0x39>
    1d1e:	0e 94 3e 33 	call	0x667c	; 0x667c <__floatsisf>
    1d22:	20 e0       	ldi	r18, 0x00	; 0
    1d24:	30 e0       	ldi	r19, 0x00	; 0
    1d26:	48 e4       	ldi	r20, 0x48	; 72
    1d28:	5b e4       	ldi	r21, 0x4B	; 75
    1d2a:	0e 94 8e 32 	call	0x651c	; 0x651c <__divsf3>
    1d2e:	20 e0       	ldi	r18, 0x00	; 0
    1d30:	30 e0       	ldi	r19, 0x00	; 0
    1d32:	4a e7       	ldi	r20, 0x7A	; 122
    1d34:	5c e4       	ldi	r21, 0x4C	; 76
    1d36:	0e 94 8e 32 	call	0x651c	; 0x651c <__divsf3>
    1d3a:	9f 93       	push	r25
    1d3c:	8f 93       	push	r24
    1d3e:	7f 93       	push	r23
    1d40:	6f 93       	push	r22
    1d42:	81 e0       	ldi	r24, 0x01	; 1
    1d44:	92 e2       	ldi	r25, 0x22	; 34
    1d46:	9f 93       	push	r25
    1d48:	8f 93       	push	r24
    1d4a:	df 93       	push	r29
    1d4c:	cf 93       	push	r28
    1d4e:	1f 93       	push	r17
    1d50:	0f 93       	push	r16
    1d52:	0e 94 a8 3d 	call	0x7b50	; 0x7b50 <snprintf>
    1d56:	ed b7       	in	r30, 0x3d	; 61
    1d58:	fe b7       	in	r31, 0x3e	; 62
    1d5a:	3a 96       	adiw	r30, 0x0a	; 10
    1d5c:	ed bf       	out	0x3d, r30	; 61
    1d5e:	fe bf       	out	0x3e, r31	; 62
    1d60:	8c 17       	cp	r24, r28
    1d62:	9d 07       	cpc	r25, r29
    1d64:	2c f0       	brlt	.+10     	; 0x1d70 <GetMotorCurrent+0x6e>
    1d66:	f8 01       	movw	r30, r16
    1d68:	10 82       	st	Z, r1
    1d6a:	81 e0       	ldi	r24, 0x01	; 1
    1d6c:	90 e0       	ldi	r25, 0x00	; 0
    1d6e:	02 c0       	rjmp	.+4      	; 0x1d74 <GetMotorCurrent+0x72>
    1d70:	80 e0       	ldi	r24, 0x00	; 0
    1d72:	90 e0       	ldi	r25, 0x00	; 0
    1d74:	df 91       	pop	r29
    1d76:	cf 91       	pop	r28
    1d78:	1f 91       	pop	r17
    1d7a:	0f 91       	pop	r16
    1d7c:	08 95       	ret

00001d7e <GetMotorVoltage>:
    1d7e:	8f 92       	push	r8
    1d80:	9f 92       	push	r9
    1d82:	af 92       	push	r10
    1d84:	bf 92       	push	r11
    1d86:	cf 92       	push	r12
    1d88:	df 92       	push	r13
    1d8a:	ef 92       	push	r14
    1d8c:	ff 92       	push	r15
    1d8e:	0f 93       	push	r16
    1d90:	1f 93       	push	r17
    1d92:	cf 93       	push	r28
    1d94:	df 93       	push	r29
    1d96:	8b 01       	movw	r16, r22
    1d98:	ea 01       	movw	r28, r20
    1d9a:	60 91 1e 29 	lds	r22, 0x291E	; 0x80291e <sSensorDataSnapshot485+0x32>
    1d9e:	70 91 1f 29 	lds	r23, 0x291F	; 0x80291f <sSensorDataSnapshot485+0x33>
    1da2:	80 91 20 29 	lds	r24, 0x2920	; 0x802920 <sSensorDataSnapshot485+0x34>
    1da6:	90 91 21 29 	lds	r25, 0x2921	; 0x802921 <sSensorDataSnapshot485+0x35>
    1daa:	80 90 05 2a 	lds	r8, 0x2A05	; 0x802a05 <sCal+0x20>
    1dae:	90 90 06 2a 	lds	r9, 0x2A06	; 0x802a06 <sCal+0x21>
    1db2:	a0 90 07 2a 	lds	r10, 0x2A07	; 0x802a07 <sCal+0x22>
    1db6:	b0 90 08 2a 	lds	r11, 0x2A08	; 0x802a08 <sCal+0x23>
    1dba:	0e 94 3e 33 	call	0x667c	; 0x667c <__floatsisf>
    1dbe:	6b 01       	movw	r12, r22
    1dc0:	7c 01       	movw	r14, r24
    1dc2:	20 e0       	ldi	r18, 0x00	; 0
    1dc4:	30 e0       	ldi	r19, 0x00	; 0
    1dc6:	40 e8       	ldi	r20, 0x80	; 128
    1dc8:	57 e4       	ldi	r21, 0x47	; 71
    1dca:	c5 01       	movw	r24, r10
    1dcc:	b4 01       	movw	r22, r8
    1dce:	0e 94 3c 34 	call	0x6878	; 0x6878 <__mulsf3>
    1dd2:	9b 01       	movw	r18, r22
    1dd4:	ac 01       	movw	r20, r24
    1dd6:	c7 01       	movw	r24, r14
    1dd8:	b6 01       	movw	r22, r12
    1dda:	0e 94 8e 32 	call	0x651c	; 0x651c <__divsf3>
    1dde:	9f 93       	push	r25
    1de0:	8f 93       	push	r24
    1de2:	7f 93       	push	r23
    1de4:	6f 93       	push	r22
    1de6:	81 e0       	ldi	r24, 0x01	; 1
    1de8:	92 e2       	ldi	r25, 0x22	; 34
    1dea:	9f 93       	push	r25
    1dec:	8f 93       	push	r24
    1dee:	df 93       	push	r29
    1df0:	cf 93       	push	r28
    1df2:	1f 93       	push	r17
    1df4:	0f 93       	push	r16
    1df6:	0e 94 a8 3d 	call	0x7b50	; 0x7b50 <snprintf>
    1dfa:	ed b7       	in	r30, 0x3d	; 61
    1dfc:	fe b7       	in	r31, 0x3e	; 62
    1dfe:	3a 96       	adiw	r30, 0x0a	; 10
    1e00:	ed bf       	out	0x3d, r30	; 61
    1e02:	fe bf       	out	0x3e, r31	; 62
    1e04:	8c 17       	cp	r24, r28
    1e06:	9d 07       	cpc	r25, r29
    1e08:	2c f0       	brlt	.+10     	; 0x1e14 <GetMotorVoltage+0x96>
    1e0a:	f8 01       	movw	r30, r16
    1e0c:	10 82       	st	Z, r1
    1e0e:	81 e0       	ldi	r24, 0x01	; 1
    1e10:	90 e0       	ldi	r25, 0x00	; 0
    1e12:	02 c0       	rjmp	.+4      	; 0x1e18 <GetMotorVoltage+0x9a>
    1e14:	80 e0       	ldi	r24, 0x00	; 0
    1e16:	90 e0       	ldi	r25, 0x00	; 0
    1e18:	df 91       	pop	r29
    1e1a:	cf 91       	pop	r28
    1e1c:	1f 91       	pop	r17
    1e1e:	0f 91       	pop	r16
    1e20:	ff 90       	pop	r15
    1e22:	ef 90       	pop	r14
    1e24:	df 90       	pop	r13
    1e26:	cf 90       	pop	r12
    1e28:	bf 90       	pop	r11
    1e2a:	af 90       	pop	r10
    1e2c:	9f 90       	pop	r9
    1e2e:	8f 90       	pop	r8
    1e30:	08 95       	ret

00001e32 <GetWheelDistance>:
    1e32:	0f 93       	push	r16
    1e34:	1f 93       	push	r17
    1e36:	cf 93       	push	r28
    1e38:	df 93       	push	r29
    1e3a:	8b 01       	movw	r16, r22
    1e3c:	ea 01       	movw	r28, r20
    1e3e:	60 91 4a 29 	lds	r22, 0x294A	; 0x80294a <sSensorDataSnapshot485+0x5e>
    1e42:	70 91 4b 29 	lds	r23, 0x294B	; 0x80294b <sSensorDataSnapshot485+0x5f>
    1e46:	80 91 4c 29 	lds	r24, 0x294C	; 0x80294c <sSensorDataSnapshot485+0x60>
    1e4a:	90 91 4d 29 	lds	r25, 0x294D	; 0x80294d <sSensorDataSnapshot485+0x61>
    1e4e:	0e 94 3c 33 	call	0x6678	; 0x6678 <__floatunsisf>
    1e52:	2f ed       	ldi	r18, 0xDF	; 223
    1e54:	36 e9       	ldi	r19, 0x96	; 150
    1e56:	45 e9       	ldi	r20, 0x95	; 149
    1e58:	5d e3       	ldi	r21, 0x3D	; 61
    1e5a:	0e 94 3c 34 	call	0x6878	; 0x6878 <__mulsf3>
    1e5e:	9f 93       	push	r25
    1e60:	8f 93       	push	r24
    1e62:	7f 93       	push	r23
    1e64:	6f 93       	push	r22
    1e66:	81 e0       	ldi	r24, 0x01	; 1
    1e68:	92 e2       	ldi	r25, 0x22	; 34
    1e6a:	9f 93       	push	r25
    1e6c:	8f 93       	push	r24
    1e6e:	df 93       	push	r29
    1e70:	cf 93       	push	r28
    1e72:	1f 93       	push	r17
    1e74:	0f 93       	push	r16
    1e76:	0e 94 a8 3d 	call	0x7b50	; 0x7b50 <snprintf>
    1e7a:	ed b7       	in	r30, 0x3d	; 61
    1e7c:	fe b7       	in	r31, 0x3e	; 62
    1e7e:	3a 96       	adiw	r30, 0x0a	; 10
    1e80:	ed bf       	out	0x3d, r30	; 61
    1e82:	fe bf       	out	0x3e, r31	; 62
    1e84:	8c 17       	cp	r24, r28
    1e86:	9d 07       	cpc	r25, r29
    1e88:	2c f0       	brlt	.+10     	; 0x1e94 <GetWheelDistance+0x62>
    1e8a:	f8 01       	movw	r30, r16
    1e8c:	10 82       	st	Z, r1
    1e8e:	81 e0       	ldi	r24, 0x01	; 1
    1e90:	90 e0       	ldi	r25, 0x00	; 0
    1e92:	02 c0       	rjmp	.+4      	; 0x1e98 <GetWheelDistance+0x66>
    1e94:	80 e0       	ldi	r24, 0x00	; 0
    1e96:	90 e0       	ldi	r25, 0x00	; 0
    1e98:	df 91       	pop	r29
    1e9a:	cf 91       	pop	r28
    1e9c:	1f 91       	pop	r17
    1e9e:	0f 91       	pop	r16
    1ea0:	08 95       	ret

00001ea2 <GetWheelSpeedEVA>:
    1ea2:	cf 92       	push	r12
    1ea4:	df 92       	push	r13
    1ea6:	ef 92       	push	r14
    1ea8:	ff 92       	push	r15
    1eaa:	0f 93       	push	r16
    1eac:	1f 93       	push	r17
    1eae:	cf 93       	push	r28
    1eb0:	df 93       	push	r29
    1eb2:	8b 01       	movw	r16, r22
    1eb4:	ea 01       	movw	r28, r20
    1eb6:	60 91 46 29 	lds	r22, 0x2946	; 0x802946 <sSensorDataSnapshot485+0x5a>
    1eba:	70 91 47 29 	lds	r23, 0x2947	; 0x802947 <sSensorDataSnapshot485+0x5b>
    1ebe:	80 91 48 29 	lds	r24, 0x2948	; 0x802948 <sSensorDataSnapshot485+0x5c>
    1ec2:	90 91 49 29 	lds	r25, 0x2949	; 0x802949 <sSensorDataSnapshot485+0x5d>
    1ec6:	61 15       	cp	r22, r1
    1ec8:	71 05       	cpc	r23, r1
    1eca:	81 05       	cpc	r24, r1
    1ecc:	91 05       	cpc	r25, r1
    1ece:	09 f1       	breq	.+66     	; 0x1f12 <GetWheelSpeedEVA+0x70>
    1ed0:	0e 94 3e 33 	call	0x667c	; 0x667c <__floatsisf>
    1ed4:	20 e0       	ldi	r18, 0x00	; 0
    1ed6:	30 e0       	ldi	r19, 0x00	; 0
    1ed8:	40 e8       	ldi	r20, 0x80	; 128
    1eda:	57 e3       	ldi	r21, 0x37	; 55
    1edc:	0e 94 3c 34 	call	0x6878	; 0x6878 <__mulsf3>
    1ee0:	9b 01       	movw	r18, r22
    1ee2:	ac 01       	movw	r20, r24
    1ee4:	60 e0       	ldi	r22, 0x00	; 0
    1ee6:	78 e5       	ldi	r23, 0x58	; 88
    1ee8:	84 ea       	ldi	r24, 0xA4	; 164
    1eea:	94 e4       	ldi	r25, 0x44	; 68
    1eec:	0e 94 8e 32 	call	0x651c	; 0x651c <__divsf3>
    1ef0:	f6 2e       	mov	r15, r22
    1ef2:	e7 2e       	mov	r14, r23
    1ef4:	d8 2e       	mov	r13, r24
    1ef6:	c9 2e       	mov	r12, r25
    1ef8:	20 e0       	ldi	r18, 0x00	; 0
    1efa:	30 e0       	ldi	r19, 0x00	; 0
    1efc:	40 e8       	ldi	r20, 0x80	; 128
    1efe:	5f e3       	ldi	r21, 0x3F	; 63
    1f00:	0e 94 89 32 	call	0x6512	; 0x6512 <__cmpsf2>
    1f04:	88 23       	and	r24, r24
    1f06:	4c f4       	brge	.+18     	; 0x1f1a <GetWheelSpeedEVA+0x78>
    1f08:	f1 2c       	mov	r15, r1
    1f0a:	e1 2c       	mov	r14, r1
    1f0c:	d1 2c       	mov	r13, r1
    1f0e:	c1 2c       	mov	r12, r1
    1f10:	04 c0       	rjmp	.+8      	; 0x1f1a <GetWheelSpeedEVA+0x78>
    1f12:	f1 2c       	mov	r15, r1
    1f14:	e1 2c       	mov	r14, r1
    1f16:	d1 2c       	mov	r13, r1
    1f18:	c1 2c       	mov	r12, r1
    1f1a:	cf 92       	push	r12
    1f1c:	df 92       	push	r13
    1f1e:	ef 92       	push	r14
    1f20:	ff 92       	push	r15
    1f22:	81 e0       	ldi	r24, 0x01	; 1
    1f24:	92 e2       	ldi	r25, 0x22	; 34
    1f26:	9f 93       	push	r25
    1f28:	8f 93       	push	r24
    1f2a:	df 93       	push	r29
    1f2c:	cf 93       	push	r28
    1f2e:	1f 93       	push	r17
    1f30:	0f 93       	push	r16
    1f32:	0e 94 a8 3d 	call	0x7b50	; 0x7b50 <snprintf>
    1f36:	ed b7       	in	r30, 0x3d	; 61
    1f38:	fe b7       	in	r31, 0x3e	; 62
    1f3a:	3a 96       	adiw	r30, 0x0a	; 10
    1f3c:	ed bf       	out	0x3d, r30	; 61
    1f3e:	fe bf       	out	0x3e, r31	; 62
    1f40:	8c 17       	cp	r24, r28
    1f42:	9d 07       	cpc	r25, r29
    1f44:	2c f0       	brlt	.+10     	; 0x1f50 <GetWheelSpeedEVA+0xae>
    1f46:	f8 01       	movw	r30, r16
    1f48:	10 82       	st	Z, r1
    1f4a:	81 e0       	ldi	r24, 0x01	; 1
    1f4c:	90 e0       	ldi	r25, 0x00	; 0
    1f4e:	02 c0       	rjmp	.+4      	; 0x1f54 <GetWheelSpeedEVA+0xb2>
    1f50:	80 e0       	ldi	r24, 0x00	; 0
    1f52:	90 e0       	ldi	r25, 0x00	; 0
    1f54:	df 91       	pop	r29
    1f56:	cf 91       	pop	r28
    1f58:	1f 91       	pop	r17
    1f5a:	0f 91       	pop	r16
    1f5c:	ff 90       	pop	r15
    1f5e:	ef 90       	pop	r14
    1f60:	df 90       	pop	r13
    1f62:	cf 90       	pop	r12
    1f64:	08 95       	ret

00001f66 <InitCoreAnalog>:
    1f66:	df 92       	push	r13
    1f68:	ef 92       	push	r14
    1f6a:	ff 92       	push	r15
    1f6c:	0f 93       	push	r16
    1f6e:	1f 93       	push	r17
    1f70:	cf 93       	push	r28
    1f72:	df 93       	push	r29
    1f74:	80 e2       	ldi	r24, 0x20	; 32
    1f76:	0e 94 d3 31 	call	0x63a6	; 0x63a6 <ReadCalibrationByte>
    1f7a:	c0 e0       	ldi	r28, 0x00	; 0
    1f7c:	d2 e0       	ldi	r29, 0x02	; 2
    1f7e:	8c 87       	std	Y+12, r24	; 0x0c
    1f80:	81 e2       	ldi	r24, 0x21	; 33
    1f82:	0e 94 d3 31 	call	0x63a6	; 0x63a6 <ReadCalibrationByte>
    1f86:	8d 87       	std	Y+13, r24	; 0x0d
    1f88:	84 e2       	ldi	r24, 0x24	; 36
    1f8a:	0e 94 d3 31 	call	0x63a6	; 0x63a6 <ReadCalibrationByte>
    1f8e:	00 e4       	ldi	r16, 0x40	; 64
    1f90:	12 e0       	ldi	r17, 0x02	; 2
    1f92:	f8 01       	movw	r30, r16
    1f94:	84 87       	std	Z+12, r24	; 0x0c
    1f96:	85 e2       	ldi	r24, 0x25	; 37
    1f98:	0e 94 d3 31 	call	0x63a6	; 0x63a6 <ReadCalibrationByte>
    1f9c:	f8 01       	movw	r30, r16
    1f9e:	85 87       	std	Z+13, r24	; 0x0d
    1fa0:	e0 e0       	ldi	r30, 0x00	; 0
    1fa2:	f6 e0       	ldi	r31, 0x06	; 6
    1fa4:	14 82       	std	Z+4, r1	; 0x04
    1fa6:	10 82       	st	Z, r1
    1fa8:	a0 e2       	ldi	r26, 0x20	; 32
    1faa:	b6 e0       	ldi	r27, 0x06	; 6
    1fac:	14 96       	adiw	r26, 0x04	; 4
    1fae:	1c 92       	st	X, r1
    1fb0:	14 97       	sbiw	r26, 0x04	; 4
    1fb2:	1c 92       	st	X, r1
    1fb4:	87 e0       	ldi	r24, 0x07	; 7
    1fb6:	80 8b       	std	Z+16, r24	; 0x10
    1fb8:	81 8b       	std	Z+17, r24	; 0x11
    1fba:	82 8b       	std	Z+18, r24	; 0x12
    1fbc:	83 8b       	std	Z+19, r24	; 0x13
    1fbe:	84 8b       	std	Z+20, r24	; 0x14
    1fc0:	85 8b       	std	Z+21, r24	; 0x15
    1fc2:	86 8b       	std	Z+22, r24	; 0x16
    1fc4:	50 96       	adiw	r26, 0x10	; 16
    1fc6:	8c 93       	st	X, r24
    1fc8:	50 97       	sbiw	r26, 0x10	; 16
    1fca:	51 96       	adiw	r26, 0x11	; 17
    1fcc:	8c 93       	st	X, r24
    1fce:	51 97       	sbiw	r26, 0x11	; 17
    1fd0:	52 96       	adiw	r26, 0x12	; 18
    1fd2:	8c 93       	st	X, r24
    1fd4:	52 97       	sbiw	r26, 0x12	; 18
    1fd6:	53 96       	adiw	r26, 0x13	; 19
    1fd8:	8c 93       	st	X, r24
    1fda:	53 97       	sbiw	r26, 0x13	; 19
    1fdc:	54 96       	adiw	r26, 0x14	; 20
    1fde:	8c 93       	st	X, r24
    1fe0:	54 97       	sbiw	r26, 0x14	; 20
    1fe2:	55 96       	adiw	r26, 0x15	; 21
    1fe4:	8c 93       	st	X, r24
    1fe6:	55 97       	sbiw	r26, 0x15	; 21
    1fe8:	56 96       	adiw	r26, 0x16	; 22
    1fea:	8c 93       	st	X, r24
    1fec:	56 97       	sbiw	r26, 0x16	; 22
    1fee:	57 96       	adiw	r26, 0x17	; 23
    1ff0:	8c 93       	st	X, r24
    1ff2:	68 94       	set
    1ff4:	dd 24       	eor	r13, r13
    1ff6:	d4 f8       	bld	r13, 4
    1ff8:	d7 8a       	std	Z+23, r13	; 0x17
    1ffa:	d9 82       	std	Y+1, r13	; 0x01
    1ffc:	50 e2       	ldi	r21, 0x20	; 32
    1ffe:	5a 83       	std	Y+2, r21	; 0x02
    2000:	46 ec       	ldi	r20, 0xC6	; 198
    2002:	4b 83       	std	Y+3, r20	; 0x03
    2004:	33 e0       	ldi	r19, 0x03	; 3
    2006:	3c 83       	std	Y+4, r19	; 0x04
    2008:	68 94       	set
    200a:	ff 24       	eor	r15, r15
    200c:	f1 f8       	bld	r15, 1
    200e:	f8 a2       	std	Y+32, r15	; 0x20
    2010:	f8 a6       	std	Y+40, r15	; 0x28
    2012:	f8 aa       	std	Y+48, r15	; 0x30
    2014:	f8 ae       	std	Y+56, r15	; 0x38
    2016:	89 e2       	ldi	r24, 0x29	; 41
    2018:	89 a3       	std	Y+33, r24	; 0x21
    201a:	99 e1       	ldi	r25, 0x19	; 25
    201c:	99 a7       	std	Y+41, r25	; 0x29
    201e:	91 e3       	ldi	r25, 0x31	; 49
    2020:	99 ab       	std	Y+49, r25	; 0x31
    2022:	21 e6       	ldi	r18, 0x61	; 97
    2024:	29 af       	std	Y+57, r18	; 0x39
    2026:	ee 24       	eor	r14, r14
    2028:	e3 94       	inc	r14
    202a:	ea a2       	std	Y+34, r14	; 0x22
    202c:	e8 82       	st	Y, r14
    202e:	f8 01       	movw	r30, r16
    2030:	d1 82       	std	Z+1, r13	; 0x01
    2032:	52 83       	std	Z+2, r21	; 0x02
    2034:	43 83       	std	Z+3, r20	; 0x03
    2036:	34 83       	std	Z+4, r19	; 0x04
    2038:	f0 a2       	std	Z+32, r15	; 0x20
    203a:	f0 a6       	std	Z+40, r15	; 0x28
    203c:	f0 aa       	std	Z+48, r15	; 0x30
    203e:	f0 ae       	std	Z+56, r15	; 0x38
    2040:	21 a3       	std	Z+33, r18	; 0x21
    2042:	21 e5       	ldi	r18, 0x51	; 81
    2044:	21 a7       	std	Z+41, r18	; 0x29
    2046:	91 ab       	std	Z+49, r25	; 0x31
    2048:	81 af       	std	Z+57, r24	; 0x39
    204a:	e0 82       	st	Z, r14
    204c:	e0 ea       	ldi	r30, 0xA0	; 160
    204e:	f0 e0       	ldi	r31, 0x00	; 0
    2050:	82 81       	ldd	r24, Z+2	; 0x02
    2052:	81 60       	ori	r24, 0x01	; 1
    2054:	82 83       	std	Z+2, r24	; 0x02
    2056:	e5 ee       	ldi	r30, 0xE5	; 229
    2058:	f9 e2       	ldi	r31, 0x29	; 41
    205a:	8b ea       	ldi	r24, 0xAB	; 171
    205c:	9a ea       	ldi	r25, 0xAA	; 170
    205e:	a6 e2       	ldi	r26, 0x26	; 38
    2060:	b2 e4       	ldi	r27, 0x42	; 66
    2062:	80 87       	std	Z+8, r24	; 0x08
    2064:	91 87       	std	Z+9, r25	; 0x09
    2066:	a2 87       	std	Z+10, r26	; 0x0a
    2068:	b3 87       	std	Z+11, r27	; 0x0b
    206a:	47 e2       	ldi	r20, 0x27	; 39
    206c:	51 e1       	ldi	r21, 0x11	; 17
    206e:	64 eb       	ldi	r22, 0xB4	; 180
    2070:	72 e4       	ldi	r23, 0x42	; 66
    2072:	44 87       	std	Z+12, r20	; 0x0c
    2074:	55 87       	std	Z+13, r21	; 0x0d
    2076:	66 87       	std	Z+14, r22	; 0x0e
    2078:	77 87       	std	Z+15, r23	; 0x0f
    207a:	80 8b       	std	Z+16, r24	; 0x10
    207c:	91 8b       	std	Z+17, r25	; 0x11
    207e:	a2 8b       	std	Z+18, r26	; 0x12
    2080:	b3 8b       	std	Z+19, r27	; 0x13
    2082:	4f e1       	ldi	r20, 0x1F	; 31
    2084:	5e e8       	ldi	r21, 0x8E	; 142
    2086:	60 eb       	ldi	r22, 0xB0	; 176
    2088:	72 e4       	ldi	r23, 0x42	; 66
    208a:	44 8b       	std	Z+20, r20	; 0x14
    208c:	55 8b       	std	Z+21, r21	; 0x15
    208e:	66 8b       	std	Z+22, r22	; 0x16
    2090:	77 8b       	std	Z+23, r23	; 0x17
    2092:	80 a3       	std	Z+32, r24	; 0x20
    2094:	91 a3       	std	Z+33, r25	; 0x21
    2096:	a2 a3       	std	Z+34, r26	; 0x22
    2098:	b3 a3       	std	Z+35, r27	; 0x23
    209a:	4d e5       	ldi	r20, 0x5D	; 93
    209c:	55 e8       	ldi	r21, 0x85	; 133
    209e:	6f e6       	ldi	r22, 0x6F	; 111
    20a0:	72 e4       	ldi	r23, 0x42	; 66
    20a2:	44 a3       	std	Z+36, r20	; 0x24
    20a4:	55 a3       	std	Z+37, r21	; 0x25
    20a6:	66 a3       	std	Z+38, r22	; 0x26
    20a8:	77 a3       	std	Z+39, r23	; 0x27
    20aa:	80 a7       	std	Z+40, r24	; 0x28
    20ac:	91 a7       	std	Z+41, r25	; 0x29
    20ae:	a2 a7       	std	Z+42, r26	; 0x2a
    20b0:	b3 a7       	std	Z+43, r27	; 0x2b
    20b2:	80 e0       	ldi	r24, 0x00	; 0
    20b4:	90 e0       	ldi	r25, 0x00	; 0
    20b6:	a8 e4       	ldi	r26, 0x48	; 72
    20b8:	b2 e4       	ldi	r27, 0x42	; 66
    20ba:	84 a7       	std	Z+44, r24	; 0x2c
    20bc:	95 a7       	std	Z+45, r25	; 0x2d
    20be:	a6 a7       	std	Z+46, r26	; 0x2e
    20c0:	b7 a7       	std	Z+47, r27	; 0x2f
    20c2:	44 e0       	ldi	r20, 0x04	; 4
    20c4:	50 e0       	ldi	r21, 0x00	; 0
    20c6:	60 e0       	ldi	r22, 0x00	; 0
    20c8:	70 e0       	ldi	r23, 0x00	; 0
    20ca:	8d ee       	ldi	r24, 0xED	; 237
    20cc:	99 e2       	ldi	r25, 0x29	; 41
    20ce:	0e 94 31 31 	call	0x6262	; 0x6262 <TryReadEEPROM>
    20d2:	44 e0       	ldi	r20, 0x04	; 4
    20d4:	50 e0       	ldi	r21, 0x00	; 0
    20d6:	60 e1       	ldi	r22, 0x10	; 16
    20d8:	70 e0       	ldi	r23, 0x00	; 0
    20da:	81 ef       	ldi	r24, 0xF1	; 241
    20dc:	99 e2       	ldi	r25, 0x29	; 41
    20de:	0e 94 31 31 	call	0x6262	; 0x6262 <TryReadEEPROM>
    20e2:	44 e0       	ldi	r20, 0x04	; 4
    20e4:	50 e0       	ldi	r21, 0x00	; 0
    20e6:	60 e2       	ldi	r22, 0x20	; 32
    20e8:	70 e0       	ldi	r23, 0x00	; 0
    20ea:	85 ef       	ldi	r24, 0xF5	; 245
    20ec:	99 e2       	ldi	r25, 0x29	; 41
    20ee:	0e 94 31 31 	call	0x6262	; 0x6262 <TryReadEEPROM>
    20f2:	44 e0       	ldi	r20, 0x04	; 4
    20f4:	50 e0       	ldi	r21, 0x00	; 0
    20f6:	60 e3       	ldi	r22, 0x30	; 48
    20f8:	70 e0       	ldi	r23, 0x00	; 0
    20fa:	89 ef       	ldi	r24, 0xF9	; 249
    20fc:	99 e2       	ldi	r25, 0x29	; 41
    20fe:	0e 94 31 31 	call	0x6262	; 0x6262 <TryReadEEPROM>
    2102:	42 e0       	ldi	r20, 0x02	; 2
    2104:	50 e0       	ldi	r21, 0x00	; 0
    2106:	60 e4       	ldi	r22, 0x40	; 64
    2108:	70 e0       	ldi	r23, 0x00	; 0
    210a:	85 ee       	ldi	r24, 0xE5	; 229
    210c:	99 e2       	ldi	r25, 0x29	; 41
    210e:	0e 94 31 31 	call	0x6262	; 0x6262 <TryReadEEPROM>
    2112:	42 e0       	ldi	r20, 0x02	; 2
    2114:	50 e0       	ldi	r21, 0x00	; 0
    2116:	64 e4       	ldi	r22, 0x44	; 68
    2118:	70 e0       	ldi	r23, 0x00	; 0
    211a:	87 ee       	ldi	r24, 0xE7	; 231
    211c:	99 e2       	ldi	r25, 0x29	; 41
    211e:	0e 94 31 31 	call	0x6262	; 0x6262 <TryReadEEPROM>
    2122:	42 e0       	ldi	r20, 0x02	; 2
    2124:	50 e0       	ldi	r21, 0x00	; 0
    2126:	68 e4       	ldi	r22, 0x48	; 72
    2128:	70 e0       	ldi	r23, 0x00	; 0
    212a:	89 ee       	ldi	r24, 0xE9	; 233
    212c:	99 e2       	ldi	r25, 0x29	; 41
    212e:	0e 94 31 31 	call	0x6262	; 0x6262 <TryReadEEPROM>
    2132:	42 e0       	ldi	r20, 0x02	; 2
    2134:	50 e0       	ldi	r21, 0x00	; 0
    2136:	6c e4       	ldi	r22, 0x4C	; 76
    2138:	70 e0       	ldi	r23, 0x00	; 0
    213a:	8b ee       	ldi	r24, 0xEB	; 235
    213c:	99 e2       	ldi	r25, 0x29	; 41
    213e:	0e 94 31 31 	call	0x6262	; 0x6262 <TryReadEEPROM>
    2142:	44 e0       	ldi	r20, 0x04	; 4
    2144:	50 e0       	ldi	r21, 0x00	; 0
    2146:	60 e5       	ldi	r22, 0x50	; 80
    2148:	70 e0       	ldi	r23, 0x00	; 0
    214a:	85 e0       	ldi	r24, 0x05	; 5
    214c:	9a e2       	ldi	r25, 0x2A	; 42
    214e:	0e 94 31 31 	call	0x6262	; 0x6262 <TryReadEEPROM>
    2152:	44 e0       	ldi	r20, 0x04	; 4
    2154:	50 e0       	ldi	r21, 0x00	; 0
    2156:	60 e6       	ldi	r22, 0x60	; 96
    2158:	70 e0       	ldi	r23, 0x00	; 0
    215a:	89 e0       	ldi	r24, 0x09	; 9
    215c:	9a e2       	ldi	r25, 0x2A	; 42
    215e:	0e 94 31 31 	call	0x6262	; 0x6262 <TryReadEEPROM>
    2162:	44 e0       	ldi	r20, 0x04	; 4
    2164:	50 e0       	ldi	r21, 0x00	; 0
    2166:	60 e7       	ldi	r22, 0x70	; 112
    2168:	70 e0       	ldi	r23, 0x00	; 0
    216a:	8d e0       	ldi	r24, 0x0D	; 13
    216c:	9a e2       	ldi	r25, 0x2A	; 42
    216e:	0e 94 31 31 	call	0x6262	; 0x6262 <TryReadEEPROM>
    2172:	44 e0       	ldi	r20, 0x04	; 4
    2174:	50 e0       	ldi	r21, 0x00	; 0
    2176:	60 e8       	ldi	r22, 0x80	; 128
    2178:	70 e0       	ldi	r23, 0x00	; 0
    217a:	81 e1       	ldi	r24, 0x11	; 17
    217c:	9a e2       	ldi	r25, 0x2A	; 42
    217e:	0e 94 31 31 	call	0x6262	; 0x6262 <TryReadEEPROM>
    2182:	42 e0       	ldi	r20, 0x02	; 2
    2184:	50 e0       	ldi	r21, 0x00	; 0
    2186:	60 e9       	ldi	r22, 0x90	; 144
    2188:	70 e0       	ldi	r23, 0x00	; 0
    218a:	8d ef       	ldi	r24, 0xFD	; 253
    218c:	99 e2       	ldi	r25, 0x29	; 41
    218e:	0e 94 31 31 	call	0x6262	; 0x6262 <TryReadEEPROM>
    2192:	42 e0       	ldi	r20, 0x02	; 2
    2194:	50 e0       	ldi	r21, 0x00	; 0
    2196:	64 e9       	ldi	r22, 0x94	; 148
    2198:	70 e0       	ldi	r23, 0x00	; 0
    219a:	8f ef       	ldi	r24, 0xFF	; 255
    219c:	99 e2       	ldi	r25, 0x29	; 41
    219e:	0e 94 31 31 	call	0x6262	; 0x6262 <TryReadEEPROM>
    21a2:	42 e0       	ldi	r20, 0x02	; 2
    21a4:	50 e0       	ldi	r21, 0x00	; 0
    21a6:	68 e9       	ldi	r22, 0x98	; 152
    21a8:	70 e0       	ldi	r23, 0x00	; 0
    21aa:	81 e0       	ldi	r24, 0x01	; 1
    21ac:	9a e2       	ldi	r25, 0x2A	; 42
    21ae:	0e 94 31 31 	call	0x6262	; 0x6262 <TryReadEEPROM>
    21b2:	42 e0       	ldi	r20, 0x02	; 2
    21b4:	50 e0       	ldi	r21, 0x00	; 0
    21b6:	6c e9       	ldi	r22, 0x9C	; 156
    21b8:	70 e0       	ldi	r23, 0x00	; 0
    21ba:	83 e0       	ldi	r24, 0x03	; 3
    21bc:	9a e2       	ldi	r25, 0x2A	; 42
    21be:	0e 94 31 31 	call	0x6262	; 0x6262 <TryReadEEPROM>
    21c2:	e0 e2       	ldi	r30, 0x20	; 32
    21c4:	f3 e0       	ldi	r31, 0x03	; 3
    21c6:	85 e0       	ldi	r24, 0x05	; 5
    21c8:	80 83       	st	Z, r24
    21ca:	11 82       	std	Z+1, r1	; 0x01
    21cc:	d2 82       	std	Z+2, r13	; 0x02
    21ce:	8e ea       	ldi	r24, 0xAE	; 174
    21d0:	95 e0       	ldi	r25, 0x05	; 5
    21d2:	80 8f       	std	Z+24, r24	; 0x18
    21d4:	91 8f       	std	Z+25, r25	; 0x19
    21d6:	e0 e0       	ldi	r30, 0x00	; 0
    21d8:	f8 e0       	ldi	r31, 0x08	; 8
    21da:	11 82       	std	Z+1, r1	; 0x01
    21dc:	13 82       	std	Z+3, r1	; 0x03
    21de:	14 82       	std	Z+4, r1	; 0x04
    21e0:	80 e0       	ldi	r24, 0x00	; 0
    21e2:	99 e1       	ldi	r25, 0x19	; 25
    21e4:	86 a3       	std	Z+38, r24	; 0x26
    21e6:	97 a3       	std	Z+39, r25	; 0x27
    21e8:	16 82       	std	Z+6, r1	; 0x06
    21ea:	17 82       	std	Z+7, r1	; 0x07
    21ec:	10 a2       	std	Z+32, r1	; 0x20
    21ee:	11 a2       	std	Z+33, r1	; 0x21
    21f0:	e0 82       	st	Z, r14
    21f2:	a0 e8       	ldi	r26, 0x80	; 128
    21f4:	b1 e0       	ldi	r27, 0x01	; 1
    21f6:	80 ec       	ldi	r24, 0xC0	; 192
    21f8:	8c 93       	st	X, r24
    21fa:	e0 e4       	ldi	r30, 0x40	; 64
    21fc:	f8 e0       	ldi	r31, 0x08	; 8
    21fe:	8c e0       	ldi	r24, 0x0C	; 12
    2200:	80 83       	st	Z, r24
    2202:	11 82       	std	Z+1, r1	; 0x01
    2204:	13 82       	std	Z+3, r1	; 0x03
    2206:	14 82       	std	Z+4, r1	; 0x04
    2208:	16 82       	std	Z+6, r1	; 0x06
    220a:	17 82       	std	Z+7, r1	; 0x07
    220c:	e0 86       	std	Z+8, r14	; 0x08
    220e:	8f ef       	ldi	r24, 0xFF	; 255
    2210:	9f ef       	ldi	r25, 0xFF	; 255
    2212:	86 a3       	std	Z+38, r24	; 0x26
    2214:	97 a3       	std	Z+39, r25	; 0x27
    2216:	e0 e4       	ldi	r30, 0x40	; 64
    2218:	f6 e0       	ldi	r31, 0x06	; 6
    221a:	80 e4       	ldi	r24, 0x40	; 64
    221c:	82 83       	std	Z+2, r24	; 0x02
    221e:	e6 8a       	std	Z+22, r14	; 0x16
    2220:	86 e6       	ldi	r24, 0x66	; 102
    2222:	14 96       	adiw	r26, 0x04	; 4
    2224:	8c 93       	st	X, r24
    2226:	14 97       	sbiw	r26, 0x04	; 4
    2228:	1c 96       	adiw	r26, 0x0c	; 12
    222a:	fc 92       	st	X, r15
    222c:	e0 e6       	ldi	r30, 0x60	; 96
    222e:	f6 e0       	ldi	r31, 0x06	; 6
    2230:	80 85       	ldd	r24, Z+8	; 0x08
    2232:	90 85       	ldd	r25, Z+8	; 0x08
    2234:	80 73       	andi	r24, 0x30	; 48
    2236:	21 e0       	ldi	r18, 0x01	; 1
    2238:	80 31       	cpi	r24, 0x10	; 16
    223a:	09 f0       	breq	.+2      	; 0x223e <InitCoreAnalog+0x2d8>
    223c:	20 e0       	ldi	r18, 0x00	; 0
    223e:	21 11       	cpse	r18, r1
    2240:	08 c0       	rjmp	.+16     	; 0x2252 <InitCoreAnalog+0x2ec>
    2242:	90 73       	andi	r25, 0x30	; 48
    2244:	81 e0       	ldi	r24, 0x01	; 1
    2246:	90 32       	cpi	r25, 0x20	; 32
    2248:	09 f0       	breq	.+2      	; 0x224c <InitCoreAnalog+0x2e6>
    224a:	80 e0       	ldi	r24, 0x00	; 0
    224c:	88 23       	and	r24, r24
    224e:	09 f4       	brne	.+2      	; 0x2252 <InitCoreAnalog+0x2ec>
    2250:	49 c0       	rjmp	.+146    	; 0x22e4 <InitCoreAnalog+0x37e>
    2252:	80 91 68 06 	lds	r24, 0x0668	; 0x800668 <__TEXT_REGION_LENGTH__+0x700668>
    2256:	80 73       	andi	r24, 0x30	; 48
    2258:	80 31       	cpi	r24, 0x10	; 16
    225a:	19 f0       	breq	.+6      	; 0x2262 <InitCoreAnalog+0x2fc>
    225c:	8b e0       	ldi	r24, 0x0B	; 11
    225e:	92 e2       	ldi	r25, 0x22	; 34
    2260:	02 c0       	rjmp	.+4      	; 0x2266 <InitCoreAnalog+0x300>
    2262:	86 e0       	ldi	r24, 0x06	; 6
    2264:	92 e2       	ldi	r25, 0x22	; 34
    2266:	21 e0       	ldi	r18, 0x01	; 1
    2268:	30 e0       	ldi	r19, 0x00	; 0
    226a:	49 ed       	ldi	r20, 0xD9	; 217
    226c:	59 e0       	ldi	r21, 0x09	; 9
    226e:	61 e5       	ldi	r22, 0x51	; 81
    2270:	7f e0       	ldi	r23, 0x0F	; 15
    2272:	0e 94 2a 02 	call	0x454	; 0x454 <AddSlaveOwnSensor>
    2276:	80 91 68 06 	lds	r24, 0x0668	; 0x800668 <__TEXT_REGION_LENGTH__+0x700668>
    227a:	80 73       	andi	r24, 0x30	; 48
    227c:	80 31       	cpi	r24, 0x10	; 16
    227e:	19 f0       	breq	.+6      	; 0x2286 <InitCoreAnalog+0x320>
    2280:	85 e1       	ldi	r24, 0x15	; 21
    2282:	92 e2       	ldi	r25, 0x22	; 34
    2284:	02 c0       	rjmp	.+4      	; 0x228a <InitCoreAnalog+0x324>
    2286:	80 e1       	ldi	r24, 0x10	; 16
    2288:	92 e2       	ldi	r25, 0x22	; 34
    228a:	21 e0       	ldi	r18, 0x01	; 1
    228c:	30 e0       	ldi	r19, 0x00	; 0
    228e:	40 e0       	ldi	r20, 0x00	; 0
    2290:	50 e0       	ldi	r21, 0x00	; 0
    2292:	69 e1       	ldi	r22, 0x19	; 25
    2294:	7f e0       	ldi	r23, 0x0F	; 15
    2296:	0e 94 2a 02 	call	0x454	; 0x454 <AddSlaveOwnSensor>
    229a:	80 91 68 06 	lds	r24, 0x0668	; 0x800668 <__TEXT_REGION_LENGTH__+0x700668>
    229e:	80 73       	andi	r24, 0x30	; 48
    22a0:	80 31       	cpi	r24, 0x10	; 16
    22a2:	19 f0       	breq	.+6      	; 0x22aa <InitCoreAnalog+0x344>
    22a4:	8f e1       	ldi	r24, 0x1F	; 31
    22a6:	92 e2       	ldi	r25, 0x22	; 34
    22a8:	02 c0       	rjmp	.+4      	; 0x22ae <InitCoreAnalog+0x348>
    22aa:	8a e1       	ldi	r24, 0x1A	; 26
    22ac:	92 e2       	ldi	r25, 0x22	; 34
    22ae:	21 e0       	ldi	r18, 0x01	; 1
    22b0:	30 e0       	ldi	r19, 0x00	; 0
    22b2:	40 e0       	ldi	r20, 0x00	; 0
    22b4:	50 e0       	ldi	r21, 0x00	; 0
    22b6:	6f eb       	ldi	r22, 0xBF	; 191
    22b8:	7e e0       	ldi	r23, 0x0E	; 14
    22ba:	0e 94 2a 02 	call	0x454	; 0x454 <AddSlaveOwnSensor>
    22be:	80 91 68 06 	lds	r24, 0x0668	; 0x800668 <__TEXT_REGION_LENGTH__+0x700668>
    22c2:	80 73       	andi	r24, 0x30	; 48
    22c4:	80 31       	cpi	r24, 0x10	; 16
    22c6:	19 f0       	breq	.+6      	; 0x22ce <InitCoreAnalog+0x368>
    22c8:	89 e2       	ldi	r24, 0x29	; 41
    22ca:	92 e2       	ldi	r25, 0x22	; 34
    22cc:	02 c0       	rjmp	.+4      	; 0x22d2 <InitCoreAnalog+0x36c>
    22ce:	84 e2       	ldi	r24, 0x24	; 36
    22d0:	92 e2       	ldi	r25, 0x22	; 34
    22d2:	21 e0       	ldi	r18, 0x01	; 1
    22d4:	30 e0       	ldi	r19, 0x00	; 0
    22d6:	40 e0       	ldi	r20, 0x00	; 0
    22d8:	50 e0       	ldi	r21, 0x00	; 0
    22da:	61 e8       	ldi	r22, 0x81	; 129
    22dc:	7e e0       	ldi	r23, 0x0E	; 14
    22de:	0e 94 2a 02 	call	0x454	; 0x454 <AddSlaveOwnSensor>
    22e2:	af c0       	rjmp	.+350    	; 0x2442 <InitCoreAnalog+0x4dc>
    22e4:	21 e0       	ldi	r18, 0x01	; 1
    22e6:	30 e0       	ldi	r19, 0x00	; 0
    22e8:	40 e0       	ldi	r20, 0x00	; 0
    22ea:	50 e0       	ldi	r21, 0x00	; 0
    22ec:	67 e2       	ldi	r22, 0x27	; 39
    22ee:	7e e0       	ldi	r23, 0x0E	; 14
    22f0:	8e e2       	ldi	r24, 0x2E	; 46
    22f2:	92 e2       	ldi	r25, 0x22	; 34
    22f4:	0e 94 2a 02 	call	0x454	; 0x454 <AddSlaveOwnSensor>
    22f8:	21 e0       	ldi	r18, 0x01	; 1
    22fa:	30 e0       	ldi	r19, 0x00	; 0
    22fc:	40 e0       	ldi	r20, 0x00	; 0
    22fe:	50 e0       	ldi	r21, 0x00	; 0
    2300:	6d ec       	ldi	r22, 0xCD	; 205
    2302:	7d e0       	ldi	r23, 0x0D	; 13
    2304:	83 e3       	ldi	r24, 0x33	; 51
    2306:	92 e2       	ldi	r25, 0x22	; 34
    2308:	0e 94 2a 02 	call	0x454	; 0x454 <AddSlaveOwnSensor>
    230c:	21 e0       	ldi	r18, 0x01	; 1
    230e:	30 e0       	ldi	r19, 0x00	; 0
    2310:	40 e0       	ldi	r20, 0x00	; 0
    2312:	50 e0       	ldi	r21, 0x00	; 0
    2314:	65 e6       	ldi	r22, 0x65	; 101
    2316:	7d e0       	ldi	r23, 0x0D	; 13
    2318:	88 e3       	ldi	r24, 0x38	; 56
    231a:	92 e2       	ldi	r25, 0x22	; 34
    231c:	0e 94 2a 02 	call	0x454	; 0x454 <AddSlaveOwnSensor>
    2320:	25 e0       	ldi	r18, 0x05	; 5
    2322:	30 e0       	ldi	r19, 0x00	; 0
    2324:	40 e0       	ldi	r20, 0x00	; 0
    2326:	50 e0       	ldi	r21, 0x00	; 0
    2328:	6b ef       	ldi	r22, 0xFB	; 251
    232a:	7c e0       	ldi	r23, 0x0C	; 12
    232c:	8d e3       	ldi	r24, 0x3D	; 61
    232e:	92 e2       	ldi	r25, 0x22	; 34
    2330:	0e 94 2a 02 	call	0x454	; 0x454 <AddSlaveOwnSensor>
    2334:	21 e0       	ldi	r18, 0x01	; 1
    2336:	30 e0       	ldi	r19, 0x00	; 0
    2338:	40 e0       	ldi	r20, 0x00	; 0
    233a:	50 e0       	ldi	r21, 0x00	; 0
    233c:	61 ea       	ldi	r22, 0xA1	; 161
    233e:	7c e0       	ldi	r23, 0x0C	; 12
    2340:	82 e4       	ldi	r24, 0x42	; 66
    2342:	92 e2       	ldi	r25, 0x22	; 34
    2344:	0e 94 2a 02 	call	0x454	; 0x454 <AddSlaveOwnSensor>
    2348:	21 e0       	ldi	r18, 0x01	; 1
    234a:	30 e0       	ldi	r19, 0x00	; 0
    234c:	40 e0       	ldi	r20, 0x00	; 0
    234e:	50 e0       	ldi	r21, 0x00	; 0
    2350:	67 e4       	ldi	r22, 0x47	; 71
    2352:	7c e0       	ldi	r23, 0x0C	; 12
    2354:	87 e4       	ldi	r24, 0x47	; 71
    2356:	92 e2       	ldi	r25, 0x22	; 34
    2358:	0e 94 2a 02 	call	0x454	; 0x454 <AddSlaveOwnSensor>
    235c:	21 e0       	ldi	r18, 0x01	; 1
    235e:	30 e0       	ldi	r19, 0x00	; 0
    2360:	40 e0       	ldi	r20, 0x00	; 0
    2362:	50 e0       	ldi	r21, 0x00	; 0
    2364:	6f ed       	ldi	r22, 0xDF	; 223
    2366:	7b e0       	ldi	r23, 0x0B	; 11
    2368:	8c e4       	ldi	r24, 0x4C	; 76
    236a:	92 e2       	ldi	r25, 0x22	; 34
    236c:	0e 94 2a 02 	call	0x454	; 0x454 <AddSlaveOwnSensor>
    2370:	25 e0       	ldi	r18, 0x05	; 5
    2372:	30 e0       	ldi	r19, 0x00	; 0
    2374:	40 e0       	ldi	r20, 0x00	; 0
    2376:	50 e0       	ldi	r21, 0x00	; 0
    2378:	65 e7       	ldi	r22, 0x75	; 117
    237a:	7b e0       	ldi	r23, 0x0B	; 11
    237c:	81 e5       	ldi	r24, 0x51	; 81
    237e:	92 e2       	ldi	r25, 0x22	; 34
    2380:	0e 94 2a 02 	call	0x454	; 0x454 <AddSlaveOwnSensor>
    2384:	21 e0       	ldi	r18, 0x01	; 1
    2386:	30 e0       	ldi	r19, 0x00	; 0
    2388:	40 e0       	ldi	r20, 0x00	; 0
    238a:	50 e0       	ldi	r21, 0x00	; 0
    238c:	6d e3       	ldi	r22, 0x3D	; 61
    238e:	7b e0       	ldi	r23, 0x0B	; 11
    2390:	86 e5       	ldi	r24, 0x56	; 86
    2392:	92 e2       	ldi	r25, 0x22	; 34
    2394:	0e 94 2a 02 	call	0x454	; 0x454 <AddSlaveOwnSensor>
    2398:	2a e0       	ldi	r18, 0x0A	; 10
    239a:	30 e0       	ldi	r19, 0x00	; 0
    239c:	40 e0       	ldi	r20, 0x00	; 0
    239e:	50 e0       	ldi	r21, 0x00	; 0
    23a0:	6d ef       	ldi	r22, 0xFD	; 253
    23a2:	7a e0       	ldi	r23, 0x0A	; 10
    23a4:	8b e5       	ldi	r24, 0x5B	; 91
    23a6:	92 e2       	ldi	r25, 0x22	; 34
    23a8:	0e 94 2a 02 	call	0x454	; 0x454 <AddSlaveOwnSensor>
    23ac:	80 91 68 06 	lds	r24, 0x0668	; 0x800668 <__TEXT_REGION_LENGTH__+0x700668>
    23b0:	80 73       	andi	r24, 0x30	; 48
    23b2:	09 f0       	breq	.+2      	; 0x23b6 <InitCoreAnalog+0x450>
    23b4:	46 c0       	rjmp	.+140    	; 0x2442 <InitCoreAnalog+0x4dc>
    23b6:	21 e0       	ldi	r18, 0x01	; 1
    23b8:	30 e0       	ldi	r19, 0x00	; 0
    23ba:	49 ed       	ldi	r20, 0xD9	; 217
    23bc:	59 e0       	ldi	r21, 0x09	; 9
    23be:	6b e9       	ldi	r22, 0x9B	; 155
    23c0:	7a e0       	ldi	r23, 0x0A	; 10
    23c2:	86 e0       	ldi	r24, 0x06	; 6
    23c4:	92 e2       	ldi	r25, 0x22	; 34
    23c6:	0e 94 2a 02 	call	0x454	; 0x454 <AddSlaveOwnSensor>
    23ca:	21 e0       	ldi	r18, 0x01	; 1
    23cc:	30 e0       	ldi	r19, 0x00	; 0
    23ce:	40 e0       	ldi	r20, 0x00	; 0
    23d0:	50 e0       	ldi	r21, 0x00	; 0
    23d2:	69 e1       	ldi	r22, 0x19	; 25
    23d4:	7f e0       	ldi	r23, 0x0F	; 15
    23d6:	80 e1       	ldi	r24, 0x10	; 16
    23d8:	92 e2       	ldi	r25, 0x22	; 34
    23da:	0e 94 2a 02 	call	0x454	; 0x454 <AddSlaveOwnSensor>
    23de:	21 e0       	ldi	r18, 0x01	; 1
    23e0:	30 e0       	ldi	r19, 0x00	; 0
    23e2:	40 e0       	ldi	r20, 0x00	; 0
    23e4:	50 e0       	ldi	r21, 0x00	; 0
    23e6:	6f eb       	ldi	r22, 0xBF	; 191
    23e8:	7e e0       	ldi	r23, 0x0E	; 14
    23ea:	8a e1       	ldi	r24, 0x1A	; 26
    23ec:	92 e2       	ldi	r25, 0x22	; 34
    23ee:	0e 94 2a 02 	call	0x454	; 0x454 <AddSlaveOwnSensor>
    23f2:	21 e0       	ldi	r18, 0x01	; 1
    23f4:	30 e0       	ldi	r19, 0x00	; 0
    23f6:	40 e0       	ldi	r20, 0x00	; 0
    23f8:	50 e0       	ldi	r21, 0x00	; 0
    23fa:	61 e8       	ldi	r22, 0x81	; 129
    23fc:	7e e0       	ldi	r23, 0x0E	; 14
    23fe:	84 e2       	ldi	r24, 0x24	; 36
    2400:	92 e2       	ldi	r25, 0x22	; 34
    2402:	0e 94 2a 02 	call	0x454	; 0x454 <AddSlaveOwnSensor>
    2406:	2a e0       	ldi	r18, 0x0A	; 10
    2408:	30 e0       	ldi	r19, 0x00	; 0
    240a:	40 e0       	ldi	r20, 0x00	; 0
    240c:	50 e0       	ldi	r21, 0x00	; 0
    240e:	63 e6       	ldi	r22, 0x63	; 99
    2410:	7a e0       	ldi	r23, 0x0A	; 10
    2412:	80 e6       	ldi	r24, 0x60	; 96
    2414:	92 e2       	ldi	r25, 0x22	; 34
    2416:	0e 94 2a 02 	call	0x454	; 0x454 <AddSlaveOwnSensor>
    241a:	25 e0       	ldi	r18, 0x05	; 5
    241c:	30 e0       	ldi	r19, 0x00	; 0
    241e:	40 e0       	ldi	r20, 0x00	; 0
    2420:	50 e0       	ldi	r21, 0x00	; 0
    2422:	61 e2       	ldi	r22, 0x21	; 33
    2424:	7a e0       	ldi	r23, 0x0A	; 10
    2426:	85 e6       	ldi	r24, 0x65	; 101
    2428:	92 e2       	ldi	r25, 0x22	; 34
    242a:	0e 94 2a 02 	call	0x454	; 0x454 <AddSlaveOwnSensor>
    242e:	25 e0       	ldi	r18, 0x05	; 5
    2430:	30 e0       	ldi	r19, 0x00	; 0
    2432:	40 e0       	ldi	r20, 0x00	; 0
    2434:	50 e0       	ldi	r21, 0x00	; 0
    2436:	6f ed       	ldi	r22, 0xDF	; 223
    2438:	79 e0       	ldi	r23, 0x09	; 9
    243a:	8a e6       	ldi	r24, 0x6A	; 106
    243c:	92 e2       	ldi	r25, 0x22	; 34
    243e:	0e 94 2a 02 	call	0x454	; 0x454 <AddSlaveOwnSensor>
    2442:	80 91 68 06 	lds	r24, 0x0668	; 0x800668 <__TEXT_REGION_LENGTH__+0x700668>
    2446:	80 73       	andi	r24, 0x30	; 48
    2448:	80 31       	cpi	r24, 0x10	; 16
    244a:	29 f0       	breq	.+10     	; 0x2456 <InitCoreAnalog+0x4f0>
    244c:	80 91 68 06 	lds	r24, 0x0668	; 0x800668 <__TEXT_REGION_LENGTH__+0x700668>
    2450:	80 73       	andi	r24, 0x30	; 48
    2452:	80 32       	cpi	r24, 0x20	; 32
    2454:	69 f4       	brne	.+26     	; 0x2470 <InitCoreAnalog+0x50a>
    2456:	86 e6       	ldi	r24, 0x66	; 102
    2458:	96 ea       	ldi	r25, 0xA6	; 166
    245a:	a7 e5       	ldi	r26, 0x57	; 87
    245c:	b0 e0       	ldi	r27, 0x00	; 0
    245e:	80 93 de 28 	sts	0x28DE, r24	; 0x8028de <sCC2MinSpeed>
    2462:	90 93 df 28 	sts	0x28DF, r25	; 0x8028df <sCC2MinSpeed+0x1>
    2466:	a0 93 e0 28 	sts	0x28E0, r26	; 0x8028e0 <sCC2MinSpeed+0x2>
    246a:	b0 93 e1 28 	sts	0x28E1, r27	; 0x8028e1 <sCC2MinSpeed+0x3>
    246e:	0c c0       	rjmp	.+24     	; 0x2488 <InitCoreAnalog+0x522>
    2470:	86 e6       	ldi	r24, 0x66	; 102
    2472:	96 e6       	ldi	r25, 0x66	; 102
    2474:	aa e4       	ldi	r26, 0x4A	; 74
    2476:	b0 e0       	ldi	r27, 0x00	; 0
    2478:	80 93 de 28 	sts	0x28DE, r24	; 0x8028de <sCC2MinSpeed>
    247c:	90 93 df 28 	sts	0x28DF, r25	; 0x8028df <sCC2MinSpeed+0x1>
    2480:	a0 93 e0 28 	sts	0x28E0, r26	; 0x8028e0 <sCC2MinSpeed+0x2>
    2484:	b0 93 e1 28 	sts	0x28E1, r27	; 0x8028e1 <sCC2MinSpeed+0x3>
    2488:	df 91       	pop	r29
    248a:	cf 91       	pop	r28
    248c:	1f 91       	pop	r17
    248e:	0f 91       	pop	r16
    2490:	ff 90       	pop	r15
    2492:	ef 90       	pop	r14
    2494:	df 90       	pop	r13
    2496:	08 95       	ret

00002498 <CalibrateChannel>:
    2498:	2f 92       	push	r2
    249a:	3f 92       	push	r3
    249c:	4f 92       	push	r4
    249e:	5f 92       	push	r5
    24a0:	6f 92       	push	r6
    24a2:	7f 92       	push	r7
    24a4:	8f 92       	push	r8
    24a6:	9f 92       	push	r9
    24a8:	af 92       	push	r10
    24aa:	bf 92       	push	r11
    24ac:	cf 92       	push	r12
    24ae:	df 92       	push	r13
    24b0:	ef 92       	push	r14
    24b2:	ff 92       	push	r15
    24b4:	0f 93       	push	r16
    24b6:	1f 93       	push	r17
    24b8:	cf 93       	push	r28
    24ba:	df 93       	push	r29
    24bc:	cd b7       	in	r28, 0x3d	; 61
    24be:	de b7       	in	r29, 0x3e	; 62
    24c0:	c2 5a       	subi	r28, 0xA2	; 162
    24c2:	d1 09       	sbc	r29, r1
    24c4:	cd bf       	out	0x3d, r28	; 61
    24c6:	de bf       	out	0x3e, r29	; 62
    24c8:	28 2e       	mov	r2, r24
    24ca:	89 2e       	mov	r8, r25
    24cc:	80 e6       	ldi	r24, 0x60	; 96
    24ce:	e4 e6       	ldi	r30, 0x64	; 100
    24d0:	f0 e2       	ldi	r31, 0x20	; 32
    24d2:	de 01       	movw	r26, r28
    24d4:	11 96       	adiw	r26, 0x01	; 1
    24d6:	01 90       	ld	r0, Z+
    24d8:	0d 92       	st	X+, r0
    24da:	8a 95       	dec	r24
    24dc:	e1 f7       	brne	.-8      	; 0x24d6 <CalibrateChannel+0x3e>
    24de:	81 e0       	ldi	r24, 0x01	; 1
    24e0:	80 93 66 29 	sts	0x2966, r24	; 0x802966 <sTakeSnapshot>
    24e4:	80 91 66 29 	lds	r24, 0x2966	; 0x802966 <sTakeSnapshot>
    24e8:	81 11       	cpse	r24, r1
    24ea:	fc cf       	rjmp	.-8      	; 0x24e4 <CalibrateChannel+0x4c>
    24ec:	80 91 c9 29 	lds	r24, 0x29C9	; 0x8029c9 <sSensorDataSnapshot+0x5e>
    24f0:	90 91 ca 29 	lds	r25, 0x29CA	; 0x8029ca <sSensorDataSnapshot+0x5f>
    24f4:	a0 91 cb 29 	lds	r26, 0x29CB	; 0x8029cb <sSensorDataSnapshot+0x60>
    24f8:	b0 91 cc 29 	lds	r27, 0x29CC	; 0x8029cc <sSensorDataSnapshot+0x61>
    24fc:	85 36       	cpi	r24, 0x65	; 101
    24fe:	91 05       	cpc	r25, r1
    2500:	a1 05       	cpc	r26, r1
    2502:	b1 05       	cpc	r27, r1
    2504:	58 f0       	brcs	.+22     	; 0x251c <CalibrateChannel+0x84>
    2506:	22 2d       	mov	r18, r2
    2508:	38 2d       	mov	r19, r8
    250a:	42 e4       	ldi	r20, 0x42	; 66
    250c:	50 e0       	ldi	r21, 0x00	; 0
    250e:	61 e0       	ldi	r22, 0x01	; 1
    2510:	70 e0       	ldi	r23, 0x00	; 0
    2512:	8f e6       	ldi	r24, 0x6F	; 111
    2514:	92 e2       	ldi	r25, 0x22	; 34
    2516:	0e 94 66 3d 	call	0x7acc	; 0x7acc <fwrite>
    251a:	ae c5       	rjmp	.+2908   	; 0x3078 <CalibrateChannel+0xbe0>
    251c:	22 2d       	mov	r18, r2
    251e:	38 2d       	mov	r19, r8
    2520:	48 e1       	ldi	r20, 0x18	; 24
    2522:	50 e0       	ldi	r21, 0x00	; 0
    2524:	61 e0       	ldi	r22, 0x01	; 1
    2526:	70 e0       	ldi	r23, 0x00	; 0
    2528:	82 eb       	ldi	r24, 0xB2	; 178
    252a:	92 e2       	ldi	r25, 0x22	; 34
    252c:	0e 94 66 3d 	call	0x7acc	; 0x7acc <fwrite>
    2530:	00 e6       	ldi	r16, 0x60	; 96
    2532:	16 e0       	ldi	r17, 0x06	; 6
    2534:	0f 2e       	mov	r0, r31
    2536:	f3 ef       	ldi	r31, 0xF3	; 243
    2538:	ef 2e       	mov	r14, r31
    253a:	f2 e2       	ldi	r31, 0x22	; 34
    253c:	ff 2e       	mov	r15, r31
    253e:	f0 2d       	mov	r31, r0
    2540:	22 2d       	mov	r18, r2
    2542:	38 2d       	mov	r19, r8
    2544:	47 e2       	ldi	r20, 0x27	; 39
    2546:	50 e0       	ldi	r21, 0x00	; 0
    2548:	61 e0       	ldi	r22, 0x01	; 1
    254a:	70 e0       	ldi	r23, 0x00	; 0
    254c:	8b ec       	ldi	r24, 0xCB	; 203
    254e:	92 e2       	ldi	r25, 0x22	; 34
    2550:	0e 94 66 3d 	call	0x7acc	; 0x7acc <fwrite>
    2554:	d1 2c       	mov	r13, r1
    2556:	1f c0       	rjmp	.+62     	; 0x2596 <CalibrateChannel+0xfe>
    2558:	fc 01       	movw	r30, r24
    255a:	ee 0f       	add	r30, r30
    255c:	ff 1f       	adc	r31, r31
    255e:	e8 0f       	add	r30, r24
    2560:	f9 1f       	adc	r31, r25
    2562:	ee 0f       	add	r30, r30
    2564:	ff 1f       	adc	r31, r31
    2566:	ee 0f       	add	r30, r30
    2568:	ff 1f       	adc	r31, r31
    256a:	21 e0       	ldi	r18, 0x01	; 1
    256c:	30 e0       	ldi	r19, 0x00	; 0
    256e:	2c 0f       	add	r18, r28
    2570:	3d 1f       	adc	r19, r29
    2572:	e2 0f       	add	r30, r18
    2574:	f3 1f       	adc	r31, r19
    2576:	21 81       	ldd	r18, Z+1	; 0x01
    2578:	2f 93       	push	r18
    257a:	20 81       	ld	r18, Z
    257c:	2f 93       	push	r18
    257e:	01 96       	adiw	r24, 0x01	; 1
    2580:	9f 93       	push	r25
    2582:	8f 93       	push	r24
    2584:	ff 92       	push	r15
    2586:	ef 92       	push	r14
    2588:	8f 92       	push	r8
    258a:	2f 92       	push	r2
    258c:	0e 94 1a 3d 	call	0x7a34	; 0x7a34 <fprintf>
    2590:	d3 94       	inc	r13
    2592:	cd bf       	out	0x3d, r28	; 61
    2594:	de bf       	out	0x3e, r29	; 62
    2596:	8d 2d       	mov	r24, r13
    2598:	0d 2c       	mov	r0, r13
    259a:	00 0c       	add	r0, r0
    259c:	99 0b       	sbc	r25, r25
    259e:	d8 01       	movw	r26, r16
    25a0:	18 96       	adiw	r26, 0x08	; 8
    25a2:	2c 91       	ld	r18, X
    25a4:	18 97       	sbiw	r26, 0x08	; 8
    25a6:	18 96       	adiw	r26, 0x08	; 8
    25a8:	3c 91       	ld	r19, X
    25aa:	20 73       	andi	r18, 0x30	; 48
    25ac:	41 e0       	ldi	r20, 0x01	; 1
    25ae:	20 31       	cpi	r18, 0x10	; 16
    25b0:	09 f0       	breq	.+2      	; 0x25b4 <CalibrateChannel+0x11c>
    25b2:	40 e0       	ldi	r20, 0x00	; 0
    25b4:	41 11       	cpse	r20, r1
    25b6:	0a c0       	rjmp	.+20     	; 0x25cc <CalibrateChannel+0x134>
    25b8:	30 73       	andi	r19, 0x30	; 48
    25ba:	21 e0       	ldi	r18, 0x01	; 1
    25bc:	30 32       	cpi	r19, 0x20	; 32
    25be:	09 f0       	breq	.+2      	; 0x25c2 <CalibrateChannel+0x12a>
    25c0:	20 e0       	ldi	r18, 0x00	; 0
    25c2:	21 11       	cpse	r18, r1
    25c4:	03 c0       	rjmp	.+6      	; 0x25cc <CalibrateChannel+0x134>
    25c6:	28 e0       	ldi	r18, 0x08	; 8
    25c8:	30 e0       	ldi	r19, 0x00	; 0
    25ca:	02 c0       	rjmp	.+4      	; 0x25d0 <CalibrateChannel+0x138>
    25cc:	24 e0       	ldi	r18, 0x04	; 4
    25ce:	30 e0       	ldi	r19, 0x00	; 0
    25d0:	82 17       	cp	r24, r18
    25d2:	93 07       	cpc	r25, r19
    25d4:	0c f2       	brlt	.-126    	; 0x2558 <CalibrateChannel+0xc0>
    25d6:	22 2d       	mov	r18, r2
    25d8:	38 2d       	mov	r19, r8
    25da:	43 e0       	ldi	r20, 0x03	; 3
    25dc:	50 e0       	ldi	r21, 0x00	; 0
    25de:	61 e0       	ldi	r22, 0x01	; 1
    25e0:	70 e0       	ldi	r23, 0x00	; 0
    25e2:	8f ef       	ldi	r24, 0xFF	; 255
    25e4:	92 e2       	ldi	r25, 0x22	; 34
    25e6:	0e 94 66 3d 	call	0x7acc	; 0x7acc <fwrite>
    25ea:	02 c0       	rjmp	.+4      	; 0x25f0 <CalibrateChannel+0x158>
    25ec:	0e 94 c7 2e 	call	0x5d8e	; 0x5d8e <ReadByte_Ctrl>
    25f0:	0e 94 bc 2e 	call	0x5d78	; 0x5d78 <CanRead_Ctrl>
    25f4:	81 11       	cpse	r24, r1
    25f6:	fa cf       	rjmp	.-12     	; 0x25ec <CalibrateChannel+0x154>
    25f8:	0e 94 c7 2e 	call	0x5d8e	; 0x5d8e <ReadByte_Ctrl>
    25fc:	0f 2e       	mov	r0, r31
    25fe:	ff ec       	ldi	r31, 0xCF	; 207
    2600:	cf 2e       	mov	r12, r31
    2602:	f0 2d       	mov	r31, r0
    2604:	c8 0e       	add	r12, r24
    2606:	22 2d       	mov	r18, r2
    2608:	38 2d       	mov	r19, r8
    260a:	42 e0       	ldi	r20, 0x02	; 2
    260c:	50 e0       	ldi	r21, 0x00	; 0
    260e:	61 e0       	ldi	r22, 0x01	; 1
    2610:	70 e0       	ldi	r23, 0x00	; 0
    2612:	85 e2       	ldi	r24, 0x25	; 37
    2614:	94 e2       	ldi	r25, 0x24	; 36
    2616:	0e 94 66 3d 	call	0x7acc	; 0x7acc <fwrite>
    261a:	cd 14       	cp	r12, r13
    261c:	1c f4       	brge	.+6      	; 0x2624 <CalibrateChannel+0x18c>
    261e:	cc 20       	and	r12, r12
    2620:	0c f0       	brlt	.+2      	; 0x2624 <CalibrateChannel+0x18c>
    2622:	48 c3       	rjmp	.+1680   	; 0x2cb4 <CalibrateChannel+0x81c>
    2624:	22 2d       	mov	r18, r2
    2626:	38 2d       	mov	r19, r8
    2628:	40 e2       	ldi	r20, 0x20	; 32
    262a:	50 e0       	ldi	r21, 0x00	; 0
    262c:	61 e0       	ldi	r22, 0x01	; 1
    262e:	70 e0       	ldi	r23, 0x00	; 0
    2630:	83 e0       	ldi	r24, 0x03	; 3
    2632:	93 e2       	ldi	r25, 0x23	; 35
    2634:	0e 94 66 3d 	call	0x7acc	; 0x7acc <fwrite>
    2638:	83 cf       	rjmp	.-250    	; 0x2540 <CalibrateChannel+0xa8>
    263a:	0e 94 c7 2e 	call	0x5d8e	; 0x5d8e <ReadByte_Ctrl>
    263e:	0e 94 bc 2e 	call	0x5d78	; 0x5d78 <CanRead_Ctrl>
    2642:	81 11       	cpse	r24, r1
    2644:	fa cf       	rjmp	.-12     	; 0x263a <CalibrateChannel+0x1a2>
    2646:	c3 2c       	mov	r12, r3
    2648:	03 2c       	mov	r0, r3
    264a:	00 0c       	add	r0, r0
    264c:	dd 08       	sbc	r13, r13
    264e:	9f 92       	push	r9
    2650:	af 92       	push	r10
    2652:	c6 01       	movw	r24, r12
    2654:	01 96       	adiw	r24, 0x01	; 1
    2656:	9f 93       	push	r25
    2658:	8f 93       	push	r24
    265a:	e4 e2       	ldi	r30, 0x24	; 36
    265c:	f3 e2       	ldi	r31, 0x23	; 35
    265e:	ff 93       	push	r31
    2660:	ef 93       	push	r30
    2662:	8f 92       	push	r8
    2664:	2f 92       	push	r2
    2666:	0e 94 1a 3d 	call	0x7a34	; 0x7a34 <fprintf>
    266a:	cd bf       	out	0x3d, r28	; 61
    266c:	de bf       	out	0x3e, r29	; 62
    266e:	41 2c       	mov	r4, r1
    2670:	51 2c       	mov	r5, r1
    2672:	32 01       	movw	r6, r4
    2674:	0e 94 c7 2e 	call	0x5d8e	; 0x5d8e <ReadByte_Ctrl>
    2678:	18 2f       	mov	r17, r24
    267a:	08 2e       	mov	r0, r24
    267c:	00 0c       	add	r0, r0
    267e:	99 0b       	sbc	r25, r25
    2680:	c0 97       	sbiw	r24, 0x30	; 48
    2682:	0a 97       	sbiw	r24, 0x0a	; 10
    2684:	08 f0       	brcs	.+2      	; 0x2688 <CalibrateChannel+0x1f0>
    2686:	8a c3       	rjmp	.+1812   	; 0x2d9c <CalibrateChannel+0x904>
    2688:	62 2d       	mov	r22, r2
    268a:	78 2d       	mov	r23, r8
    268c:	81 2f       	mov	r24, r17
    268e:	01 2e       	mov	r0, r17
    2690:	00 0c       	add	r0, r0
    2692:	99 0b       	sbc	r25, r25
    2694:	0e 94 2a 3d 	call	0x7a54	; 0x7a54 <fputc>
    2698:	44 0c       	add	r4, r4
    269a:	55 1c       	adc	r5, r5
    269c:	66 1c       	adc	r6, r6
    269e:	77 1c       	adc	r7, r7
    26a0:	d3 01       	movw	r26, r6
    26a2:	c2 01       	movw	r24, r4
    26a4:	88 0f       	add	r24, r24
    26a6:	99 1f       	adc	r25, r25
    26a8:	aa 1f       	adc	r26, r26
    26aa:	bb 1f       	adc	r27, r27
    26ac:	88 0f       	add	r24, r24
    26ae:	99 1f       	adc	r25, r25
    26b0:	aa 1f       	adc	r26, r26
    26b2:	bb 1f       	adc	r27, r27
    26b4:	48 0e       	add	r4, r24
    26b6:	59 1e       	adc	r5, r25
    26b8:	6a 1e       	adc	r6, r26
    26ba:	7b 1e       	adc	r7, r27
    26bc:	81 2f       	mov	r24, r17
    26be:	11 0f       	add	r17, r17
    26c0:	99 0b       	sbc	r25, r25
    26c2:	aa 0b       	sbc	r26, r26
    26c4:	bb 0b       	sbc	r27, r27
    26c6:	48 0e       	add	r4, r24
    26c8:	59 1e       	adc	r5, r25
    26ca:	6a 1e       	adc	r6, r26
    26cc:	7b 1e       	adc	r7, r27
    26ce:	90 e3       	ldi	r25, 0x30	; 48
    26d0:	49 1a       	sub	r4, r25
    26d2:	51 08       	sbc	r5, r1
    26d4:	61 08       	sbc	r6, r1
    26d6:	71 08       	sbc	r7, r1
    26d8:	cd cf       	rjmp	.-102    	; 0x2674 <CalibrateChannel+0x1dc>
    26da:	80 91 66 29 	lds	r24, 0x2966	; 0x802966 <sTakeSnapshot>
    26de:	81 11       	cpse	r24, r1
    26e0:	fc cf       	rjmp	.-8      	; 0x26da <CalibrateChannel+0x242>
    26e2:	cd 56       	subi	r28, 0x6D	; 109
    26e4:	df 4f       	sbci	r29, 0xFF	; 255
    26e6:	a8 81       	ld	r26, Y
    26e8:	b9 81       	ldd	r27, Y+1	; 0x01
    26ea:	c3 59       	subi	r28, 0x93	; 147
    26ec:	d0 40       	sbci	r29, 0x00	; 0
    26ee:	ed 91       	ld	r30, X+
    26f0:	fc 91       	ld	r31, X
    26f2:	60 81       	ld	r22, Z
    26f4:	71 81       	ldd	r23, Z+1	; 0x01
    26f6:	82 81       	ldd	r24, Z+2	; 0x02
    26f8:	93 81       	ldd	r25, Z+3	; 0x03
    26fa:	0e 94 3e 33 	call	0x667c	; 0x667c <__floatsisf>
    26fe:	20 e0       	ldi	r18, 0x00	; 0
    2700:	30 e0       	ldi	r19, 0x00	; 0
    2702:	40 e8       	ldi	r20, 0x80	; 128
    2704:	57 e3       	ldi	r21, 0x37	; 55
    2706:	0e 94 3c 34 	call	0x6878	; 0x6878 <__mulsf3>
    270a:	2b 01       	movw	r4, r22
    270c:	3c 01       	movw	r6, r24
    270e:	cc 0c       	add	r12, r12
    2710:	dd 1c       	adc	r13, r13
    2712:	cc 0c       	add	r12, r12
    2714:	dd 1c       	adc	r13, r13
    2716:	e1 e6       	ldi	r30, 0x61	; 97
    2718:	f0 e0       	ldi	r31, 0x00	; 0
    271a:	ec 0f       	add	r30, r28
    271c:	fd 1f       	adc	r31, r29
    271e:	ec 0d       	add	r30, r12
    2720:	fd 1d       	adc	r31, r13
    2722:	60 83       	st	Z, r22
    2724:	71 83       	std	Z+1, r23	; 0x01
    2726:	82 83       	std	Z+2, r24	; 0x02
    2728:	93 83       	std	Z+3, r25	; 0x03
    272a:	c9 56       	subi	r28, 0x69	; 105
    272c:	df 4f       	sbci	r29, 0xFF	; 255
    272e:	e8 81       	ld	r30, Y
    2730:	f9 81       	ldd	r31, Y+1	; 0x01
    2732:	c7 59       	subi	r28, 0x97	; 151
    2734:	d0 40       	sbci	r29, 0x00	; 0
    2736:	c0 80       	ld	r12, Z
    2738:	d1 80       	ldd	r13, Z+1	; 0x01
    273a:	d6 01       	movw	r26, r12
    273c:	8d 91       	ld	r24, X+
    273e:	9d 91       	ld	r25, X+
    2740:	0d 90       	ld	r0, X+
    2742:	bc 91       	ld	r27, X
    2744:	a0 2d       	mov	r26, r0
    2746:	c1 57       	subi	r28, 0x71	; 113
    2748:	df 4f       	sbci	r29, 0xFF	; 255
    274a:	88 83       	st	Y, r24
    274c:	99 83       	std	Y+1, r25	; 0x01
    274e:	aa 83       	std	Y+2, r26	; 0x02
    2750:	bb 83       	std	Y+3, r27	; 0x03
    2752:	cf 58       	subi	r28, 0x8F	; 143
    2754:	d0 40       	sbci	r29, 0x00	; 0
    2756:	20 e0       	ldi	r18, 0x00	; 0
    2758:	30 e0       	ldi	r19, 0x00	; 0
    275a:	4a e7       	ldi	r20, 0x7A	; 122
    275c:	54 e4       	ldi	r21, 0x44	; 68
    275e:	c3 01       	movw	r24, r6
    2760:	b2 01       	movw	r22, r4
    2762:	0e 94 8e 32 	call	0x651c	; 0x651c <__divsf3>
    2766:	9f 93       	push	r25
    2768:	8f 93       	push	r24
    276a:	7f 93       	push	r23
    276c:	6f 93       	push	r22
    276e:	c1 57       	subi	r28, 0x71	; 113
    2770:	df 4f       	sbci	r29, 0xFF	; 255
    2772:	28 81       	ld	r18, Y
    2774:	39 81       	ldd	r19, Y+1	; 0x01
    2776:	4a 81       	ldd	r20, Y+2	; 0x02
    2778:	5b 81       	ldd	r21, Y+3	; 0x03
    277a:	cf 58       	subi	r28, 0x8F	; 143
    277c:	d0 40       	sbci	r29, 0x00	; 0
    277e:	c3 01       	movw	r24, r6
    2780:	b2 01       	movw	r22, r4
    2782:	0e 94 8e 32 	call	0x651c	; 0x651c <__divsf3>
    2786:	9f 93       	push	r25
    2788:	8f 93       	push	r24
    278a:	7f 93       	push	r23
    278c:	6f 93       	push	r22
    278e:	1f 93       	push	r17
    2790:	0f 93       	push	r16
    2792:	ff 92       	push	r15
    2794:	ef 92       	push	r14
    2796:	e9 e5       	ldi	r30, 0x59	; 89
    2798:	f3 e2       	ldi	r31, 0x23	; 35
    279a:	ff 93       	push	r31
    279c:	ef 93       	push	r30
    279e:	8f 92       	push	r8
    27a0:	2f 92       	push	r2
    27a2:	0e 94 1a 3d 	call	0x7a34	; 0x7a34 <fprintf>
    27a6:	cd bf       	out	0x3d, r28	; 61
    27a8:	de bf       	out	0x3e, r29	; 62
    27aa:	0e 94 c7 2e 	call	0x5d8e	; 0x5d8e <ReadByte_Ctrl>
    27ae:	98 2f       	mov	r25, r24
    27b0:	89 37       	cpi	r24, 0x79	; 121
    27b2:	09 f4       	brne	.+2      	; 0x27b6 <CalibrateChannel+0x31e>
    27b4:	54 c3       	rjmp	.+1704   	; 0x2e5e <CalibrateChannel+0x9c6>
    27b6:	89 35       	cpi	r24, 0x59	; 89
    27b8:	09 f4       	brne	.+2      	; 0x27bc <CalibrateChannel+0x324>
    27ba:	14 c3       	rjmp	.+1576   	; 0x2de4 <CalibrateChannel+0x94c>
    27bc:	8f 7d       	andi	r24, 0xDF	; 223
    27be:	8e 34       	cpi	r24, 0x4E	; 78
    27c0:	09 f4       	brne	.+2      	; 0x27c4 <CalibrateChannel+0x32c>
    27c2:	22 c3       	rjmp	.+1604   	; 0x2e08 <CalibrateChannel+0x970>
    27c4:	9b 31       	cpi	r25, 0x1B	; 27
    27c6:	89 f7       	brne	.-30     	; 0x27aa <CalibrateChannel+0x312>
    27c8:	38 c3       	rjmp	.+1648   	; 0x2e3a <CalibrateChannel+0x9a2>
    27ca:	33 94       	inc	r3
    27cc:	94 e0       	ldi	r25, 0x04	; 4
    27ce:	93 15       	cp	r25, r3
    27d0:	d4 f0       	brlt	.+52     	; 0x2806 <CalibrateChannel+0x36e>
    27d2:	22 2d       	mov	r18, r2
    27d4:	38 2d       	mov	r19, r8
    27d6:	47 e2       	ldi	r20, 0x27	; 39
    27d8:	50 e0       	ldi	r21, 0x00	; 0
    27da:	61 e0       	ldi	r22, 0x01	; 1
    27dc:	70 e0       	ldi	r23, 0x00	; 0
    27de:	8d ea       	ldi	r24, 0xAD	; 173
    27e0:	93 e2       	ldi	r25, 0x23	; 35
    27e2:	0e 94 66 3d 	call	0x7acc	; 0x7acc <fwrite>
    27e6:	0e 94 c7 2e 	call	0x5d8e	; 0x5d8e <ReadByte_Ctrl>
    27ea:	98 2f       	mov	r25, r24
    27ec:	89 37       	cpi	r24, 0x79	; 121
    27ee:	09 f4       	brne	.+2      	; 0x27f2 <CalibrateChannel+0x35a>
    27f0:	48 c3       	rjmp	.+1680   	; 0x2e82 <CalibrateChannel+0x9ea>
    27f2:	89 35       	cpi	r24, 0x59	; 89
    27f4:	09 f4       	brne	.+2      	; 0x27f8 <CalibrateChannel+0x360>
    27f6:	57 c3       	rjmp	.+1710   	; 0x2ea6 <CalibrateChannel+0xa0e>
    27f8:	8f 7d       	andi	r24, 0xDF	; 223
    27fa:	8e 34       	cpi	r24, 0x4E	; 78
    27fc:	09 f4       	brne	.+2      	; 0x2800 <CalibrateChannel+0x368>
    27fe:	65 c3       	rjmp	.+1738   	; 0x2eca <CalibrateChannel+0xa32>
    2800:	9b 31       	cpi	r25, 0x1B	; 27
    2802:	89 f7       	brne	.-30     	; 0x27e6 <CalibrateChannel+0x34e>
    2804:	62 c3       	rjmp	.+1732   	; 0x2eca <CalibrateChannel+0xa32>
    2806:	a1 e0       	ldi	r26, 0x01	; 1
    2808:	a3 15       	cp	r26, r3
    280a:	1c f4       	brge	.+6      	; 0x2812 <CalibrateChannel+0x37a>
    280c:	13 14       	cp	r1, r3
    280e:	64 f0       	brlt	.+24     	; 0x2828 <CalibrateChannel+0x390>
    2810:	cc c3       	rjmp	.+1944   	; 0x2faa <CalibrateChannel+0xb12>
    2812:	22 2d       	mov	r18, r2
    2814:	38 2d       	mov	r19, r8
    2816:	42 e5       	ldi	r20, 0x52	; 82
    2818:	50 e0       	ldi	r21, 0x00	; 0
    281a:	61 e0       	ldi	r22, 0x01	; 1
    281c:	70 e0       	ldi	r23, 0x00	; 0
    281e:	85 ed       	ldi	r24, 0xD5	; 213
    2820:	93 e2       	ldi	r25, 0x23	; 35
    2822:	0e 94 66 3d 	call	0x7acc	; 0x7acc <fwrite>
    2826:	28 c4       	rjmp	.+2128   	; 0x3078 <CalibrateChannel+0xbe0>
    2828:	3e 01       	movw	r6, r28
    282a:	b5 e7       	ldi	r27, 0x75	; 117
    282c:	6b 0e       	add	r6, r27
    282e:	71 1c       	adc	r7, r1
    2830:	5e 01       	movw	r10, r28
    2832:	e1 e6       	ldi	r30, 0x61	; 97
    2834:	ae 0e       	add	r10, r30
    2836:	b1 1c       	adc	r11, r1
    2838:	75 01       	movw	r14, r10
    283a:	83 01       	movw	r16, r6
    283c:	cd 56       	subi	r28, 0x6D	; 109
    283e:	df 4f       	sbci	r29, 0xFF	; 255
    2840:	18 82       	st	Y, r1
    2842:	19 82       	std	Y+1, r1	; 0x01
    2844:	1a 82       	std	Y+2, r1	; 0x02
    2846:	1b 82       	std	Y+3, r1	; 0x03
    2848:	c3 59       	subi	r28, 0x93	; 147
    284a:	d0 40       	sbci	r29, 0x00	; 0
    284c:	c1 57       	subi	r28, 0x71	; 113
    284e:	df 4f       	sbci	r29, 0xFF	; 255
    2850:	18 82       	st	Y, r1
    2852:	19 82       	std	Y+1, r1	; 0x01
    2854:	1a 82       	std	Y+2, r1	; 0x02
    2856:	1b 82       	std	Y+3, r1	; 0x03
    2858:	cf 58       	subi	r28, 0x8F	; 143
    285a:	d0 40       	sbci	r29, 0x00	; 0
    285c:	91 2c       	mov	r9, r1
    285e:	d8 01       	movw	r26, r16
    2860:	2d 91       	ld	r18, X+
    2862:	3d 91       	ld	r19, X+
    2864:	4d 91       	ld	r20, X+
    2866:	5d 91       	ld	r21, X+
    2868:	8d 01       	movw	r16, r26
    286a:	c1 57       	subi	r28, 0x71	; 113
    286c:	df 4f       	sbci	r29, 0xFF	; 255
    286e:	68 81       	ld	r22, Y
    2870:	79 81       	ldd	r23, Y+1	; 0x01
    2872:	8a 81       	ldd	r24, Y+2	; 0x02
    2874:	9b 81       	ldd	r25, Y+3	; 0x03
    2876:	cf 58       	subi	r28, 0x8F	; 143
    2878:	d0 40       	sbci	r29, 0x00	; 0
    287a:	0e 94 1d 32 	call	0x643a	; 0x643a <__addsf3>
    287e:	c1 57       	subi	r28, 0x71	; 113
    2880:	df 4f       	sbci	r29, 0xFF	; 255
    2882:	68 83       	st	Y, r22
    2884:	79 83       	std	Y+1, r23	; 0x01
    2886:	8a 83       	std	Y+2, r24	; 0x02
    2888:	9b 83       	std	Y+3, r25	; 0x03
    288a:	cf 58       	subi	r28, 0x8F	; 143
    288c:	d0 40       	sbci	r29, 0x00	; 0
    288e:	f7 01       	movw	r30, r14
    2890:	21 91       	ld	r18, Z+
    2892:	31 91       	ld	r19, Z+
    2894:	41 91       	ld	r20, Z+
    2896:	51 91       	ld	r21, Z+
    2898:	7f 01       	movw	r14, r30
    289a:	cd 56       	subi	r28, 0x6D	; 109
    289c:	df 4f       	sbci	r29, 0xFF	; 255
    289e:	68 81       	ld	r22, Y
    28a0:	79 81       	ldd	r23, Y+1	; 0x01
    28a2:	8a 81       	ldd	r24, Y+2	; 0x02
    28a4:	9b 81       	ldd	r25, Y+3	; 0x03
    28a6:	c3 59       	subi	r28, 0x93	; 147
    28a8:	d0 40       	sbci	r29, 0x00	; 0
    28aa:	0e 94 1d 32 	call	0x643a	; 0x643a <__addsf3>
    28ae:	cd 56       	subi	r28, 0x6D	; 109
    28b0:	df 4f       	sbci	r29, 0xFF	; 255
    28b2:	68 83       	st	Y, r22
    28b4:	79 83       	std	Y+1, r23	; 0x01
    28b6:	8a 83       	std	Y+2, r24	; 0x02
    28b8:	9b 83       	std	Y+3, r25	; 0x03
    28ba:	c3 59       	subi	r28, 0x93	; 147
    28bc:	d0 40       	sbci	r29, 0x00	; 0
    28be:	93 94       	inc	r9
    28c0:	39 10       	cpse	r3, r9
    28c2:	cd cf       	rjmp	.-102    	; 0x285e <CalibrateChannel+0x3c6>
    28c4:	17 c3       	rjmp	.+1582   	; 0x2ef4 <CalibrateChannel+0xa5c>
    28c6:	d3 01       	movw	r26, r6
    28c8:	6d 91       	ld	r22, X+
    28ca:	7d 91       	ld	r23, X+
    28cc:	8d 91       	ld	r24, X+
    28ce:	9d 91       	ld	r25, X+
    28d0:	3d 01       	movw	r6, r26
    28d2:	20 2f       	mov	r18, r16
    28d4:	3f 2d       	mov	r19, r15
    28d6:	4d 2d       	mov	r20, r13
    28d8:	5e 2d       	mov	r21, r14
    28da:	0e 94 1c 32 	call	0x6438	; 0x6438 <__subsf3>
    28de:	c1 57       	subi	r28, 0x71	; 113
    28e0:	df 4f       	sbci	r29, 0xFF	; 255
    28e2:	68 83       	st	Y, r22
    28e4:	79 83       	std	Y+1, r23	; 0x01
    28e6:	8a 83       	std	Y+2, r24	; 0x02
    28e8:	9b 83       	std	Y+3, r25	; 0x03
    28ea:	cf 58       	subi	r28, 0x8F	; 143
    28ec:	d0 40       	sbci	r29, 0x00	; 0
    28ee:	9b 01       	movw	r18, r22
    28f0:	ac 01       	movw	r20, r24
    28f2:	0e 94 3c 34 	call	0x6878	; 0x6878 <__mulsf3>
    28f6:	9b 01       	movw	r18, r22
    28f8:	ac 01       	movw	r20, r24
    28fa:	cd 56       	subi	r28, 0x6D	; 109
    28fc:	df 4f       	sbci	r29, 0xFF	; 255
    28fe:	68 81       	ld	r22, Y
    2900:	79 81       	ldd	r23, Y+1	; 0x01
    2902:	8a 81       	ldd	r24, Y+2	; 0x02
    2904:	9b 81       	ldd	r25, Y+3	; 0x03
    2906:	c3 59       	subi	r28, 0x93	; 147
    2908:	d0 40       	sbci	r29, 0x00	; 0
    290a:	0e 94 1d 32 	call	0x643a	; 0x643a <__addsf3>
    290e:	cd 56       	subi	r28, 0x6D	; 109
    2910:	df 4f       	sbci	r29, 0xFF	; 255
    2912:	68 83       	st	Y, r22
    2914:	79 83       	std	Y+1, r23	; 0x01
    2916:	8a 83       	std	Y+2, r24	; 0x02
    2918:	9b 83       	std	Y+3, r25	; 0x03
    291a:	c3 59       	subi	r28, 0x93	; 147
    291c:	d0 40       	sbci	r29, 0x00	; 0
    291e:	f5 01       	movw	r30, r10
    2920:	61 91       	ld	r22, Z+
    2922:	71 91       	ld	r23, Z+
    2924:	81 91       	ld	r24, Z+
    2926:	91 91       	ld	r25, Z+
    2928:	5f 01       	movw	r10, r30
    292a:	c1 56       	subi	r28, 0x61	; 97
    292c:	df 4f       	sbci	r29, 0xFF	; 255
    292e:	28 81       	ld	r18, Y
    2930:	cf 59       	subi	r28, 0x9F	; 159
    2932:	d0 40       	sbci	r29, 0x00	; 0
    2934:	39 2d       	mov	r19, r9
    2936:	44 2d       	mov	r20, r4
    2938:	55 2d       	mov	r21, r5
    293a:	0e 94 1c 32 	call	0x6438	; 0x6438 <__subsf3>
    293e:	c1 57       	subi	r28, 0x71	; 113
    2940:	df 4f       	sbci	r29, 0xFF	; 255
    2942:	28 81       	ld	r18, Y
    2944:	39 81       	ldd	r19, Y+1	; 0x01
    2946:	4a 81       	ldd	r20, Y+2	; 0x02
    2948:	5b 81       	ldd	r21, Y+3	; 0x03
    294a:	cf 58       	subi	r28, 0x8F	; 143
    294c:	d0 40       	sbci	r29, 0x00	; 0
    294e:	0e 94 3c 34 	call	0x6878	; 0x6878 <__mulsf3>
    2952:	9b 01       	movw	r18, r22
    2954:	ac 01       	movw	r20, r24
    2956:	c9 56       	subi	r28, 0x69	; 105
    2958:	df 4f       	sbci	r29, 0xFF	; 255
    295a:	68 81       	ld	r22, Y
    295c:	79 81       	ldd	r23, Y+1	; 0x01
    295e:	8a 81       	ldd	r24, Y+2	; 0x02
    2960:	9b 81       	ldd	r25, Y+3	; 0x03
    2962:	c7 59       	subi	r28, 0x97	; 151
    2964:	d0 40       	sbci	r29, 0x00	; 0
    2966:	0e 94 1d 32 	call	0x643a	; 0x643a <__addsf3>
    296a:	c9 56       	subi	r28, 0x69	; 105
    296c:	df 4f       	sbci	r29, 0xFF	; 255
    296e:	68 83       	st	Y, r22
    2970:	79 83       	std	Y+1, r23	; 0x01
    2972:	8a 83       	std	Y+2, r24	; 0x02
    2974:	9b 83       	std	Y+3, r25	; 0x03
    2976:	c7 59       	subi	r28, 0x97	; 151
    2978:	d0 40       	sbci	r29, 0x00	; 0
    297a:	1f 5f       	subi	r17, 0xFF	; 255
    297c:	31 12       	cpse	r3, r17
    297e:	a3 cf       	rjmp	.-186    	; 0x28c6 <CalibrateChannel+0x42e>
    2980:	cf 55       	subi	r28, 0x5F	; 95
    2982:	df 4f       	sbci	r29, 0xFF	; 255
    2984:	c8 80       	ld	r12, Y
    2986:	d9 80       	ldd	r13, Y+1	; 0x01
    2988:	c1 5a       	subi	r28, 0xA1	; 161
    298a:	d0 40       	sbci	r29, 0x00	; 0
    298c:	cd 56       	subi	r28, 0x6D	; 109
    298e:	df 4f       	sbci	r29, 0xFF	; 255
    2990:	28 81       	ld	r18, Y
    2992:	39 81       	ldd	r19, Y+1	; 0x01
    2994:	4a 81       	ldd	r20, Y+2	; 0x02
    2996:	5b 81       	ldd	r21, Y+3	; 0x03
    2998:	c3 59       	subi	r28, 0x93	; 147
    299a:	d0 40       	sbci	r29, 0x00	; 0
    299c:	c9 56       	subi	r28, 0x69	; 105
    299e:	df 4f       	sbci	r29, 0xFF	; 255
    29a0:	68 81       	ld	r22, Y
    29a2:	79 81       	ldd	r23, Y+1	; 0x01
    29a4:	8a 81       	ldd	r24, Y+2	; 0x02
    29a6:	9b 81       	ldd	r25, Y+3	; 0x03
    29a8:	c7 59       	subi	r28, 0x97	; 151
    29aa:	d0 40       	sbci	r29, 0x00	; 0
    29ac:	0e 94 8e 32 	call	0x651c	; 0x651c <__divsf3>
    29b0:	c1 57       	subi	r28, 0x71	; 113
    29b2:	df 4f       	sbci	r29, 0xFF	; 255
    29b4:	68 83       	st	Y, r22
    29b6:	79 83       	std	Y+1, r23	; 0x01
    29b8:	8a 83       	std	Y+2, r24	; 0x02
    29ba:	9b 83       	std	Y+3, r25	; 0x03
    29bc:	cf 58       	subi	r28, 0x8F	; 143
    29be:	d0 40       	sbci	r29, 0x00	; 0
    29c0:	20 2f       	mov	r18, r16
    29c2:	3f 2d       	mov	r19, r15
    29c4:	c0 56       	subi	r28, 0x60	; 96
    29c6:	df 4f       	sbci	r29, 0xFF	; 255
    29c8:	48 81       	ld	r20, Y
    29ca:	c0 5a       	subi	r28, 0xA0	; 160
    29cc:	d0 40       	sbci	r29, 0x00	; 0
    29ce:	5e 2d       	mov	r21, r14
    29d0:	0e 94 3c 34 	call	0x6878	; 0x6878 <__mulsf3>
    29d4:	9b 01       	movw	r18, r22
    29d6:	ac 01       	movw	r20, r24
    29d8:	c1 56       	subi	r28, 0x61	; 97
    29da:	df 4f       	sbci	r29, 0xFF	; 255
    29dc:	68 81       	ld	r22, Y
    29de:	cf 59       	subi	r28, 0x9F	; 159
    29e0:	d0 40       	sbci	r29, 0x00	; 0
    29e2:	79 2d       	mov	r23, r9
    29e4:	84 2d       	mov	r24, r4
    29e6:	95 2d       	mov	r25, r5
    29e8:	0e 94 1c 32 	call	0x6438	; 0x6438 <__subsf3>
    29ec:	cd 56       	subi	r28, 0x6D	; 109
    29ee:	df 4f       	sbci	r29, 0xFF	; 255
    29f0:	68 83       	st	Y, r22
    29f2:	79 83       	std	Y+1, r23	; 0x01
    29f4:	8a 83       	std	Y+2, r24	; 0x02
    29f6:	9b 83       	std	Y+3, r25	; 0x03
    29f8:	c3 59       	subi	r28, 0x93	; 147
    29fa:	d0 40       	sbci	r29, 0x00	; 0
    29fc:	02 c0       	rjmp	.+4      	; 0x2a02 <CalibrateChannel+0x56a>
    29fe:	0e 94 c7 2e 	call	0x5d8e	; 0x5d8e <ReadByte_Ctrl>
    2a02:	0e 94 bc 2e 	call	0x5d78	; 0x5d78 <CanRead_Ctrl>
    2a06:	81 11       	cpse	r24, r1
    2a08:	fa cf       	rjmp	.-12     	; 0x29fe <CalibrateChannel+0x566>
    2a0a:	c2 56       	subi	r28, 0x62	; 98
    2a0c:	df 4f       	sbci	r29, 0xFF	; 255
    2a0e:	f8 81       	ld	r31, Y
    2a10:	ce 59       	subi	r28, 0x9E	; 158
    2a12:	d0 40       	sbci	r29, 0x00	; 0
    2a14:	ff 93       	push	r31
    2a16:	c3 56       	subi	r28, 0x63	; 99
    2a18:	df 4f       	sbci	r29, 0xFF	; 255
    2a1a:	28 81       	ld	r18, Y
    2a1c:	cd 59       	subi	r28, 0x9D	; 157
    2a1e:	d0 40       	sbci	r29, 0x00	; 0
    2a20:	2f 93       	push	r18
    2a22:	88 e2       	ldi	r24, 0x28	; 40
    2a24:	94 e2       	ldi	r25, 0x24	; 36
    2a26:	9f 93       	push	r25
    2a28:	8f 93       	push	r24
    2a2a:	8f 92       	push	r8
    2a2c:	2f 92       	push	r2
    2a2e:	0e 94 1a 3d 	call	0x7a34	; 0x7a34 <fprintf>
    2a32:	d6 01       	movw	r26, r12
    2a34:	4d 90       	ld	r4, X+
    2a36:	5d 90       	ld	r5, X+
    2a38:	6d 90       	ld	r6, X+
    2a3a:	7c 90       	ld	r7, X
    2a3c:	c5 56       	subi	r28, 0x65	; 101
    2a3e:	df 4f       	sbci	r29, 0xFF	; 255
    2a40:	e8 81       	ld	r30, Y
    2a42:	f9 81       	ldd	r31, Y+1	; 0x01
    2a44:	cb 59       	subi	r28, 0x9B	; 155
    2a46:	d0 40       	sbci	r29, 0x00	; 0
    2a48:	ee 0f       	add	r30, r30
    2a4a:	ff 1f       	adc	r31, r31
    2a4c:	c5 56       	subi	r28, 0x65	; 101
    2a4e:	df 4f       	sbci	r29, 0xFF	; 255
    2a50:	28 81       	ld	r18, Y
    2a52:	39 81       	ldd	r19, Y+1	; 0x01
    2a54:	cb 59       	subi	r28, 0x9B	; 155
    2a56:	d0 40       	sbci	r29, 0x00	; 0
    2a58:	e2 0f       	add	r30, r18
    2a5a:	f3 1f       	adc	r31, r19
    2a5c:	ee 0f       	add	r30, r30
    2a5e:	ff 1f       	adc	r31, r31
    2a60:	ee 0f       	add	r30, r30
    2a62:	ff 1f       	adc	r31, r31
    2a64:	ec 0f       	add	r30, r28
    2a66:	fd 1f       	adc	r31, r29
    2a68:	07 81       	ldd	r16, Z+7	; 0x07
    2a6a:	10 85       	ldd	r17, Z+8	; 0x08
    2a6c:	d8 01       	movw	r26, r16
    2a6e:	ad 90       	ld	r10, X+
    2a70:	bc 90       	ld	r11, X
    2a72:	11 97       	sbiw	r26, 0x01	; 1
    2a74:	ed 90       	ld	r14, X+
    2a76:	fc 90       	ld	r15, X
    2a78:	cd 56       	subi	r28, 0x6D	; 109
    2a7a:	df 4f       	sbci	r29, 0xFF	; 255
    2a7c:	68 81       	ld	r22, Y
    2a7e:	79 81       	ldd	r23, Y+1	; 0x01
    2a80:	8a 81       	ldd	r24, Y+2	; 0x02
    2a82:	9b 81       	ldd	r25, Y+3	; 0x03
    2a84:	c3 59       	subi	r28, 0x93	; 147
    2a86:	d0 40       	sbci	r29, 0x00	; 0
    2a88:	0e 94 a9 34 	call	0x6952	; 0x6952 <round>
    2a8c:	cd 56       	subi	r28, 0x6D	; 109
    2a8e:	df 4f       	sbci	r29, 0xFF	; 255
    2a90:	68 83       	st	Y, r22
    2a92:	79 83       	std	Y+1, r23	; 0x01
    2a94:	8a 83       	std	Y+2, r24	; 0x02
    2a96:	9b 83       	std	Y+3, r25	; 0x03
    2a98:	c3 59       	subi	r28, 0x93	; 147
    2a9a:	d0 40       	sbci	r29, 0x00	; 0
    2a9c:	7f 92       	push	r7
    2a9e:	6f 92       	push	r6
    2aa0:	5f 92       	push	r5
    2aa2:	4f 92       	push	r4
    2aa4:	ce 56       	subi	r28, 0x6E	; 110
    2aa6:	df 4f       	sbci	r29, 0xFF	; 255
    2aa8:	b8 81       	ld	r27, Y
    2aaa:	c2 59       	subi	r28, 0x92	; 146
    2aac:	d0 40       	sbci	r29, 0x00	; 0
    2aae:	bf 93       	push	r27
    2ab0:	cf 56       	subi	r28, 0x6F	; 111
    2ab2:	df 4f       	sbci	r29, 0xFF	; 255
    2ab4:	e8 81       	ld	r30, Y
    2ab6:	c1 59       	subi	r28, 0x91	; 145
    2ab8:	d0 40       	sbci	r29, 0x00	; 0
    2aba:	ef 93       	push	r30
    2abc:	c0 57       	subi	r28, 0x70	; 112
    2abe:	df 4f       	sbci	r29, 0xFF	; 255
    2ac0:	f8 81       	ld	r31, Y
    2ac2:	c0 59       	subi	r28, 0x90	; 144
    2ac4:	d0 40       	sbci	r29, 0x00	; 0
    2ac6:	ff 93       	push	r31
    2ac8:	c1 57       	subi	r28, 0x71	; 113
    2aca:	df 4f       	sbci	r29, 0xFF	; 255
    2acc:	28 81       	ld	r18, Y
    2ace:	cf 58       	subi	r28, 0x8F	; 143
    2ad0:	d0 40       	sbci	r29, 0x00	; 0
    2ad2:	2f 93       	push	r18
    2ad4:	bf 92       	push	r11
    2ad6:	af 92       	push	r10
    2ad8:	b7 01       	movw	r22, r14
    2ada:	ff 0c       	add	r15, r15
    2adc:	88 0b       	sbc	r24, r24
    2ade:	99 0b       	sbc	r25, r25
    2ae0:	0e 94 3e 33 	call	0x667c	; 0x667c <__floatsisf>
    2ae4:	cd 56       	subi	r28, 0x6D	; 109
    2ae6:	df 4f       	sbci	r29, 0xFF	; 255
    2ae8:	28 81       	ld	r18, Y
    2aea:	39 81       	ldd	r19, Y+1	; 0x01
    2aec:	4a 81       	ldd	r20, Y+2	; 0x02
    2aee:	5b 81       	ldd	r21, Y+3	; 0x03
    2af0:	c3 59       	subi	r28, 0x93	; 147
    2af2:	d0 40       	sbci	r29, 0x00	; 0
    2af4:	0e 94 1d 32 	call	0x643a	; 0x643a <__addsf3>
    2af8:	9f 93       	push	r25
    2afa:	8f 93       	push	r24
    2afc:	7f 93       	push	r23
    2afe:	6f 93       	push	r22
    2b00:	8c e4       	ldi	r24, 0x4C	; 76
    2b02:	94 e2       	ldi	r25, 0x24	; 36
    2b04:	9f 93       	push	r25
    2b06:	8f 93       	push	r24
    2b08:	8f 92       	push	r8
    2b0a:	2f 92       	push	r2
    2b0c:	0e 94 1a 3d 	call	0x7a34	; 0x7a34 <fprintf>
    2b10:	cd bf       	out	0x3d, r28	; 61
    2b12:	de bf       	out	0x3e, r29	; 62
    2b14:	0e 94 c7 2e 	call	0x5d8e	; 0x5d8e <ReadByte_Ctrl>
    2b18:	98 2f       	mov	r25, r24
    2b1a:	89 37       	cpi	r24, 0x79	; 121
    2b1c:	09 f4       	brne	.+2      	; 0x2b20 <CalibrateChannel+0x688>
    2b1e:	74 c2       	rjmp	.+1256   	; 0x3008 <CalibrateChannel+0xb70>
    2b20:	89 35       	cpi	r24, 0x59	; 89
    2b22:	09 f4       	brne	.+2      	; 0x2b26 <CalibrateChannel+0x68e>
    2b24:	83 c2       	rjmp	.+1286   	; 0x302c <CalibrateChannel+0xb94>
    2b26:	8f 7d       	andi	r24, 0xDF	; 223
    2b28:	8e 34       	cpi	r24, 0x4E	; 78
    2b2a:	09 f4       	brne	.+2      	; 0x2b2e <CalibrateChannel+0x696>
    2b2c:	91 c2       	rjmp	.+1314   	; 0x3050 <CalibrateChannel+0xbb8>
    2b2e:	9b 31       	cpi	r25, 0x1B	; 27
    2b30:	89 f7       	brne	.-30     	; 0x2b14 <CalibrateChannel+0x67c>
    2b32:	8e c2       	rjmp	.+1308   	; 0x3050 <CalibrateChannel+0xbb8>
    2b34:	d8 01       	movw	r26, r16
    2b36:	6d 91       	ld	r22, X+
    2b38:	7c 91       	ld	r23, X
    2b3a:	07 2e       	mov	r0, r23
    2b3c:	00 0c       	add	r0, r0
    2b3e:	88 0b       	sbc	r24, r24
    2b40:	99 0b       	sbc	r25, r25
    2b42:	0e 94 3e 33 	call	0x667c	; 0x667c <__floatsisf>
    2b46:	cd 56       	subi	r28, 0x6D	; 109
    2b48:	df 4f       	sbci	r29, 0xFF	; 255
    2b4a:	28 81       	ld	r18, Y
    2b4c:	39 81       	ldd	r19, Y+1	; 0x01
    2b4e:	4a 81       	ldd	r20, Y+2	; 0x02
    2b50:	5b 81       	ldd	r21, Y+3	; 0x03
    2b52:	c3 59       	subi	r28, 0x93	; 147
    2b54:	d0 40       	sbci	r29, 0x00	; 0
    2b56:	0e 94 1d 32 	call	0x643a	; 0x643a <__addsf3>
    2b5a:	0e 94 00 33 	call	0x6600	; 0x6600 <__fixsfsi>
    2b5e:	f8 01       	movw	r30, r16
    2b60:	60 83       	st	Z, r22
    2b62:	71 83       	std	Z+1, r23	; 0x01
    2b64:	c1 57       	subi	r28, 0x71	; 113
    2b66:	df 4f       	sbci	r29, 0xFF	; 255
    2b68:	88 81       	ld	r24, Y
    2b6a:	99 81       	ldd	r25, Y+1	; 0x01
    2b6c:	aa 81       	ldd	r26, Y+2	; 0x02
    2b6e:	bb 81       	ldd	r27, Y+3	; 0x03
    2b70:	cf 58       	subi	r28, 0x8F	; 143
    2b72:	d0 40       	sbci	r29, 0x00	; 0
    2b74:	f6 01       	movw	r30, r12
    2b76:	80 83       	st	Z, r24
    2b78:	91 83       	std	Z+1, r25	; 0x01
    2b7a:	a2 83       	std	Z+2, r26	; 0x02
    2b7c:	b3 83       	std	Z+3, r27	; 0x03
    2b7e:	c5 56       	subi	r28, 0x65	; 101
    2b80:	df 4f       	sbci	r29, 0xFF	; 255
    2b82:	e8 80       	ld	r14, Y
    2b84:	f9 80       	ldd	r15, Y+1	; 0x01
    2b86:	cb 59       	subi	r28, 0x9B	; 155
    2b88:	d0 40       	sbci	r29, 0x00	; 0
    2b8a:	ee 0c       	add	r14, r14
    2b8c:	ff 1c       	adc	r15, r15
    2b8e:	c5 56       	subi	r28, 0x65	; 101
    2b90:	df 4f       	sbci	r29, 0xFF	; 255
    2b92:	e8 81       	ld	r30, Y
    2b94:	f9 81       	ldd	r31, Y+1	; 0x01
    2b96:	cb 59       	subi	r28, 0x9B	; 155
    2b98:	d0 40       	sbci	r29, 0x00	; 0
    2b9a:	ee 0d       	add	r30, r14
    2b9c:	ff 1d       	adc	r31, r15
    2b9e:	ee 0f       	add	r30, r30
    2ba0:	ff 1f       	adc	r31, r31
    2ba2:	ee 0f       	add	r30, r30
    2ba4:	ff 1f       	adc	r31, r31
    2ba6:	21 e0       	ldi	r18, 0x01	; 1
    2ba8:	30 e0       	ldi	r19, 0x00	; 0
    2baa:	2c 0f       	add	r18, r28
    2bac:	3d 1f       	adc	r19, r29
    2bae:	e2 0f       	add	r30, r18
    2bb0:	f3 1f       	adc	r31, r19
    2bb2:	a2 84       	ldd	r10, Z+10	; 0x0a
    2bb4:	b3 84       	ldd	r11, Z+11	; 0x0b
    2bb6:	42 e0       	ldi	r20, 0x02	; 2
    2bb8:	50 e0       	ldi	r21, 0x00	; 0
    2bba:	b5 01       	movw	r22, r10
    2bbc:	c8 01       	movw	r24, r16
    2bbe:	0e 94 94 31 	call	0x6328	; 0x6328 <UpdateEEPROM>
    2bc2:	c5 56       	subi	r28, 0x65	; 101
    2bc4:	df 4f       	sbci	r29, 0xFF	; 255
    2bc6:	e8 81       	ld	r30, Y
    2bc8:	f9 81       	ldd	r31, Y+1	; 0x01
    2bca:	cb 59       	subi	r28, 0x9B	; 155
    2bcc:	d0 40       	sbci	r29, 0x00	; 0
    2bce:	ee 0d       	add	r30, r14
    2bd0:	ff 1d       	adc	r31, r15
    2bd2:	ee 0f       	add	r30, r30
    2bd4:	ff 1f       	adc	r31, r31
    2bd6:	ee 0f       	add	r30, r30
    2bd8:	ff 1f       	adc	r31, r31
    2bda:	81 e0       	ldi	r24, 0x01	; 1
    2bdc:	90 e0       	ldi	r25, 0x00	; 0
    2bde:	8c 0f       	add	r24, r28
    2be0:	9d 1f       	adc	r25, r29
    2be2:	e8 0f       	add	r30, r24
    2be4:	f9 1f       	adc	r31, r25
    2be6:	e0 84       	ldd	r14, Z+8	; 0x08
    2be8:	f1 84       	ldd	r15, Z+9	; 0x09
    2bea:	44 e0       	ldi	r20, 0x04	; 4
    2bec:	50 e0       	ldi	r21, 0x00	; 0
    2bee:	b7 01       	movw	r22, r14
    2bf0:	c6 01       	movw	r24, r12
    2bf2:	0e 94 94 31 	call	0x6328	; 0x6328 <UpdateEEPROM>
    2bf6:	f6 01       	movw	r30, r12
    2bf8:	80 81       	ld	r24, Z
    2bfa:	91 81       	ldd	r25, Z+1	; 0x01
    2bfc:	a2 81       	ldd	r26, Z+2	; 0x02
    2bfe:	b3 81       	ldd	r27, Z+3	; 0x03
    2c00:	f8 01       	movw	r30, r16
    2c02:	20 81       	ld	r18, Z
    2c04:	31 81       	ldd	r19, Z+1	; 0x01
    2c06:	bf 93       	push	r27
    2c08:	af 93       	push	r26
    2c0a:	9f 93       	push	r25
    2c0c:	8f 93       	push	r24
    2c0e:	3f 93       	push	r19
    2c10:	2f 93       	push	r18
    2c12:	83 e9       	ldi	r24, 0x93	; 147
    2c14:	94 e2       	ldi	r25, 0x24	; 36
    2c16:	9f 93       	push	r25
    2c18:	8f 93       	push	r24
    2c1a:	8f 92       	push	r8
    2c1c:	2f 92       	push	r2
    2c1e:	0e 94 1a 3d 	call	0x7a34	; 0x7a34 <fprintf>
    2c22:	42 e0       	ldi	r20, 0x02	; 2
    2c24:	50 e0       	ldi	r21, 0x00	; 0
    2c26:	b5 01       	movw	r22, r10
    2c28:	ce 01       	movw	r24, r28
    2c2a:	87 57       	subi	r24, 0x77	; 119
    2c2c:	9f 4f       	sbci	r25, 0xFF	; 255
    2c2e:	0e 94 31 31 	call	0x6262	; 0x6262 <TryReadEEPROM>
    2c32:	44 e0       	ldi	r20, 0x04	; 4
    2c34:	50 e0       	ldi	r21, 0x00	; 0
    2c36:	b7 01       	movw	r22, r14
    2c38:	ce 01       	movw	r24, r28
    2c3a:	85 57       	subi	r24, 0x75	; 117
    2c3c:	9f 4f       	sbci	r25, 0xFF	; 255
    2c3e:	0e 94 31 31 	call	0x6262	; 0x6262 <TryReadEEPROM>
    2c42:	c2 57       	subi	r28, 0x72	; 114
    2c44:	df 4f       	sbci	r29, 0xFF	; 255
    2c46:	88 81       	ld	r24, Y
    2c48:	ce 58       	subi	r28, 0x8E	; 142
    2c4a:	d0 40       	sbci	r29, 0x00	; 0
    2c4c:	8f 93       	push	r24
    2c4e:	c3 57       	subi	r28, 0x73	; 115
    2c50:	df 4f       	sbci	r29, 0xFF	; 255
    2c52:	88 81       	ld	r24, Y
    2c54:	cd 58       	subi	r28, 0x8D	; 141
    2c56:	d0 40       	sbci	r29, 0x00	; 0
    2c58:	8f 93       	push	r24
    2c5a:	c4 57       	subi	r28, 0x74	; 116
    2c5c:	df 4f       	sbci	r29, 0xFF	; 255
    2c5e:	88 81       	ld	r24, Y
    2c60:	cc 58       	subi	r28, 0x8C	; 140
    2c62:	d0 40       	sbci	r29, 0x00	; 0
    2c64:	8f 93       	push	r24
    2c66:	c5 57       	subi	r28, 0x75	; 117
    2c68:	df 4f       	sbci	r29, 0xFF	; 255
    2c6a:	88 81       	ld	r24, Y
    2c6c:	cb 58       	subi	r28, 0x8B	; 139
    2c6e:	d0 40       	sbci	r29, 0x00	; 0
    2c70:	8f 93       	push	r24
    2c72:	c6 57       	subi	r28, 0x76	; 118
    2c74:	df 4f       	sbci	r29, 0xFF	; 255
    2c76:	88 81       	ld	r24, Y
    2c78:	ca 58       	subi	r28, 0x8A	; 138
    2c7a:	d0 40       	sbci	r29, 0x00	; 0
    2c7c:	8f 93       	push	r24
    2c7e:	c7 57       	subi	r28, 0x77	; 119
    2c80:	df 4f       	sbci	r29, 0xFF	; 255
    2c82:	88 81       	ld	r24, Y
    2c84:	c9 58       	subi	r28, 0x89	; 137
    2c86:	d0 40       	sbci	r29, 0x00	; 0
    2c88:	8f 93       	push	r24
    2c8a:	89 eb       	ldi	r24, 0xB9	; 185
    2c8c:	94 e2       	ldi	r25, 0x24	; 36
    2c8e:	9f 93       	push	r25
    2c90:	8f 93       	push	r24
    2c92:	8f 92       	push	r8
    2c94:	2f 92       	push	r2
    2c96:	0e 94 1a 3d 	call	0x7a34	; 0x7a34 <fprintf>
    2c9a:	22 2d       	mov	r18, r2
    2c9c:	38 2d       	mov	r19, r8
    2c9e:	4c e2       	ldi	r20, 0x2C	; 44
    2ca0:	50 e0       	ldi	r21, 0x00	; 0
    2ca2:	61 e0       	ldi	r22, 0x01	; 1
    2ca4:	70 e0       	ldi	r23, 0x00	; 0
    2ca6:	8f ed       	ldi	r24, 0xDF	; 223
    2ca8:	94 e2       	ldi	r25, 0x24	; 36
    2caa:	0e 94 66 3d 	call	0x7acc	; 0x7acc <fwrite>
    2cae:	cd bf       	out	0x3d, r28	; 61
    2cb0:	de bf       	out	0x3e, r29	; 62
    2cb2:	e2 c1       	rjmp	.+964    	; 0x3078 <CalibrateChannel+0xbe0>
    2cb4:	8c 2d       	mov	r24, r12
    2cb6:	0c 2c       	mov	r0, r12
    2cb8:	00 0c       	add	r0, r0
    2cba:	99 0b       	sbc	r25, r25
    2cbc:	c5 56       	subi	r28, 0x65	; 101
    2cbe:	df 4f       	sbci	r29, 0xFF	; 255
    2cc0:	88 83       	st	Y, r24
    2cc2:	99 83       	std	Y+1, r25	; 0x01
    2cc4:	cb 59       	subi	r28, 0x9B	; 155
    2cc6:	d0 40       	sbci	r29, 0x00	; 0
    2cc8:	fc 01       	movw	r30, r24
    2cca:	ee 0f       	add	r30, r30
    2ccc:	ff 1f       	adc	r31, r31
    2cce:	e8 0f       	add	r30, r24
    2cd0:	f9 1f       	adc	r31, r25
    2cd2:	ee 0f       	add	r30, r30
    2cd4:	ff 1f       	adc	r31, r31
    2cd6:	ee 0f       	add	r30, r30
    2cd8:	ff 1f       	adc	r31, r31
    2cda:	a1 e0       	ldi	r26, 0x01	; 1
    2cdc:	b0 e0       	ldi	r27, 0x00	; 0
    2cde:	ac 0f       	add	r26, r28
    2ce0:	bd 1f       	adc	r27, r29
    2ce2:	ea 0f       	add	r30, r26
    2ce4:	fb 1f       	adc	r31, r27
    2ce6:	b0 81       	ld	r27, Z
    2ce8:	c3 56       	subi	r28, 0x63	; 99
    2cea:	df 4f       	sbci	r29, 0xFF	; 255
    2cec:	b8 83       	st	Y, r27
    2cee:	cd 59       	subi	r28, 0x9D	; 157
    2cf0:	d0 40       	sbci	r29, 0x00	; 0
    2cf2:	21 81       	ldd	r18, Z+1	; 0x01
    2cf4:	c2 56       	subi	r28, 0x62	; 98
    2cf6:	df 4f       	sbci	r29, 0xFF	; 255
    2cf8:	28 83       	st	Y, r18
    2cfa:	ce 59       	subi	r28, 0x9E	; 158
    2cfc:	d0 40       	sbci	r29, 0x00	; 0
    2cfe:	2f 93       	push	r18
    2d00:	bf 93       	push	r27
    2d02:	8c e0       	ldi	r24, 0x0C	; 12
    2d04:	95 e2       	ldi	r25, 0x25	; 37
    2d06:	9f 93       	push	r25
    2d08:	8f 93       	push	r24
    2d0a:	8f 92       	push	r8
    2d0c:	2f 92       	push	r2
    2d0e:	0e 94 1a 3d 	call	0x7a34	; 0x7a34 <fprintf>
    2d12:	1f 92       	push	r1
    2d14:	85 e0       	ldi	r24, 0x05	; 5
    2d16:	8f 93       	push	r24
    2d18:	85 e2       	ldi	r24, 0x25	; 37
    2d1a:	95 e2       	ldi	r25, 0x25	; 37
    2d1c:	9f 93       	push	r25
    2d1e:	8f 93       	push	r24
    2d20:	8f 92       	push	r8
    2d22:	2f 92       	push	r2
    2d24:	0e 94 1a 3d 	call	0x7a34	; 0x7a34 <fprintf>
    2d28:	cd bf       	out	0x3d, r28	; 61
    2d2a:	de bf       	out	0x3e, r29	; 62
    2d2c:	c0 fe       	sbrs	r12, 0
    2d2e:	03 c0       	rjmp	.+6      	; 0x2d36 <CalibrateChannel+0x89e>
    2d30:	83 e5       	ldi	r24, 0x53	; 83
    2d32:	95 e2       	ldi	r25, 0x25	; 37
    2d34:	02 c0       	rjmp	.+4      	; 0x2d3a <CalibrateChannel+0x8a2>
    2d36:	86 e5       	ldi	r24, 0x56	; 86
    2d38:	95 e2       	ldi	r25, 0x25	; 37
    2d3a:	a8 2e       	mov	r10, r24
    2d3c:	99 2e       	mov	r9, r25
    2d3e:	31 2c       	mov	r3, r1
    2d40:	bb 24       	eor	r11, r11
    2d42:	b3 94       	inc	r11
    2d44:	c5 56       	subi	r28, 0x65	; 101
    2d46:	df 4f       	sbci	r29, 0xFF	; 255
    2d48:	88 81       	ld	r24, Y
    2d4a:	99 81       	ldd	r25, Y+1	; 0x01
    2d4c:	cb 59       	subi	r28, 0x9B	; 155
    2d4e:	d0 40       	sbci	r29, 0x00	; 0
    2d50:	88 0f       	add	r24, r24
    2d52:	99 1f       	adc	r25, r25
    2d54:	c5 56       	subi	r28, 0x65	; 101
    2d56:	df 4f       	sbci	r29, 0xFF	; 255
    2d58:	a8 81       	ld	r26, Y
    2d5a:	b9 81       	ldd	r27, Y+1	; 0x01
    2d5c:	cb 59       	subi	r28, 0x9B	; 155
    2d5e:	d0 40       	sbci	r29, 0x00	; 0
    2d60:	8a 0f       	add	r24, r26
    2d62:	9b 1f       	adc	r25, r27
    2d64:	88 0f       	add	r24, r24
    2d66:	99 1f       	adc	r25, r25
    2d68:	88 0f       	add	r24, r24
    2d6a:	99 1f       	adc	r25, r25
    2d6c:	e1 e0       	ldi	r30, 0x01	; 1
    2d6e:	f0 e0       	ldi	r31, 0x00	; 0
    2d70:	ec 0f       	add	r30, r28
    2d72:	fd 1f       	adc	r31, r29
    2d74:	8e 0f       	add	r24, r30
    2d76:	9f 1f       	adc	r25, r31
    2d78:	9c 01       	movw	r18, r24
    2d7a:	2e 5f       	subi	r18, 0xFE	; 254
    2d7c:	3f 4f       	sbci	r19, 0xFF	; 255
    2d7e:	cd 56       	subi	r28, 0x6D	; 109
    2d80:	df 4f       	sbci	r29, 0xFF	; 255
    2d82:	28 83       	st	Y, r18
    2d84:	39 83       	std	Y+1, r19	; 0x01
    2d86:	c3 59       	subi	r28, 0x93	; 147
    2d88:	d0 40       	sbci	r29, 0x00	; 0
    2d8a:	dc 01       	movw	r26, r24
    2d8c:	14 96       	adiw	r26, 0x04	; 4
    2d8e:	c9 56       	subi	r28, 0x69	; 105
    2d90:	df 4f       	sbci	r29, 0xFF	; 255
    2d92:	a8 83       	st	Y, r26
    2d94:	b9 83       	std	Y+1, r27	; 0x01
    2d96:	c7 59       	subi	r28, 0x97	; 151
    2d98:	d0 40       	sbci	r29, 0x00	; 0
    2d9a:	51 cc       	rjmp	.-1886   	; 0x263e <CalibrateChannel+0x1a6>
    2d9c:	c3 01       	movw	r24, r6
    2d9e:	b2 01       	movw	r22, r4
    2da0:	0e 94 3e 33 	call	0x667c	; 0x667c <__floatsisf>
    2da4:	20 e0       	ldi	r18, 0x00	; 0
    2da6:	30 e0       	ldi	r19, 0x00	; 0
    2da8:	4a e7       	ldi	r20, 0x7A	; 122
    2daa:	54 e4       	ldi	r21, 0x44	; 68
    2dac:	0e 94 8e 32 	call	0x651c	; 0x651c <__divsf3>
    2db0:	e6 2e       	mov	r14, r22
    2db2:	f7 2e       	mov	r15, r23
    2db4:	08 2f       	mov	r16, r24
    2db6:	19 2f       	mov	r17, r25
    2db8:	f6 01       	movw	r30, r12
    2dba:	ee 0f       	add	r30, r30
    2dbc:	ff 1f       	adc	r31, r31
    2dbe:	ee 0f       	add	r30, r30
    2dc0:	ff 1f       	adc	r31, r31
    2dc2:	25 e7       	ldi	r18, 0x75	; 117
    2dc4:	30 e0       	ldi	r19, 0x00	; 0
    2dc6:	2c 0f       	add	r18, r28
    2dc8:	3d 1f       	adc	r19, r29
    2dca:	e2 0f       	add	r30, r18
    2dcc:	f3 1f       	adc	r31, r19
    2dce:	86 2f       	mov	r24, r22
    2dd0:	9f 2d       	mov	r25, r15
    2dd2:	a0 2f       	mov	r26, r16
    2dd4:	b1 2f       	mov	r27, r17
    2dd6:	80 83       	st	Z, r24
    2dd8:	91 83       	std	Z+1, r25	; 0x01
    2dda:	a2 83       	std	Z+2, r26	; 0x02
    2ddc:	b3 83       	std	Z+3, r27	; 0x03
    2dde:	b0 92 66 29 	sts	0x2966, r11	; 0x802966 <sTakeSnapshot>
    2de2:	7b cc       	rjmp	.-1802   	; 0x26da <CalibrateChannel+0x242>
    2de4:	1f 92       	push	r1
    2de6:	89 e5       	ldi	r24, 0x59	; 89
    2de8:	8f 93       	push	r24
    2dea:	89 e5       	ldi	r24, 0x59	; 89
    2dec:	95 e2       	ldi	r25, 0x25	; 37
    2dee:	9f 93       	push	r25
    2df0:	8f 93       	push	r24
    2df2:	8f 92       	push	r8
    2df4:	2f 92       	push	r2
    2df6:	0e 94 1a 3d 	call	0x7a34	; 0x7a34 <fprintf>
    2dfa:	0f 90       	pop	r0
    2dfc:	0f 90       	pop	r0
    2dfe:	0f 90       	pop	r0
    2e00:	0f 90       	pop	r0
    2e02:	0f 90       	pop	r0
    2e04:	0f 90       	pop	r0
    2e06:	e1 cc       	rjmp	.-1598   	; 0x27ca <CalibrateChannel+0x332>
    2e08:	29 2f       	mov	r18, r25
    2e0a:	09 2e       	mov	r0, r25
    2e0c:	00 0c       	add	r0, r0
    2e0e:	33 0b       	sbc	r19, r19
    2e10:	3f 93       	push	r19
    2e12:	9f 93       	push	r25
    2e14:	e9 e5       	ldi	r30, 0x59	; 89
    2e16:	f5 e2       	ldi	r31, 0x25	; 37
    2e18:	ff 93       	push	r31
    2e1a:	ef 93       	push	r30
    2e1c:	8f 92       	push	r8
    2e1e:	2f 92       	push	r2
    2e20:	0e 94 1a 3d 	call	0x7a34	; 0x7a34 <fprintf>
    2e24:	0f 90       	pop	r0
    2e26:	0f 90       	pop	r0
    2e28:	0f 90       	pop	r0
    2e2a:	0f 90       	pop	r0
    2e2c:	0f 90       	pop	r0
    2e2e:	0f 90       	pop	r0
    2e30:	34 e0       	ldi	r19, 0x04	; 4
    2e32:	33 15       	cp	r19, r3
    2e34:	0c f0       	brlt	.+2      	; 0x2e38 <CalibrateChannel+0x9a0>
    2e36:	03 cc       	rjmp	.-2042   	; 0x263e <CalibrateChannel+0x1a6>
    2e38:	e6 cc       	rjmp	.-1588   	; 0x2806 <CalibrateChannel+0x36e>
    2e3a:	1f 92       	push	r1
    2e3c:	8b e1       	ldi	r24, 0x1B	; 27
    2e3e:	8f 93       	push	r24
    2e40:	89 e5       	ldi	r24, 0x59	; 89
    2e42:	95 e2       	ldi	r25, 0x25	; 37
    2e44:	9f 93       	push	r25
    2e46:	8f 93       	push	r24
    2e48:	8f 92       	push	r8
    2e4a:	2f 92       	push	r2
    2e4c:	0e 94 1a 3d 	call	0x7a34	; 0x7a34 <fprintf>
    2e50:	0f 90       	pop	r0
    2e52:	0f 90       	pop	r0
    2e54:	0f 90       	pop	r0
    2e56:	0f 90       	pop	r0
    2e58:	0f 90       	pop	r0
    2e5a:	0f 90       	pop	r0
    2e5c:	d4 cc       	rjmp	.-1624   	; 0x2806 <CalibrateChannel+0x36e>
    2e5e:	1f 92       	push	r1
    2e60:	89 e7       	ldi	r24, 0x79	; 121
    2e62:	8f 93       	push	r24
    2e64:	89 e5       	ldi	r24, 0x59	; 89
    2e66:	95 e2       	ldi	r25, 0x25	; 37
    2e68:	9f 93       	push	r25
    2e6a:	8f 93       	push	r24
    2e6c:	8f 92       	push	r8
    2e6e:	2f 92       	push	r2
    2e70:	0e 94 1a 3d 	call	0x7a34	; 0x7a34 <fprintf>
    2e74:	0f 90       	pop	r0
    2e76:	0f 90       	pop	r0
    2e78:	0f 90       	pop	r0
    2e7a:	0f 90       	pop	r0
    2e7c:	0f 90       	pop	r0
    2e7e:	0f 90       	pop	r0
    2e80:	a4 cc       	rjmp	.-1720   	; 0x27ca <CalibrateChannel+0x332>
    2e82:	1f 92       	push	r1
    2e84:	89 e7       	ldi	r24, 0x79	; 121
    2e86:	8f 93       	push	r24
    2e88:	e9 e5       	ldi	r30, 0x59	; 89
    2e8a:	f5 e2       	ldi	r31, 0x25	; 37
    2e8c:	ff 93       	push	r31
    2e8e:	ef 93       	push	r30
    2e90:	8f 92       	push	r8
    2e92:	2f 92       	push	r2
    2e94:	0e 94 1a 3d 	call	0x7a34	; 0x7a34 <fprintf>
    2e98:	0f 90       	pop	r0
    2e9a:	0f 90       	pop	r0
    2e9c:	0f 90       	pop	r0
    2e9e:	0f 90       	pop	r0
    2ea0:	0f 90       	pop	r0
    2ea2:	0f 90       	pop	r0
    2ea4:	cc cb       	rjmp	.-2152   	; 0x263e <CalibrateChannel+0x1a6>
    2ea6:	1f 92       	push	r1
    2ea8:	89 e5       	ldi	r24, 0x59	; 89
    2eaa:	8f 93       	push	r24
    2eac:	89 e5       	ldi	r24, 0x59	; 89
    2eae:	95 e2       	ldi	r25, 0x25	; 37
    2eb0:	9f 93       	push	r25
    2eb2:	8f 93       	push	r24
    2eb4:	8f 92       	push	r8
    2eb6:	2f 92       	push	r2
    2eb8:	0e 94 1a 3d 	call	0x7a34	; 0x7a34 <fprintf>
    2ebc:	0f 90       	pop	r0
    2ebe:	0f 90       	pop	r0
    2ec0:	0f 90       	pop	r0
    2ec2:	0f 90       	pop	r0
    2ec4:	0f 90       	pop	r0
    2ec6:	0f 90       	pop	r0
    2ec8:	ba cb       	rjmp	.-2188   	; 0x263e <CalibrateChannel+0x1a6>
    2eca:	29 2f       	mov	r18, r25
    2ecc:	09 2e       	mov	r0, r25
    2ece:	00 0c       	add	r0, r0
    2ed0:	33 0b       	sbc	r19, r19
    2ed2:	3f 93       	push	r19
    2ed4:	9f 93       	push	r25
    2ed6:	89 e5       	ldi	r24, 0x59	; 89
    2ed8:	95 e2       	ldi	r25, 0x25	; 37
    2eda:	9f 93       	push	r25
    2edc:	8f 93       	push	r24
    2ede:	8f 92       	push	r8
    2ee0:	2f 92       	push	r2
    2ee2:	0e 94 1a 3d 	call	0x7a34	; 0x7a34 <fprintf>
    2ee6:	0f 90       	pop	r0
    2ee8:	0f 90       	pop	r0
    2eea:	0f 90       	pop	r0
    2eec:	0f 90       	pop	r0
    2eee:	0f 90       	pop	r0
    2ef0:	0f 90       	pop	r0
    2ef2:	89 cc       	rjmp	.-1774   	; 0x2806 <CalibrateChannel+0x36e>
    2ef4:	63 2d       	mov	r22, r3
    2ef6:	03 2c       	mov	r0, r3
    2ef8:	00 0c       	add	r0, r0
    2efa:	77 0b       	sbc	r23, r23
    2efc:	88 0b       	sbc	r24, r24
    2efe:	99 0b       	sbc	r25, r25
    2f00:	0e 94 3e 33 	call	0x667c	; 0x667c <__floatsisf>
    2f04:	c9 56       	subi	r28, 0x69	; 105
    2f06:	df 4f       	sbci	r29, 0xFF	; 255
    2f08:	68 83       	st	Y, r22
    2f0a:	79 83       	std	Y+1, r23	; 0x01
    2f0c:	8a 83       	std	Y+2, r24	; 0x02
    2f0e:	9b 83       	std	Y+3, r25	; 0x03
    2f10:	c7 59       	subi	r28, 0x97	; 151
    2f12:	d0 40       	sbci	r29, 0x00	; 0
    2f14:	9b 01       	movw	r18, r22
    2f16:	ac 01       	movw	r20, r24
    2f18:	c1 57       	subi	r28, 0x71	; 113
    2f1a:	df 4f       	sbci	r29, 0xFF	; 255
    2f1c:	68 81       	ld	r22, Y
    2f1e:	79 81       	ldd	r23, Y+1	; 0x01
    2f20:	8a 81       	ldd	r24, Y+2	; 0x02
    2f22:	9b 81       	ldd	r25, Y+3	; 0x03
    2f24:	cf 58       	subi	r28, 0x8F	; 143
    2f26:	d0 40       	sbci	r29, 0x00	; 0
    2f28:	0e 94 8e 32 	call	0x651c	; 0x651c <__divsf3>
    2f2c:	06 2f       	mov	r16, r22
    2f2e:	f7 2e       	mov	r15, r23
    2f30:	c0 56       	subi	r28, 0x60	; 96
    2f32:	df 4f       	sbci	r29, 0xFF	; 255
    2f34:	88 83       	st	Y, r24
    2f36:	c0 5a       	subi	r28, 0xA0	; 160
    2f38:	d0 40       	sbci	r29, 0x00	; 0
    2f3a:	e9 2e       	mov	r14, r25
    2f3c:	c9 56       	subi	r28, 0x69	; 105
    2f3e:	df 4f       	sbci	r29, 0xFF	; 255
    2f40:	28 81       	ld	r18, Y
    2f42:	39 81       	ldd	r19, Y+1	; 0x01
    2f44:	4a 81       	ldd	r20, Y+2	; 0x02
    2f46:	5b 81       	ldd	r21, Y+3	; 0x03
    2f48:	c7 59       	subi	r28, 0x97	; 151
    2f4a:	d0 40       	sbci	r29, 0x00	; 0
    2f4c:	cd 56       	subi	r28, 0x6D	; 109
    2f4e:	df 4f       	sbci	r29, 0xFF	; 255
    2f50:	68 81       	ld	r22, Y
    2f52:	79 81       	ldd	r23, Y+1	; 0x01
    2f54:	8a 81       	ldd	r24, Y+2	; 0x02
    2f56:	9b 81       	ldd	r25, Y+3	; 0x03
    2f58:	c3 59       	subi	r28, 0x93	; 147
    2f5a:	d0 40       	sbci	r29, 0x00	; 0
    2f5c:	0e 94 8e 32 	call	0x651c	; 0x651c <__divsf3>
    2f60:	c1 56       	subi	r28, 0x61	; 97
    2f62:	df 4f       	sbci	r29, 0xFF	; 255
    2f64:	68 83       	st	Y, r22
    2f66:	cf 59       	subi	r28, 0x9F	; 159
    2f68:	d0 40       	sbci	r29, 0x00	; 0
    2f6a:	97 2e       	mov	r9, r23
    2f6c:	48 2e       	mov	r4, r24
    2f6e:	59 2e       	mov	r5, r25
    2f70:	c9 56       	subi	r28, 0x69	; 105
    2f72:	df 4f       	sbci	r29, 0xFF	; 255
    2f74:	18 82       	st	Y, r1
    2f76:	19 82       	std	Y+1, r1	; 0x01
    2f78:	1a 82       	std	Y+2, r1	; 0x02
    2f7a:	1b 82       	std	Y+3, r1	; 0x03
    2f7c:	c7 59       	subi	r28, 0x97	; 151
    2f7e:	d0 40       	sbci	r29, 0x00	; 0
    2f80:	cd 56       	subi	r28, 0x6D	; 109
    2f82:	df 4f       	sbci	r29, 0xFF	; 255
    2f84:	18 82       	st	Y, r1
    2f86:	19 82       	std	Y+1, r1	; 0x01
    2f88:	1a 82       	std	Y+2, r1	; 0x02
    2f8a:	1b 82       	std	Y+3, r1	; 0x03
    2f8c:	c3 59       	subi	r28, 0x93	; 147
    2f8e:	d0 40       	sbci	r29, 0x00	; 0
    2f90:	10 e0       	ldi	r17, 0x00	; 0
    2f92:	cf 55       	subi	r28, 0x5F	; 95
    2f94:	df 4f       	sbci	r29, 0xFF	; 255
    2f96:	c8 82       	st	Y, r12
    2f98:	d9 82       	std	Y+1, r13	; 0x01
    2f9a:	c1 5a       	subi	r28, 0xA1	; 161
    2f9c:	d0 40       	sbci	r29, 0x00	; 0
    2f9e:	c0 56       	subi	r28, 0x60	; 96
    2fa0:	df 4f       	sbci	r29, 0xFF	; 255
    2fa2:	d8 80       	ld	r13, Y
    2fa4:	c0 5a       	subi	r28, 0xA0	; 160
    2fa6:	d0 40       	sbci	r29, 0x00	; 0
    2fa8:	8e cc       	rjmp	.-1764   	; 0x28c6 <CalibrateChannel+0x42e>
    2faa:	63 2d       	mov	r22, r3
    2fac:	33 0c       	add	r3, r3
    2fae:	77 0b       	sbc	r23, r23
    2fb0:	88 0b       	sbc	r24, r24
    2fb2:	99 0b       	sbc	r25, r25
    2fb4:	0e 94 3e 33 	call	0x667c	; 0x667c <__floatsisf>
    2fb8:	9b 01       	movw	r18, r22
    2fba:	ac 01       	movw	r20, r24
    2fbc:	60 e0       	ldi	r22, 0x00	; 0
    2fbe:	70 e0       	ldi	r23, 0x00	; 0
    2fc0:	cb 01       	movw	r24, r22
    2fc2:	0e 94 8e 32 	call	0x651c	; 0x651c <__divsf3>
    2fc6:	06 2f       	mov	r16, r22
    2fc8:	f7 2e       	mov	r15, r23
    2fca:	c0 56       	subi	r28, 0x60	; 96
    2fcc:	df 4f       	sbci	r29, 0xFF	; 255
    2fce:	88 83       	st	Y, r24
    2fd0:	c0 5a       	subi	r28, 0xA0	; 160
    2fd2:	d0 40       	sbci	r29, 0x00	; 0
    2fd4:	e9 2e       	mov	r14, r25
    2fd6:	c1 56       	subi	r28, 0x61	; 97
    2fd8:	df 4f       	sbci	r29, 0xFF	; 255
    2fda:	68 83       	st	Y, r22
    2fdc:	cf 59       	subi	r28, 0x9F	; 159
    2fde:	d0 40       	sbci	r29, 0x00	; 0
    2fe0:	97 2e       	mov	r9, r23
    2fe2:	48 2e       	mov	r4, r24
    2fe4:	59 2e       	mov	r5, r25
    2fe6:	c9 56       	subi	r28, 0x69	; 105
    2fe8:	df 4f       	sbci	r29, 0xFF	; 255
    2fea:	18 82       	st	Y, r1
    2fec:	19 82       	std	Y+1, r1	; 0x01
    2fee:	1a 82       	std	Y+2, r1	; 0x02
    2ff0:	1b 82       	std	Y+3, r1	; 0x03
    2ff2:	c7 59       	subi	r28, 0x97	; 151
    2ff4:	d0 40       	sbci	r29, 0x00	; 0
    2ff6:	cd 56       	subi	r28, 0x6D	; 109
    2ff8:	df 4f       	sbci	r29, 0xFF	; 255
    2ffa:	18 82       	st	Y, r1
    2ffc:	19 82       	std	Y+1, r1	; 0x01
    2ffe:	1a 82       	std	Y+2, r1	; 0x02
    3000:	1b 82       	std	Y+3, r1	; 0x03
    3002:	c3 59       	subi	r28, 0x93	; 147
    3004:	d0 40       	sbci	r29, 0x00	; 0
    3006:	c2 cc       	rjmp	.-1660   	; 0x298c <CalibrateChannel+0x4f4>
    3008:	1f 92       	push	r1
    300a:	89 e7       	ldi	r24, 0x79	; 121
    300c:	8f 93       	push	r24
    300e:	89 e5       	ldi	r24, 0x59	; 89
    3010:	95 e2       	ldi	r25, 0x25	; 37
    3012:	9f 93       	push	r25
    3014:	8f 93       	push	r24
    3016:	8f 92       	push	r8
    3018:	2f 92       	push	r2
    301a:	0e 94 1a 3d 	call	0x7a34	; 0x7a34 <fprintf>
    301e:	0f 90       	pop	r0
    3020:	0f 90       	pop	r0
    3022:	0f 90       	pop	r0
    3024:	0f 90       	pop	r0
    3026:	0f 90       	pop	r0
    3028:	0f 90       	pop	r0
    302a:	84 cd       	rjmp	.-1272   	; 0x2b34 <CalibrateChannel+0x69c>
    302c:	1f 92       	push	r1
    302e:	89 e5       	ldi	r24, 0x59	; 89
    3030:	8f 93       	push	r24
    3032:	89 e5       	ldi	r24, 0x59	; 89
    3034:	95 e2       	ldi	r25, 0x25	; 37
    3036:	9f 93       	push	r25
    3038:	8f 93       	push	r24
    303a:	8f 92       	push	r8
    303c:	2f 92       	push	r2
    303e:	0e 94 1a 3d 	call	0x7a34	; 0x7a34 <fprintf>
    3042:	0f 90       	pop	r0
    3044:	0f 90       	pop	r0
    3046:	0f 90       	pop	r0
    3048:	0f 90       	pop	r0
    304a:	0f 90       	pop	r0
    304c:	0f 90       	pop	r0
    304e:	72 cd       	rjmp	.-1308   	; 0x2b34 <CalibrateChannel+0x69c>
    3050:	29 2f       	mov	r18, r25
    3052:	09 2e       	mov	r0, r25
    3054:	00 0c       	add	r0, r0
    3056:	33 0b       	sbc	r19, r19
    3058:	3f 93       	push	r19
    305a:	9f 93       	push	r25
    305c:	89 e5       	ldi	r24, 0x59	; 89
    305e:	95 e2       	ldi	r25, 0x25	; 37
    3060:	9f 93       	push	r25
    3062:	8f 93       	push	r24
    3064:	8f 92       	push	r8
    3066:	2f 92       	push	r2
    3068:	0e 94 1a 3d 	call	0x7a34	; 0x7a34 <fprintf>
    306c:	0f 90       	pop	r0
    306e:	0f 90       	pop	r0
    3070:	0f 90       	pop	r0
    3072:	0f 90       	pop	r0
    3074:	0f 90       	pop	r0
    3076:	0f 90       	pop	r0
    3078:	ce 55       	subi	r28, 0x5E	; 94
    307a:	df 4f       	sbci	r29, 0xFF	; 255
    307c:	cd bf       	out	0x3d, r28	; 61
    307e:	de bf       	out	0x3e, r29	; 62
    3080:	df 91       	pop	r29
    3082:	cf 91       	pop	r28
    3084:	1f 91       	pop	r17
    3086:	0f 91       	pop	r16
    3088:	ff 90       	pop	r15
    308a:	ef 90       	pop	r14
    308c:	df 90       	pop	r13
    308e:	cf 90       	pop	r12
    3090:	bf 90       	pop	r11
    3092:	af 90       	pop	r10
    3094:	9f 90       	pop	r9
    3096:	8f 90       	pop	r8
    3098:	7f 90       	pop	r7
    309a:	6f 90       	pop	r6
    309c:	5f 90       	pop	r5
    309e:	4f 90       	pop	r4
    30a0:	3f 90       	pop	r3
    30a2:	2f 90       	pop	r2
    30a4:	08 95       	ret

000030a6 <TakeSnapshot>:
    30a6:	81 e0       	ldi	r24, 0x01	; 1
    30a8:	80 93 66 29 	sts	0x2966, r24	; 0x802966 <sTakeSnapshot>
    30ac:	08 95       	ret

000030ae <GetSessionCycleCount>:


uint32_t GetSessionCycleCount(void) {
    30ae:	0f 93       	push	r16
    30b0:	1f 93       	push	r17
	
	uint32_t res, prev;
	
	res = sSessionCycleCount;
    30b2:	00 91 e3 28 	lds	r16, 0x28E3	; 0x8028e3 <sSessionCycleCount>
    30b6:	10 91 e4 28 	lds	r17, 0x28E4	; 0x8028e4 <sSessionCycleCount+0x1>
    30ba:	20 91 e5 28 	lds	r18, 0x28E5	; 0x8028e5 <sSessionCycleCount+0x2>
    30be:	30 91 e6 28 	lds	r19, 0x28E6	; 0x8028e6 <sSessionCycleCount+0x3>
    30c2:	02 c0       	rjmp	.+4      	; 0x30c8 <GetSessionCycleCount+0x1a>
	
	do {
		prev = res;
		res = sSessionCycleCount;
    30c4:	8b 01       	movw	r16, r22
    30c6:	9c 01       	movw	r18, r24
    30c8:	60 91 e3 28 	lds	r22, 0x28E3	; 0x8028e3 <sSessionCycleCount>
    30cc:	70 91 e4 28 	lds	r23, 0x28E4	; 0x8028e4 <sSessionCycleCount+0x1>
    30d0:	80 91 e5 28 	lds	r24, 0x28E5	; 0x8028e5 <sSessionCycleCount+0x2>
    30d4:	90 91 e6 28 	lds	r25, 0x28E6	; 0x8028e6 <sSessionCycleCount+0x3>
	} while (res != prev);
    30d8:	06 17       	cp	r16, r22
    30da:	17 07       	cpc	r17, r23
    30dc:	28 07       	cpc	r18, r24
    30de:	39 07       	cpc	r19, r25
    30e0:	89 f7       	brne	.-30     	; 0x30c4 <GetSessionCycleCount+0x16>
	
	return res;
	
} /* GetSessionCycleCount */
    30e2:	1f 91       	pop	r17
    30e4:	0f 91       	pop	r16
    30e6:	08 95       	ret

000030e8 <PrintCSV_H2A>:

	return res;
} /* GetProcessedSpeed */


void PrintCSV_H2A(FILE *fp) {
    30e8:	2f 92       	push	r2
    30ea:	3f 92       	push	r3
    30ec:	4f 92       	push	r4
    30ee:	5f 92       	push	r5
    30f0:	6f 92       	push	r6
    30f2:	7f 92       	push	r7
    30f4:	8f 92       	push	r8
    30f6:	9f 92       	push	r9
    30f8:	af 92       	push	r10
    30fa:	bf 92       	push	r11
    30fc:	cf 92       	push	r12
    30fe:	df 92       	push	r13
    3100:	ef 92       	push	r14
    3102:	ff 92       	push	r15
    3104:	0f 93       	push	r16
    3106:	1f 93       	push	r17
    3108:	cf 93       	push	r28
    310a:	df 93       	push	r29
    310c:	cd b7       	in	r28, 0x3d	; 61
    310e:	de b7       	in	r29, 0x3e	; 62
    3110:	c1 5d       	subi	r28, 0xD1	; 209
    3112:	d1 09       	sbc	r29, r1
    3114:	cd bf       	out	0x3d, r28	; 61
    3116:	de bf       	out	0x3e, r29	; 62
    3118:	ca 54       	subi	r28, 0x4A	; 74
    311a:	df 4f       	sbci	r29, 0xFF	; 255
    311c:	88 83       	st	Y, r24
    311e:	c6 5b       	subi	r28, 0xB6	; 182
    3120:	d0 40       	sbci	r29, 0x00	; 0
    3122:	c9 54       	subi	r28, 0x49	; 73
    3124:	df 4f       	sbci	r29, 0xFF	; 255
    3126:	98 83       	st	Y, r25
    3128:	c7 5b       	subi	r28, 0xB7	; 183
    312a:	d0 40       	sbci	r29, 0x00	; 0
} /* TakeSnapshotCoreAnalog */


uint8_t IsSnapshotDone(void) {
	
	return !sTakeSnapshot;
    312c:	80 91 66 29 	lds	r24, 0x2966	; 0x802966 <sTakeSnapshot>
} /* GetProcessedSpeed */


void PrintCSV_H2A(FILE *fp) {
	/* Assume the calling code has already initiated a snapshot */
	while(!(IsSnapshotDone())) ; /* Wait for the snapshot to be taken */
    3130:	81 11       	cpse	r24, r1
    3132:	fc cf       	rjmp	.-8      	; 0x312c <PrintCSV_H2A+0x44>
		(int16_t)!sSensorDataSnapshot.selCCState,
		((float) sSensorDataSnapshot.selCCTimestamp / CYCLES_PER_SECOND),
		(int16_t)sSensorDataSnapshot.ccPower,
		sSensorDataSnapshot.ccTargetSpeed ? (H2A_WHEEL_METER_PER_PULSE * WHEEL_MS_TO_KMH * CYCLES_PER_SECOND / (sSensorDataSnapshot.ccTargetSpeed  / 65536.0f)) : 0.0f,
		(int16_t)!sSensorDataSnapshot.selCC2State,
		((float) sSensorDataSnapshot.selCC2Timestamp / CYCLES_PER_SECOND));
    3134:	60 91 d8 29 	lds	r22, 0x29D8	; 0x8029d8 <sSensorDataSnapshot+0x6d>
    3138:	70 91 d9 29 	lds	r23, 0x29D9	; 0x8029d9 <sSensorDataSnapshot+0x6e>
    313c:	80 91 da 29 	lds	r24, 0x29DA	; 0x8029da <sSensorDataSnapshot+0x6f>
    3140:	90 91 db 29 	lds	r25, 0x29DB	; 0x8029db <sSensorDataSnapshot+0x70>
    3144:	0e 94 3c 33 	call	0x6678	; 0x6678 <__floatunsisf>
    3148:	20 e0       	ldi	r18, 0x00	; 0
    314a:	30 e4       	ldi	r19, 0x40	; 64
    314c:	4c e9       	ldi	r20, 0x9C	; 156
    314e:	55 e4       	ldi	r21, 0x45	; 69
    3150:	0e 94 8e 32 	call	0x651c	; 0x651c <__divsf3>
    3154:	c8 54       	subi	r28, 0x48	; 72
    3156:	df 4f       	sbci	r29, 0xFF	; 255
    3158:	68 83       	st	Y, r22
    315a:	c8 5b       	subi	r28, 0xB8	; 184
    315c:	d0 40       	sbci	r29, 0x00	; 0
    315e:	c7 54       	subi	r28, 0x47	; 71
    3160:	df 4f       	sbci	r29, 0xFF	; 255
    3162:	78 83       	st	Y, r23
    3164:	c9 5b       	subi	r28, 0xB9	; 185
    3166:	d0 40       	sbci	r29, 0x00	; 0
    3168:	c6 54       	subi	r28, 0x46	; 70
    316a:	df 4f       	sbci	r29, 0xFF	; 255
    316c:	88 83       	st	Y, r24
    316e:	ca 5b       	subi	r28, 0xBA	; 186
    3170:	d0 40       	sbci	r29, 0x00	; 0
    3172:	c5 54       	subi	r28, 0x45	; 69
    3174:	df 4f       	sbci	r29, 0xFF	; 255
    3176:	98 83       	st	Y, r25
    3178:	cb 5b       	subi	r28, 0xBB	; 187
    317a:	d0 40       	sbci	r29, 0x00	; 0
		((float) sSensorDataSnapshot.selFPTimestamp / CYCLES_PER_SECOND),
		(int16_t)!sSensorDataSnapshot.selCCState,
		((float) sSensorDataSnapshot.selCCTimestamp / CYCLES_PER_SECOND),
		(int16_t)sSensorDataSnapshot.ccPower,
		sSensorDataSnapshot.ccTargetSpeed ? (H2A_WHEEL_METER_PER_PULSE * WHEEL_MS_TO_KMH * CYCLES_PER_SECOND / (sSensorDataSnapshot.ccTargetSpeed  / 65536.0f)) : 0.0f,
		(int16_t)!sSensorDataSnapshot.selCC2State,
    317c:	20 91 cf 29 	lds	r18, 0x29CF	; 0x8029cf <sSensorDataSnapshot+0x64>

void PrintCSV_H2A(FILE *fp) {
	/* Assume the calling code has already initiated a snapshot */
	while(!(IsSnapshotDone())) ; /* Wait for the snapshot to be taken */

	fprintf(fp, ">03|02:%.4f,%.3f,%.3f,%.2f,%.0f,%.3f,%.3f,%.2f,%.0f,%.3f,%.3f,%.1f,%.0f,%.3f,%.3f,%.1f,%.0f,%.2f,%.0f,%.0f,%.3f,%.2f,%d,%.3f,%d,%.3f,%d,%.3f,%d,%.3f,%d,%.3f,",
    3180:	91 e0       	ldi	r25, 0x01	; 1
    3182:	80 e0       	ldi	r24, 0x00	; 0
    3184:	21 11       	cpse	r18, r1
    3186:	90 e0       	ldi	r25, 0x00	; 0
    3188:	c0 57       	subi	r28, 0x70	; 112
    318a:	df 4f       	sbci	r29, 0xFF	; 255
    318c:	98 83       	st	Y, r25
    318e:	c0 59       	subi	r28, 0x90	; 144
    3190:	d0 40       	sbci	r29, 0x00	; 0
    3192:	cf 56       	subi	r28, 0x6F	; 111
    3194:	df 4f       	sbci	r29, 0xFF	; 255
    3196:	88 83       	st	Y, r24
    3198:	c1 59       	subi	r28, 0x91	; 145
    319a:	d0 40       	sbci	r29, 0x00	; 0
		(int16_t)!sSensorDataSnapshot.selFPState,
		((float) sSensorDataSnapshot.selFPTimestamp / CYCLES_PER_SECOND),
		(int16_t)!sSensorDataSnapshot.selCCState,
		((float) sSensorDataSnapshot.selCCTimestamp / CYCLES_PER_SECOND),
		(int16_t)sSensorDataSnapshot.ccPower,
		sSensorDataSnapshot.ccTargetSpeed ? (H2A_WHEEL_METER_PER_PULSE * WHEEL_MS_TO_KMH * CYCLES_PER_SECOND / (sSensorDataSnapshot.ccTargetSpeed  / 65536.0f)) : 0.0f,
    319c:	80 91 e0 29 	lds	r24, 0x29E0	; 0x8029e0 <sSensorDataSnapshot+0x75>
    31a0:	90 91 e1 29 	lds	r25, 0x29E1	; 0x8029e1 <sSensorDataSnapshot+0x76>
    31a4:	a0 91 e2 29 	lds	r26, 0x29E2	; 0x8029e2 <sSensorDataSnapshot+0x77>
    31a8:	b0 91 e3 29 	lds	r27, 0x29E3	; 0x8029e3 <sSensorDataSnapshot+0x78>

void PrintCSV_H2A(FILE *fp) {
	/* Assume the calling code has already initiated a snapshot */
	while(!(IsSnapshotDone())) ; /* Wait for the snapshot to be taken */

	fprintf(fp, ">03|02:%.4f,%.3f,%.3f,%.2f,%.0f,%.3f,%.3f,%.2f,%.0f,%.3f,%.3f,%.1f,%.0f,%.3f,%.3f,%.1f,%.0f,%.2f,%.0f,%.0f,%.3f,%.2f,%d,%.3f,%d,%.3f,%d,%.3f,%d,%.3f,%d,%.3f,",
    31ac:	89 2b       	or	r24, r25
    31ae:	8a 2b       	or	r24, r26
    31b0:	8b 2b       	or	r24, r27
    31b2:	69 f1       	breq	.+90     	; 0x320e <PrintCSV_H2A+0x126>
		(int16_t)!sSensorDataSnapshot.selFPState,
		((float) sSensorDataSnapshot.selFPTimestamp / CYCLES_PER_SECOND),
		(int16_t)!sSensorDataSnapshot.selCCState,
		((float) sSensorDataSnapshot.selCCTimestamp / CYCLES_PER_SECOND),
		(int16_t)sSensorDataSnapshot.ccPower,
		sSensorDataSnapshot.ccTargetSpeed ? (H2A_WHEEL_METER_PER_PULSE * WHEEL_MS_TO_KMH * CYCLES_PER_SECOND / (sSensorDataSnapshot.ccTargetSpeed  / 65536.0f)) : 0.0f,
    31b4:	60 91 e0 29 	lds	r22, 0x29E0	; 0x8029e0 <sSensorDataSnapshot+0x75>
    31b8:	70 91 e1 29 	lds	r23, 0x29E1	; 0x8029e1 <sSensorDataSnapshot+0x76>
    31bc:	80 91 e2 29 	lds	r24, 0x29E2	; 0x8029e2 <sSensorDataSnapshot+0x77>
    31c0:	90 91 e3 29 	lds	r25, 0x29E3	; 0x8029e3 <sSensorDataSnapshot+0x78>

void PrintCSV_H2A(FILE *fp) {
	/* Assume the calling code has already initiated a snapshot */
	while(!(IsSnapshotDone())) ; /* Wait for the snapshot to be taken */

	fprintf(fp, ">03|02:%.4f,%.3f,%.3f,%.2f,%.0f,%.3f,%.3f,%.2f,%.0f,%.3f,%.3f,%.1f,%.0f,%.3f,%.3f,%.1f,%.0f,%.2f,%.0f,%.0f,%.3f,%.2f,%d,%.3f,%d,%.3f,%d,%.3f,%d,%.3f,%d,%.3f,",
    31c4:	0e 94 3e 33 	call	0x667c	; 0x667c <__floatsisf>
    31c8:	20 e0       	ldi	r18, 0x00	; 0
    31ca:	30 e0       	ldi	r19, 0x00	; 0
    31cc:	40 e8       	ldi	r20, 0x80	; 128
    31ce:	57 e3       	ldi	r21, 0x37	; 55
    31d0:	0e 94 3c 34 	call	0x6878	; 0x6878 <__mulsf3>
    31d4:	9b 01       	movw	r18, r22
    31d6:	ac 01       	movw	r20, r24
    31d8:	60 e0       	ldi	r22, 0x00	; 0
    31da:	70 e8       	ldi	r23, 0x80	; 128
    31dc:	8b e8       	ldi	r24, 0x8B	; 139
    31de:	94 e4       	ldi	r25, 0x44	; 68
    31e0:	0e 94 8e 32 	call	0x651c	; 0x651c <__divsf3>
    31e4:	c4 53       	subi	r28, 0x34	; 52
    31e6:	df 4f       	sbci	r29, 0xFF	; 255
    31e8:	68 83       	st	Y, r22
    31ea:	cc 5c       	subi	r28, 0xCC	; 204
    31ec:	d0 40       	sbci	r29, 0x00	; 0
    31ee:	c3 53       	subi	r28, 0x33	; 51
    31f0:	df 4f       	sbci	r29, 0xFF	; 255
    31f2:	78 83       	st	Y, r23
    31f4:	cd 5c       	subi	r28, 0xCD	; 205
    31f6:	d0 40       	sbci	r29, 0x00	; 0
    31f8:	c2 53       	subi	r28, 0x32	; 50
    31fa:	df 4f       	sbci	r29, 0xFF	; 255
    31fc:	88 83       	st	Y, r24
    31fe:	ce 5c       	subi	r28, 0xCE	; 206
    3200:	d0 40       	sbci	r29, 0x00	; 0
    3202:	c1 53       	subi	r28, 0x31	; 49
    3204:	df 4f       	sbci	r29, 0xFF	; 255
    3206:	98 83       	st	Y, r25
    3208:	cf 5c       	subi	r28, 0xCF	; 207
    320a:	d0 40       	sbci	r29, 0x00	; 0
    320c:	14 c0       	rjmp	.+40     	; 0x3236 <PrintCSV_H2A+0x14e>
    320e:	c4 53       	subi	r28, 0x34	; 52
    3210:	df 4f       	sbci	r29, 0xFF	; 255
    3212:	18 82       	st	Y, r1
    3214:	cc 5c       	subi	r28, 0xCC	; 204
    3216:	d0 40       	sbci	r29, 0x00	; 0
    3218:	c3 53       	subi	r28, 0x33	; 51
    321a:	df 4f       	sbci	r29, 0xFF	; 255
    321c:	18 82       	st	Y, r1
    321e:	cd 5c       	subi	r28, 0xCD	; 205
    3220:	d0 40       	sbci	r29, 0x00	; 0
    3222:	c2 53       	subi	r28, 0x32	; 50
    3224:	df 4f       	sbci	r29, 0xFF	; 255
    3226:	18 82       	st	Y, r1
    3228:	ce 5c       	subi	r28, 0xCE	; 206
    322a:	d0 40       	sbci	r29, 0x00	; 0
    322c:	c1 53       	subi	r28, 0x31	; 49
    322e:	df 4f       	sbci	r29, 0xFF	; 255
    3230:	18 82       	st	Y, r1
    3232:	cf 5c       	subi	r28, 0xCF	; 207
    3234:	d0 40       	sbci	r29, 0x00	; 0
		((float) sSensorDataSnapshot.adc.h2a.idealDiodeTimestamp / CYCLES_PER_SECOND),
		(int16_t)!sSensorDataSnapshot.selFPState,
		((float) sSensorDataSnapshot.selFPTimestamp / CYCLES_PER_SECOND),
		(int16_t)!sSensorDataSnapshot.selCCState,
		((float) sSensorDataSnapshot.selCCTimestamp / CYCLES_PER_SECOND),
		(int16_t)sSensorDataSnapshot.ccPower,
    3236:	10 91 e4 29 	lds	r17, 0x29E4	; 0x8029e4 <sSensorDataSnapshot+0x79>
		(int16_t)!!sSensorDataSnapshot.adc.h2a.idealDiodeState,
		((float) sSensorDataSnapshot.adc.h2a.idealDiodeTimestamp / CYCLES_PER_SECOND),
		(int16_t)!sSensorDataSnapshot.selFPState,
		((float) sSensorDataSnapshot.selFPTimestamp / CYCLES_PER_SECOND),
		(int16_t)!sSensorDataSnapshot.selCCState,
		((float) sSensorDataSnapshot.selCCTimestamp / CYCLES_PER_SECOND),
    323a:	60 91 d4 29 	lds	r22, 0x29D4	; 0x8029d4 <sSensorDataSnapshot+0x69>
    323e:	70 91 d5 29 	lds	r23, 0x29D5	; 0x8029d5 <sSensorDataSnapshot+0x6a>
    3242:	80 91 d6 29 	lds	r24, 0x29D6	; 0x8029d6 <sSensorDataSnapshot+0x6b>
    3246:	90 91 d7 29 	lds	r25, 0x29D7	; 0x8029d7 <sSensorDataSnapshot+0x6c>
    324a:	0e 94 3c 33 	call	0x6678	; 0x6678 <__floatunsisf>
    324e:	20 e0       	ldi	r18, 0x00	; 0
    3250:	30 e4       	ldi	r19, 0x40	; 64
    3252:	4c e9       	ldi	r20, 0x9C	; 156
    3254:	55 e4       	ldi	r21, 0x45	; 69
    3256:	0e 94 8e 32 	call	0x651c	; 0x651c <__divsf3>
    325a:	c4 54       	subi	r28, 0x44	; 68
    325c:	df 4f       	sbci	r29, 0xFF	; 255
    325e:	68 83       	st	Y, r22
    3260:	cc 5b       	subi	r28, 0xBC	; 188
    3262:	d0 40       	sbci	r29, 0x00	; 0
    3264:	c3 54       	subi	r28, 0x43	; 67
    3266:	df 4f       	sbci	r29, 0xFF	; 255
    3268:	78 83       	st	Y, r23
    326a:	cd 5b       	subi	r28, 0xBD	; 189
    326c:	d0 40       	sbci	r29, 0x00	; 0
    326e:	c2 54       	subi	r28, 0x42	; 66
    3270:	df 4f       	sbci	r29, 0xFF	; 255
    3272:	88 83       	st	Y, r24
    3274:	ce 5b       	subi	r28, 0xBE	; 190
    3276:	d0 40       	sbci	r29, 0x00	; 0
    3278:	c1 54       	subi	r28, 0x41	; 65
    327a:	df 4f       	sbci	r29, 0xFF	; 255
    327c:	98 83       	st	Y, r25
    327e:	cf 5b       	subi	r28, 0xBF	; 191
    3280:	d0 40       	sbci	r29, 0x00	; 0
		sSensorDataSnapshot.speedSensorPositivePulsesSeen * H2A_WHEEL_METER_PER_PULSE,
		(int16_t)!!sSensorDataSnapshot.adc.h2a.idealDiodeState,
		((float) sSensorDataSnapshot.adc.h2a.idealDiodeTimestamp / CYCLES_PER_SECOND),
		(int16_t)!sSensorDataSnapshot.selFPState,
		((float) sSensorDataSnapshot.selFPTimestamp / CYCLES_PER_SECOND),
		(int16_t)!sSensorDataSnapshot.selCCState,
    3282:	20 91 ce 29 	lds	r18, 0x29CE	; 0x8029ce <sSensorDataSnapshot+0x63>

void PrintCSV_H2A(FILE *fp) {
	/* Assume the calling code has already initiated a snapshot */
	while(!(IsSnapshotDone())) ; /* Wait for the snapshot to be taken */

	fprintf(fp, ">03|02:%.4f,%.3f,%.3f,%.2f,%.0f,%.3f,%.3f,%.2f,%.0f,%.3f,%.3f,%.1f,%.0f,%.3f,%.3f,%.1f,%.0f,%.2f,%.0f,%.0f,%.3f,%.2f,%d,%.3f,%d,%.3f,%d,%.3f,%d,%.3f,%d,%.3f,",
    3286:	91 e0       	ldi	r25, 0x01	; 1
    3288:	80 e0       	ldi	r24, 0x00	; 0
    328a:	21 11       	cpse	r18, r1
    328c:	90 e0       	ldi	r25, 0x00	; 0
    328e:	ce 56       	subi	r28, 0x6E	; 110
    3290:	df 4f       	sbci	r29, 0xFF	; 255
    3292:	98 83       	st	Y, r25
    3294:	c2 59       	subi	r28, 0x92	; 146
    3296:	d0 40       	sbci	r29, 0x00	; 0
    3298:	cd 56       	subi	r28, 0x6D	; 109
    329a:	df 4f       	sbci	r29, 0xFF	; 255
    329c:	88 83       	st	Y, r24
    329e:	c3 59       	subi	r28, 0x93	; 147
    32a0:	d0 40       	sbci	r29, 0x00	; 0
		GetProcessedSpeed(sSensorDataSnapshot.speedSensorPulseInterval, H2A_WHEEL_METER_PER_PULSE),
		sSensorDataSnapshot.speedSensorPositivePulsesSeen * H2A_WHEEL_METER_PER_PULSE,
		(int16_t)!!sSensorDataSnapshot.adc.h2a.idealDiodeState,
		((float) sSensorDataSnapshot.adc.h2a.idealDiodeTimestamp / CYCLES_PER_SECOND),
		(int16_t)!sSensorDataSnapshot.selFPState,
		((float) sSensorDataSnapshot.selFPTimestamp / CYCLES_PER_SECOND),
    32a2:	60 91 d0 29 	lds	r22, 0x29D0	; 0x8029d0 <sSensorDataSnapshot+0x65>
    32a6:	70 91 d1 29 	lds	r23, 0x29D1	; 0x8029d1 <sSensorDataSnapshot+0x66>
    32aa:	80 91 d2 29 	lds	r24, 0x29D2	; 0x8029d2 <sSensorDataSnapshot+0x67>
    32ae:	90 91 d3 29 	lds	r25, 0x29D3	; 0x8029d3 <sSensorDataSnapshot+0x68>
    32b2:	0e 94 3c 33 	call	0x6678	; 0x6678 <__floatunsisf>
    32b6:	20 e0       	ldi	r18, 0x00	; 0
    32b8:	30 e4       	ldi	r19, 0x40	; 64
    32ba:	4c e9       	ldi	r20, 0x9C	; 156
    32bc:	55 e4       	ldi	r21, 0x45	; 69
    32be:	0e 94 8e 32 	call	0x651c	; 0x651c <__divsf3>
    32c2:	c0 54       	subi	r28, 0x40	; 64
    32c4:	df 4f       	sbci	r29, 0xFF	; 255
    32c6:	68 83       	st	Y, r22
    32c8:	c0 5c       	subi	r28, 0xC0	; 192
    32ca:	d0 40       	sbci	r29, 0x00	; 0
    32cc:	cf 53       	subi	r28, 0x3F	; 63
    32ce:	df 4f       	sbci	r29, 0xFF	; 255
    32d0:	78 83       	st	Y, r23
    32d2:	c1 5c       	subi	r28, 0xC1	; 193
    32d4:	d0 40       	sbci	r29, 0x00	; 0
    32d6:	ce 53       	subi	r28, 0x3E	; 62
    32d8:	df 4f       	sbci	r29, 0xFF	; 255
    32da:	88 83       	st	Y, r24
    32dc:	c2 5c       	subi	r28, 0xC2	; 194
    32de:	d0 40       	sbci	r29, 0x00	; 0
    32e0:	cd 53       	subi	r28, 0x3D	; 61
    32e2:	df 4f       	sbci	r29, 0xFF	; 255
    32e4:	98 83       	st	Y, r25
    32e6:	c3 5c       	subi	r28, 0xC3	; 195
    32e8:	d0 40       	sbci	r29, 0x00	; 0
		sSensorDataSnapshot.pwmDutyCycle / (256.0f * PWM_DC_SCALE),
		GetProcessedSpeed(sSensorDataSnapshot.speedSensorPulseInterval, H2A_WHEEL_METER_PER_PULSE),
		sSensorDataSnapshot.speedSensorPositivePulsesSeen * H2A_WHEEL_METER_PER_PULSE,
		(int16_t)!!sSensorDataSnapshot.adc.h2a.idealDiodeState,
		((float) sSensorDataSnapshot.adc.h2a.idealDiodeTimestamp / CYCLES_PER_SECOND),
		(int16_t)!sSensorDataSnapshot.selFPState,
    32ea:	20 91 cd 29 	lds	r18, 0x29CD	; 0x8029cd <sSensorDataSnapshot+0x62>

void PrintCSV_H2A(FILE *fp) {
	/* Assume the calling code has already initiated a snapshot */
	while(!(IsSnapshotDone())) ; /* Wait for the snapshot to be taken */

	fprintf(fp, ">03|02:%.4f,%.3f,%.3f,%.2f,%.0f,%.3f,%.3f,%.2f,%.0f,%.3f,%.3f,%.1f,%.0f,%.3f,%.3f,%.1f,%.0f,%.2f,%.0f,%.0f,%.3f,%.2f,%d,%.3f,%d,%.3f,%d,%.3f,%d,%.3f,%d,%.3f,",
    32ee:	91 e0       	ldi	r25, 0x01	; 1
    32f0:	80 e0       	ldi	r24, 0x00	; 0
    32f2:	21 11       	cpse	r18, r1
    32f4:	90 e0       	ldi	r25, 0x00	; 0
    32f6:	cc 56       	subi	r28, 0x6C	; 108
    32f8:	df 4f       	sbci	r29, 0xFF	; 255
    32fa:	98 83       	st	Y, r25
    32fc:	c4 59       	subi	r28, 0x94	; 148
    32fe:	d0 40       	sbci	r29, 0x00	; 0
    3300:	cb 56       	subi	r28, 0x6B	; 107
    3302:	df 4f       	sbci	r29, 0xFF	; 255
    3304:	88 83       	st	Y, r24
    3306:	c5 59       	subi	r28, 0x95	; 149
    3308:	d0 40       	sbci	r29, 0x00	; 0
		sSensorDataSnapshot.pwmFrequency / (256.0f * PWM_FREQ_SCALE),
		sSensorDataSnapshot.pwmDutyCycle / (256.0f * PWM_DC_SCALE),
		GetProcessedSpeed(sSensorDataSnapshot.speedSensorPulseInterval, H2A_WHEEL_METER_PER_PULSE),
		sSensorDataSnapshot.speedSensorPositivePulsesSeen * H2A_WHEEL_METER_PER_PULSE,
		(int16_t)!!sSensorDataSnapshot.adc.h2a.idealDiodeState,
		((float) sSensorDataSnapshot.adc.h2a.idealDiodeTimestamp / CYCLES_PER_SECOND),
    330a:	60 91 95 29 	lds	r22, 0x2995	; 0x802995 <sSensorDataSnapshot+0x2a>
    330e:	70 91 96 29 	lds	r23, 0x2996	; 0x802996 <sSensorDataSnapshot+0x2b>
    3312:	80 91 97 29 	lds	r24, 0x2997	; 0x802997 <sSensorDataSnapshot+0x2c>
    3316:	90 91 98 29 	lds	r25, 0x2998	; 0x802998 <sSensorDataSnapshot+0x2d>
    331a:	0e 94 3c 33 	call	0x6678	; 0x6678 <__floatunsisf>
    331e:	20 e0       	ldi	r18, 0x00	; 0
    3320:	30 e4       	ldi	r19, 0x40	; 64
    3322:	4c e9       	ldi	r20, 0x9C	; 156
    3324:	55 e4       	ldi	r21, 0x45	; 69
    3326:	0e 94 8e 32 	call	0x651c	; 0x651c <__divsf3>
    332a:	cc 53       	subi	r28, 0x3C	; 60
    332c:	df 4f       	sbci	r29, 0xFF	; 255
    332e:	68 83       	st	Y, r22
    3330:	c4 5c       	subi	r28, 0xC4	; 196
    3332:	d0 40       	sbci	r29, 0x00	; 0
    3334:	cb 53       	subi	r28, 0x3B	; 59
    3336:	df 4f       	sbci	r29, 0xFF	; 255
    3338:	78 83       	st	Y, r23
    333a:	c5 5c       	subi	r28, 0xC5	; 197
    333c:	d0 40       	sbci	r29, 0x00	; 0
    333e:	ca 53       	subi	r28, 0x3A	; 58
    3340:	df 4f       	sbci	r29, 0xFF	; 255
    3342:	88 83       	st	Y, r24
    3344:	c6 5c       	subi	r28, 0xC6	; 198
    3346:	d0 40       	sbci	r29, 0x00	; 0
    3348:	c9 53       	subi	r28, 0x39	; 57
    334a:	df 4f       	sbci	r29, 0xFF	; 255
    334c:	98 83       	st	Y, r25
    334e:	c7 5c       	subi	r28, 0xC7	; 199
    3350:	d0 40       	sbci	r29, 0x00	; 0
		sSensorDataSnapshot.driverTempFiltered / (65536.0f * 10.0f),
		sSensorDataSnapshot.pwmFrequency / (256.0f * PWM_FREQ_SCALE),
		sSensorDataSnapshot.pwmDutyCycle / (256.0f * PWM_DC_SCALE),
		GetProcessedSpeed(sSensorDataSnapshot.speedSensorPulseInterval, H2A_WHEEL_METER_PER_PULSE),
		sSensorDataSnapshot.speedSensorPositivePulsesSeen * H2A_WHEEL_METER_PER_PULSE,
		(int16_t)!!sSensorDataSnapshot.adc.h2a.idealDiodeState,
    3352:	20 91 94 29 	lds	r18, 0x2994	; 0x802994 <sSensorDataSnapshot+0x29>

void PrintCSV_H2A(FILE *fp) {
	/* Assume the calling code has already initiated a snapshot */
	while(!(IsSnapshotDone())) ; /* Wait for the snapshot to be taken */

	fprintf(fp, ">03|02:%.4f,%.3f,%.3f,%.2f,%.0f,%.3f,%.3f,%.2f,%.0f,%.3f,%.3f,%.1f,%.0f,%.3f,%.3f,%.1f,%.0f,%.2f,%.0f,%.0f,%.3f,%.2f,%d,%.3f,%d,%.3f,%d,%.3f,%d,%.3f,%d,%.3f,",
    3356:	91 e0       	ldi	r25, 0x01	; 1
    3358:	80 e0       	ldi	r24, 0x00	; 0
    335a:	21 11       	cpse	r18, r1
    335c:	01 c0       	rjmp	.+2      	; 0x3360 <PrintCSV_H2A+0x278>
    335e:	90 e0       	ldi	r25, 0x00	; 0
    3360:	ca 56       	subi	r28, 0x6A	; 106
    3362:	df 4f       	sbci	r29, 0xFF	; 255
    3364:	98 83       	st	Y, r25
    3366:	c6 59       	subi	r28, 0x96	; 150
    3368:	d0 40       	sbci	r29, 0x00	; 0
    336a:	c9 56       	subi	r28, 0x69	; 105
    336c:	df 4f       	sbci	r29, 0xFF	; 255
    336e:	88 83       	st	Y, r24
    3370:	c7 59       	subi	r28, 0x97	; 151
    3372:	d0 40       	sbci	r29, 0x00	; 0
		sSensorDataSnapshot.inEnergy / (CYCLES_PER_SECOND * sCal.inVoltageScale * sCal.inCurrentScale),
		sSensorDataSnapshot.driverTempFiltered / (65536.0f * 10.0f),
		sSensorDataSnapshot.pwmFrequency / (256.0f * PWM_FREQ_SCALE),
		sSensorDataSnapshot.pwmDutyCycle / (256.0f * PWM_DC_SCALE),
		GetProcessedSpeed(sSensorDataSnapshot.speedSensorPulseInterval, H2A_WHEEL_METER_PER_PULSE),
		sSensorDataSnapshot.speedSensorPositivePulsesSeen * H2A_WHEEL_METER_PER_PULSE,
    3374:	60 91 c9 29 	lds	r22, 0x29C9	; 0x8029c9 <sSensorDataSnapshot+0x5e>
    3378:	70 91 ca 29 	lds	r23, 0x29CA	; 0x8029ca <sSensorDataSnapshot+0x5f>
    337c:	80 91 cb 29 	lds	r24, 0x29CB	; 0x8029cb <sSensorDataSnapshot+0x60>
    3380:	90 91 cc 29 	lds	r25, 0x29CC	; 0x8029cc <sSensorDataSnapshot+0x61>
    3384:	0e 94 3c 33 	call	0x6678	; 0x6678 <__floatunsisf>
    3388:	27 eb       	ldi	r18, 0xB7	; 183
    338a:	33 ef       	ldi	r19, 0xF3	; 243
    338c:	4d e7       	ldi	r20, 0x7D	; 125
    338e:	5d e3       	ldi	r21, 0x3D	; 61
    3390:	0e 94 3c 34 	call	0x6878	; 0x6878 <__mulsf3>
    3394:	c8 53       	subi	r28, 0x38	; 56
    3396:	df 4f       	sbci	r29, 0xFF	; 255
    3398:	68 83       	st	Y, r22
    339a:	c8 5c       	subi	r28, 0xC8	; 200
    339c:	d0 40       	sbci	r29, 0x00	; 0
    339e:	c7 53       	subi	r28, 0x37	; 55
    33a0:	df 4f       	sbci	r29, 0xFF	; 255
    33a2:	78 83       	st	Y, r23
    33a4:	c9 5c       	subi	r28, 0xC9	; 201
    33a6:	d0 40       	sbci	r29, 0x00	; 0
    33a8:	c6 53       	subi	r28, 0x36	; 54
    33aa:	df 4f       	sbci	r29, 0xFF	; 255
    33ac:	88 83       	st	Y, r24
    33ae:	ca 5c       	subi	r28, 0xCA	; 202
    33b0:	d0 40       	sbci	r29, 0x00	; 0
    33b2:	c5 53       	subi	r28, 0x35	; 53
    33b4:	df 4f       	sbci	r29, 0xFF	; 255
    33b6:	98 83       	st	Y, r25
    33b8:	cb 5c       	subi	r28, 0xCB	; 203
    33ba:	d0 40       	sbci	r29, 0x00	; 0
		sSensorDataSnapshot.inPowerFiltered / (256.0f * sCal.inVoltageScale * sCal.inCurrentScale),
		sSensorDataSnapshot.inEnergy / (CYCLES_PER_SECOND * sCal.inVoltageScale * sCal.inCurrentScale),
		sSensorDataSnapshot.driverTempFiltered / (65536.0f * 10.0f),
		sSensorDataSnapshot.pwmFrequency / (256.0f * PWM_FREQ_SCALE),
		sSensorDataSnapshot.pwmDutyCycle / (256.0f * PWM_DC_SCALE),
		GetProcessedSpeed(sSensorDataSnapshot.speedSensorPulseInterval, H2A_WHEEL_METER_PER_PULSE),
    33bc:	60 91 c5 29 	lds	r22, 0x29C5	; 0x8029c5 <sSensorDataSnapshot+0x5a>
    33c0:	70 91 c6 29 	lds	r23, 0x29C6	; 0x8029c6 <sSensorDataSnapshot+0x5b>
    33c4:	80 91 c7 29 	lds	r24, 0x29C7	; 0x8029c7 <sSensorDataSnapshot+0x5c>
    33c8:	90 91 c8 29 	lds	r25, 0x29C8	; 0x8029c8 <sSensorDataSnapshot+0x5d>

static float GetProcessedSpeed(int32_t speedSensorPulseInterval, float wheelMeterPerPulse) {
	
	float res;
	
	if(speedSensorPulseInterval) {
    33cc:	61 15       	cp	r22, r1
    33ce:	71 05       	cpc	r23, r1
    33d0:	81 05       	cpc	r24, r1
    33d2:	91 05       	cpc	r25, r1
    33d4:	09 f1       	breq	.+66     	; 0x3418 <PrintCSV_H2A+0x330>
		res = wheelMeterPerPulse * WHEEL_MS_TO_KMH * CYCLES_PER_SECOND / (speedSensorPulseInterval / 65536.0f);
    33d6:	0e 94 3e 33 	call	0x667c	; 0x667c <__floatsisf>
    33da:	20 e0       	ldi	r18, 0x00	; 0
    33dc:	30 e0       	ldi	r19, 0x00	; 0
    33de:	40 e8       	ldi	r20, 0x80	; 128
    33e0:	57 e3       	ldi	r21, 0x37	; 55
    33e2:	0e 94 3c 34 	call	0x6878	; 0x6878 <__mulsf3>
    33e6:	9b 01       	movw	r18, r22
    33e8:	ac 01       	movw	r20, r24
    33ea:	60 e0       	ldi	r22, 0x00	; 0
    33ec:	70 e8       	ldi	r23, 0x80	; 128
    33ee:	8b e8       	ldi	r24, 0x8B	; 139
    33f0:	94 e4       	ldi	r25, 0x44	; 68
    33f2:	0e 94 8e 32 	call	0x651c	; 0x651c <__divsf3>
    33f6:	69 83       	std	Y+1, r22	; 0x01
    33f8:	07 2f       	mov	r16, r23
    33fa:	38 2e       	mov	r3, r24
    33fc:	29 2e       	mov	r2, r25
		if(res < SPEEDSENSOR_MIN_SPEED)
    33fe:	20 e0       	ldi	r18, 0x00	; 0
    3400:	30 e0       	ldi	r19, 0x00	; 0
    3402:	40 e8       	ldi	r20, 0x80	; 128
    3404:	5f e3       	ldi	r21, 0x3F	; 63
    3406:	0e 94 89 32 	call	0x6512	; 0x6512 <__cmpsf2>
    340a:	88 23       	and	r24, r24
    340c:	4c f4       	brge	.+18     	; 0x3420 <PrintCSV_H2A+0x338>
		res = 0.0f;
    340e:	19 82       	std	Y+1, r1	; 0x01
    3410:	00 e0       	ldi	r16, 0x00	; 0
    3412:	31 2c       	mov	r3, r1
    3414:	21 2c       	mov	r2, r1
    3416:	04 c0       	rjmp	.+8      	; 0x3420 <PrintCSV_H2A+0x338>
	}
	else
	res = 0.0f;
    3418:	19 82       	std	Y+1, r1	; 0x01
    341a:	00 e0       	ldi	r16, 0x00	; 0
    341c:	31 2c       	mov	r3, r1
    341e:	21 2c       	mov	r2, r1
		sSensorDataSnapshot.inCurrentFiltered / (65536.0f * sCal.inCurrentScale),
		sSensorDataSnapshot.inPowerFiltered / (256.0f * sCal.inVoltageScale * sCal.inCurrentScale),
		sSensorDataSnapshot.inEnergy / (CYCLES_PER_SECOND * sCal.inVoltageScale * sCal.inCurrentScale),
		sSensorDataSnapshot.driverTempFiltered / (65536.0f * 10.0f),
		sSensorDataSnapshot.pwmFrequency / (256.0f * PWM_FREQ_SCALE),
		sSensorDataSnapshot.pwmDutyCycle / (256.0f * PWM_DC_SCALE),
    3420:	eb e6       	ldi	r30, 0x6B	; 107
    3422:	f9 e2       	ldi	r31, 0x29	; 41
    3424:	60 91 de 29 	lds	r22, 0x29DE	; 0x8029de <sSensorDataSnapshot+0x73>
    3428:	70 91 df 29 	lds	r23, 0x29DF	; 0x8029df <sSensorDataSnapshot+0x74>
		sSensorDataSnapshot.inVoltageFiltered / (65536.0f * sCal.inVoltageScale),
		sSensorDataSnapshot.inCurrentFiltered / (65536.0f * sCal.inCurrentScale),
		sSensorDataSnapshot.inPowerFiltered / (256.0f * sCal.inVoltageScale * sCal.inCurrentScale),
		sSensorDataSnapshot.inEnergy / (CYCLES_PER_SECOND * sCal.inVoltageScale * sCal.inCurrentScale),
		sSensorDataSnapshot.driverTempFiltered / (65536.0f * 10.0f),
		sSensorDataSnapshot.pwmFrequency / (256.0f * PWM_FREQ_SCALE),
    342c:	20 91 dc 29 	lds	r18, 0x29DC	; 0x8029dc <sSensorDataSnapshot+0x71>
    3430:	30 91 dd 29 	lds	r19, 0x29DD	; 0x8029dd <sSensorDataSnapshot+0x72>
    3434:	2a 83       	std	Y+2, r18	; 0x02
    3436:	3b 83       	std	Y+3, r19	; 0x03
		sSensorDataSnapshot.motorEnergy / (CYCLES_PER_SECOND * sCal.motorVoltageScale * sCal.motorCurrentScale),
		sSensorDataSnapshot.inVoltageFiltered / (65536.0f * sCal.inVoltageScale),
		sSensorDataSnapshot.inCurrentFiltered / (65536.0f * sCal.inCurrentScale),
		sSensorDataSnapshot.inPowerFiltered / (256.0f * sCal.inVoltageScale * sCal.inCurrentScale),
		sSensorDataSnapshot.inEnergy / (CYCLES_PER_SECOND * sCal.inVoltageScale * sCal.inCurrentScale),
		sSensorDataSnapshot.driverTempFiltered / (65536.0f * 10.0f),
    3438:	c6 a4       	ldd	r12, Z+46	; 0x2e
    343a:	d7 a4       	ldd	r13, Z+47	; 0x2f
    343c:	e0 a8       	ldd	r14, Z+48	; 0x30
    343e:	f1 a8       	ldd	r15, Z+49	; 0x31
		sSensorDataSnapshot.motorPowerFiltered / (256.0f * sCal.motorVoltageScale * sCal.motorCurrentScale),
		sSensorDataSnapshot.motorEnergy / (CYCLES_PER_SECOND * sCal.motorVoltageScale * sCal.motorCurrentScale),
		sSensorDataSnapshot.inVoltageFiltered / (65536.0f * sCal.inVoltageScale),
		sSensorDataSnapshot.inCurrentFiltered / (65536.0f * sCal.inCurrentScale),
		sSensorDataSnapshot.inPowerFiltered / (256.0f * sCal.inVoltageScale * sCal.inCurrentScale),
		sSensorDataSnapshot.inEnergy / (CYCLES_PER_SECOND * sCal.inVoltageScale * sCal.inCurrentScale),
    3440:	ad eb       	ldi	r26, 0xBD	; 189
    3442:	b9 e2       	ldi	r27, 0x29	; 41
    3444:	3c 91       	ld	r19, X
    3446:	c8 56       	subi	r28, 0x68	; 104
    3448:	df 4f       	sbci	r29, 0xFF	; 255
    344a:	38 83       	st	Y, r19
    344c:	c8 59       	subi	r28, 0x98	; 152
    344e:	d0 40       	sbci	r29, 0x00	; 0
    3450:	11 96       	adiw	r26, 0x01	; 1
    3452:	4c 91       	ld	r20, X
    3454:	11 97       	sbiw	r26, 0x01	; 1
    3456:	c7 56       	subi	r28, 0x67	; 103
    3458:	df 4f       	sbci	r29, 0xFF	; 255
    345a:	48 83       	st	Y, r20
    345c:	c9 59       	subi	r28, 0x99	; 153
    345e:	d0 40       	sbci	r29, 0x00	; 0
    3460:	12 96       	adiw	r26, 0x02	; 2
    3462:	5c 91       	ld	r21, X
    3464:	12 97       	sbiw	r26, 0x02	; 2
    3466:	c6 56       	subi	r28, 0x66	; 102
    3468:	df 4f       	sbci	r29, 0xFF	; 255
    346a:	58 83       	st	Y, r21
    346c:	ca 59       	subi	r28, 0x9A	; 154
    346e:	d0 40       	sbci	r29, 0x00	; 0
    3470:	13 96       	adiw	r26, 0x03	; 3
    3472:	8c 91       	ld	r24, X
    3474:	13 97       	sbiw	r26, 0x03	; 3
    3476:	c5 56       	subi	r28, 0x65	; 101
    3478:	df 4f       	sbci	r29, 0xFF	; 255
    347a:	88 83       	st	Y, r24
    347c:	cb 59       	subi	r28, 0x9B	; 155
    347e:	d0 40       	sbci	r29, 0x00	; 0
    3480:	14 96       	adiw	r26, 0x04	; 4
    3482:	9c 91       	ld	r25, X
    3484:	14 97       	sbiw	r26, 0x04	; 4
    3486:	c4 56       	subi	r28, 0x64	; 100
    3488:	df 4f       	sbci	r29, 0xFF	; 255
    348a:	98 83       	st	Y, r25
    348c:	cc 59       	subi	r28, 0x9C	; 156
    348e:	d0 40       	sbci	r29, 0x00	; 0
    3490:	15 96       	adiw	r26, 0x05	; 5
    3492:	2c 91       	ld	r18, X
    3494:	15 97       	sbiw	r26, 0x05	; 5
    3496:	c3 56       	subi	r28, 0x63	; 99
    3498:	df 4f       	sbci	r29, 0xFF	; 255
    349a:	28 83       	st	Y, r18
    349c:	cd 59       	subi	r28, 0x9D	; 157
    349e:	d0 40       	sbci	r29, 0x00	; 0
    34a0:	16 96       	adiw	r26, 0x06	; 6
    34a2:	3c 91       	ld	r19, X
    34a4:	16 97       	sbiw	r26, 0x06	; 6
    34a6:	c2 56       	subi	r28, 0x62	; 98
    34a8:	df 4f       	sbci	r29, 0xFF	; 255
    34aa:	38 83       	st	Y, r19
    34ac:	ce 59       	subi	r28, 0x9E	; 158
    34ae:	d0 40       	sbci	r29, 0x00	; 0
    34b0:	17 96       	adiw	r26, 0x07	; 7
    34b2:	4c 91       	ld	r20, X
    34b4:	c1 56       	subi	r28, 0x61	; 97
    34b6:	df 4f       	sbci	r29, 0xFF	; 255
    34b8:	48 83       	st	Y, r20
    34ba:	cf 59       	subi	r28, 0x9F	; 159
    34bc:	d0 40       	sbci	r29, 0x00	; 0
    34be:	40 90 0d 2a 	lds	r4, 0x2A0D	; 0x802a0d <sCal+0x28>
    34c2:	50 90 0e 2a 	lds	r5, 0x2A0E	; 0x802a0e <sCal+0x29>
    34c6:	60 90 0f 2a 	lds	r6, 0x2A0F	; 0x802a0f <sCal+0x2a>
    34ca:	70 90 10 2a 	lds	r7, 0x2A10	; 0x802a10 <sCal+0x2b>
    34ce:	80 90 11 2a 	lds	r8, 0x2A11	; 0x802a11 <sCal+0x2c>
    34d2:	90 90 12 2a 	lds	r9, 0x2A12	; 0x802a12 <sCal+0x2d>
    34d6:	a0 90 13 2a 	lds	r10, 0x2A13	; 0x802a13 <sCal+0x2e>
    34da:	b0 90 14 2a 	lds	r11, 0x2A14	; 0x802a14 <sCal+0x2f>
		sSensorDataSnapshot.motorCurrentFiltered / (65536.0f * sCal.motorCurrentScale),
		sSensorDataSnapshot.motorPowerFiltered / (256.0f * sCal.motorVoltageScale * sCal.motorCurrentScale),
		sSensorDataSnapshot.motorEnergy / (CYCLES_PER_SECOND * sCal.motorVoltageScale * sCal.motorCurrentScale),
		sSensorDataSnapshot.inVoltageFiltered / (65536.0f * sCal.inVoltageScale),
		sSensorDataSnapshot.inCurrentFiltered / (65536.0f * sCal.inCurrentScale),
		sSensorDataSnapshot.inPowerFiltered / (256.0f * sCal.inVoltageScale * sCal.inCurrentScale),
    34de:	80 91 b1 29 	lds	r24, 0x29B1	; 0x8029b1 <sSensorDataSnapshot+0x46>
    34e2:	90 91 b2 29 	lds	r25, 0x29B2	; 0x8029b2 <sSensorDataSnapshot+0x47>
    34e6:	a0 91 b3 29 	lds	r26, 0x29B3	; 0x8029b3 <sSensorDataSnapshot+0x48>
    34ea:	b0 91 b4 29 	lds	r27, 0x29B4	; 0x8029b4 <sSensorDataSnapshot+0x49>
    34ee:	8c 83       	std	Y+4, r24	; 0x04
    34f0:	9d 83       	std	Y+5, r25	; 0x05
    34f2:	ae 83       	std	Y+6, r26	; 0x06
    34f4:	bf 83       	std	Y+7, r27	; 0x07
    34f6:	20 91 0d 2a 	lds	r18, 0x2A0D	; 0x802a0d <sCal+0x28>
    34fa:	30 91 0e 2a 	lds	r19, 0x2A0E	; 0x802a0e <sCal+0x29>
    34fe:	40 91 0f 2a 	lds	r20, 0x2A0F	; 0x802a0f <sCal+0x2a>
    3502:	50 91 10 2a 	lds	r21, 0x2A10	; 0x802a10 <sCal+0x2b>
    3506:	28 87       	std	Y+8, r18	; 0x08
    3508:	39 87       	std	Y+9, r19	; 0x09
    350a:	4a 87       	std	Y+10, r20	; 0x0a
    350c:	5b 87       	std	Y+11, r21	; 0x0b
    350e:	80 91 11 2a 	lds	r24, 0x2A11	; 0x802a11 <sCal+0x2c>
    3512:	90 91 12 2a 	lds	r25, 0x2A12	; 0x802a12 <sCal+0x2d>
    3516:	a0 91 13 2a 	lds	r26, 0x2A13	; 0x802a13 <sCal+0x2e>
    351a:	b0 91 14 2a 	lds	r27, 0x2A14	; 0x802a14 <sCal+0x2f>
    351e:	8c 87       	std	Y+12, r24	; 0x0c
    3520:	9d 87       	std	Y+13, r25	; 0x0d
    3522:	ae 87       	std	Y+14, r26	; 0x0e
    3524:	bf 87       	std	Y+15, r27	; 0x0f
		sSensorDataSnapshot.motorVoltageFiltered / (65536.0f * sCal.motorVoltageScale),
		sSensorDataSnapshot.motorCurrentFiltered / (65536.0f * sCal.motorCurrentScale),
		sSensorDataSnapshot.motorPowerFiltered / (256.0f * sCal.motorVoltageScale * sCal.motorCurrentScale),
		sSensorDataSnapshot.motorEnergy / (CYCLES_PER_SECOND * sCal.motorVoltageScale * sCal.motorCurrentScale),
		sSensorDataSnapshot.inVoltageFiltered / (65536.0f * sCal.inVoltageScale),
		sSensorDataSnapshot.inCurrentFiltered / (65536.0f * sCal.inCurrentScale),
    3526:	20 91 a9 29 	lds	r18, 0x29A9	; 0x8029a9 <sSensorDataSnapshot+0x3e>
    352a:	30 91 aa 29 	lds	r19, 0x29AA	; 0x8029aa <sSensorDataSnapshot+0x3f>
    352e:	40 91 ab 29 	lds	r20, 0x29AB	; 0x8029ab <sSensorDataSnapshot+0x40>
    3532:	50 91 ac 29 	lds	r21, 0x29AC	; 0x8029ac <sSensorDataSnapshot+0x41>
    3536:	28 8b       	std	Y+16, r18	; 0x10
    3538:	39 8b       	std	Y+17, r19	; 0x11
    353a:	4a 8b       	std	Y+18, r20	; 0x12
    353c:	5b 8b       	std	Y+19, r21	; 0x13
    353e:	80 91 11 2a 	lds	r24, 0x2A11	; 0x802a11 <sCal+0x2c>
    3542:	90 91 12 2a 	lds	r25, 0x2A12	; 0x802a12 <sCal+0x2d>
    3546:	a0 91 13 2a 	lds	r26, 0x2A13	; 0x802a13 <sCal+0x2e>
    354a:	b0 91 14 2a 	lds	r27, 0x2A14	; 0x802a14 <sCal+0x2f>
    354e:	8c 8b       	std	Y+20, r24	; 0x14
    3550:	9d 8b       	std	Y+21, r25	; 0x15
    3552:	ae 8b       	std	Y+22, r26	; 0x16
    3554:	bf 8b       	std	Y+23, r27	; 0x17
		sSensorDataSnapshot.adc.h2a.scEnergy / (CYCLES_PER_SECOND * sCal.scVoltageScale * sCal.scCurrentScale), /* Energy */
		sSensorDataSnapshot.motorVoltageFiltered / (65536.0f * sCal.motorVoltageScale),
		sSensorDataSnapshot.motorCurrentFiltered / (65536.0f * sCal.motorCurrentScale),
		sSensorDataSnapshot.motorPowerFiltered / (256.0f * sCal.motorVoltageScale * sCal.motorCurrentScale),
		sSensorDataSnapshot.motorEnergy / (CYCLES_PER_SECOND * sCal.motorVoltageScale * sCal.motorCurrentScale),
		sSensorDataSnapshot.inVoltageFiltered / (65536.0f * sCal.inVoltageScale),
    3556:	22 ad       	ldd	r18, Z+58	; 0x3a
    3558:	33 ad       	ldd	r19, Z+59	; 0x3b
    355a:	44 ad       	ldd	r20, Z+60	; 0x3c
    355c:	55 ad       	ldd	r21, Z+61	; 0x3d
    355e:	28 8f       	std	Y+24, r18	; 0x18
    3560:	39 8f       	std	Y+25, r19	; 0x19
    3562:	4a 8f       	std	Y+26, r20	; 0x1a
    3564:	5b 8f       	std	Y+27, r21	; 0x1b
    3566:	80 91 0d 2a 	lds	r24, 0x2A0D	; 0x802a0d <sCal+0x28>
    356a:	90 91 0e 2a 	lds	r25, 0x2A0E	; 0x802a0e <sCal+0x29>
    356e:	a0 91 0f 2a 	lds	r26, 0x2A0F	; 0x802a0f <sCal+0x2a>
    3572:	b0 91 10 2a 	lds	r27, 0x2A10	; 0x802a10 <sCal+0x2b>
    3576:	8c 8f       	std	Y+28, r24	; 0x1c
    3578:	9d 8f       	std	Y+29, r25	; 0x1d
    357a:	ae 8f       	std	Y+30, r26	; 0x1e
    357c:	bf 8f       	std	Y+31, r27	; 0x1f
		sSensorDataSnapshot.adc.h2a.scPowerFiltered / (256.0f * sCal.scVoltageScale * sCal.scCurrentScale), /* Power */
		sSensorDataSnapshot.adc.h2a.scEnergy / (CYCLES_PER_SECOND * sCal.scVoltageScale * sCal.scCurrentScale), /* Energy */
		sSensorDataSnapshot.motorVoltageFiltered / (65536.0f * sCal.motorVoltageScale),
		sSensorDataSnapshot.motorCurrentFiltered / (65536.0f * sCal.motorCurrentScale),
		sSensorDataSnapshot.motorPowerFiltered / (256.0f * sCal.motorVoltageScale * sCal.motorCurrentScale),
		sSensorDataSnapshot.motorEnergy / (CYCLES_PER_SECOND * sCal.motorVoltageScale * sCal.motorCurrentScale),
    357e:	25 eb       	ldi	r18, 0xB5	; 181
    3580:	39 e2       	ldi	r19, 0x29	; 41
    3582:	d9 01       	movw	r26, r18
    3584:	bc 91       	ld	r27, X
    3586:	c0 56       	subi	r28, 0x60	; 96
    3588:	df 4f       	sbci	r29, 0xFF	; 255
    358a:	b8 83       	st	Y, r27
    358c:	c0 5a       	subi	r28, 0xA0	; 160
    358e:	d0 40       	sbci	r29, 0x00	; 0
    3590:	40 91 b6 29 	lds	r20, 0x29B6	; 0x8029b6 <sSensorDataSnapshot+0x4b>
    3594:	cf 55       	subi	r28, 0x5F	; 95
    3596:	df 4f       	sbci	r29, 0xFF	; 255
    3598:	48 83       	st	Y, r20
    359a:	c1 5a       	subi	r28, 0xA1	; 161
    359c:	d0 40       	sbci	r29, 0x00	; 0
    359e:	50 91 b7 29 	lds	r21, 0x29B7	; 0x8029b7 <sSensorDataSnapshot+0x4c>
    35a2:	ce 55       	subi	r28, 0x5E	; 94
    35a4:	df 4f       	sbci	r29, 0xFF	; 255
    35a6:	58 83       	st	Y, r21
    35a8:	c2 5a       	subi	r28, 0xA2	; 162
    35aa:	d0 40       	sbci	r29, 0x00	; 0
    35ac:	80 91 b8 29 	lds	r24, 0x29B8	; 0x8029b8 <sSensorDataSnapshot+0x4d>
    35b0:	cd 55       	subi	r28, 0x5D	; 93
    35b2:	df 4f       	sbci	r29, 0xFF	; 255
    35b4:	88 83       	st	Y, r24
    35b6:	c3 5a       	subi	r28, 0xA3	; 163
    35b8:	d0 40       	sbci	r29, 0x00	; 0
    35ba:	90 91 b9 29 	lds	r25, 0x29B9	; 0x8029b9 <sSensorDataSnapshot+0x4e>
    35be:	cc 55       	subi	r28, 0x5C	; 92
    35c0:	df 4f       	sbci	r29, 0xFF	; 255
    35c2:	98 83       	st	Y, r25
    35c4:	c4 5a       	subi	r28, 0xA4	; 164
    35c6:	d0 40       	sbci	r29, 0x00	; 0
    35c8:	a0 91 ba 29 	lds	r26, 0x29BA	; 0x8029ba <sSensorDataSnapshot+0x4f>
    35cc:	cb 55       	subi	r28, 0x5B	; 91
    35ce:	df 4f       	sbci	r29, 0xFF	; 255
    35d0:	a8 83       	st	Y, r26
    35d2:	c5 5a       	subi	r28, 0xA5	; 165
    35d4:	d0 40       	sbci	r29, 0x00	; 0
    35d6:	b0 91 bb 29 	lds	r27, 0x29BB	; 0x8029bb <sSensorDataSnapshot+0x50>
    35da:	ca 55       	subi	r28, 0x5A	; 90
    35dc:	df 4f       	sbci	r29, 0xFF	; 255
    35de:	b8 83       	st	Y, r27
    35e0:	c6 5a       	subi	r28, 0xA6	; 166
    35e2:	d0 40       	sbci	r29, 0x00	; 0
    35e4:	40 91 bc 29 	lds	r20, 0x29BC	; 0x8029bc <sSensorDataSnapshot+0x51>
    35e8:	c0 53       	subi	r28, 0x30	; 48
    35ea:	df 4f       	sbci	r29, 0xFF	; 255
    35ec:	48 83       	st	Y, r20
    35ee:	c0 5d       	subi	r28, 0xD0	; 208
    35f0:	d0 40       	sbci	r29, 0x00	; 0
    35f2:	80 91 05 2a 	lds	r24, 0x2A05	; 0x802a05 <sCal+0x20>
    35f6:	90 91 06 2a 	lds	r25, 0x2A06	; 0x802a06 <sCal+0x21>
    35fa:	a0 91 07 2a 	lds	r26, 0x2A07	; 0x802a07 <sCal+0x22>
    35fe:	b0 91 08 2a 	lds	r27, 0x2A08	; 0x802a08 <sCal+0x23>
    3602:	88 a3       	std	Y+32, r24	; 0x20
    3604:	99 a3       	std	Y+33, r25	; 0x21
    3606:	aa a3       	std	Y+34, r26	; 0x22
    3608:	bb a3       	std	Y+35, r27	; 0x23
    360a:	20 91 09 2a 	lds	r18, 0x2A09	; 0x802a09 <sCal+0x24>
    360e:	30 91 0a 2a 	lds	r19, 0x2A0A	; 0x802a0a <sCal+0x25>
    3612:	40 91 0b 2a 	lds	r20, 0x2A0B	; 0x802a0b <sCal+0x26>
    3616:	50 91 0c 2a 	lds	r21, 0x2A0C	; 0x802a0c <sCal+0x27>
    361a:	2c a3       	std	Y+36, r18	; 0x24
    361c:	3d a3       	std	Y+37, r19	; 0x25
    361e:	4e a3       	std	Y+38, r20	; 0x26
    3620:	5f a3       	std	Y+39, r21	; 0x27
		sSensorDataSnapshot.adc.h2a.scCurrentFiltered / (65536.0f * sCal.scCurrentScale),
		sSensorDataSnapshot.adc.h2a.scPowerFiltered / (256.0f * sCal.scVoltageScale * sCal.scCurrentScale), /* Power */
		sSensorDataSnapshot.adc.h2a.scEnergy / (CYCLES_PER_SECOND * sCal.scVoltageScale * sCal.scCurrentScale), /* Energy */
		sSensorDataSnapshot.motorVoltageFiltered / (65536.0f * sCal.motorVoltageScale),
		sSensorDataSnapshot.motorCurrentFiltered / (65536.0f * sCal.motorCurrentScale),
		sSensorDataSnapshot.motorPowerFiltered / (256.0f * sCal.motorVoltageScale * sCal.motorCurrentScale),
    3622:	80 91 ad 29 	lds	r24, 0x29AD	; 0x8029ad <sSensorDataSnapshot+0x42>
    3626:	90 91 ae 29 	lds	r25, 0x29AE	; 0x8029ae <sSensorDataSnapshot+0x43>
    362a:	a0 91 af 29 	lds	r26, 0x29AF	; 0x8029af <sSensorDataSnapshot+0x44>
    362e:	b0 91 b0 29 	lds	r27, 0x29B0	; 0x8029b0 <sSensorDataSnapshot+0x45>
    3632:	88 a7       	std	Y+40, r24	; 0x28
    3634:	99 a7       	std	Y+41, r25	; 0x29
    3636:	aa a7       	std	Y+42, r26	; 0x2a
    3638:	bb a7       	std	Y+43, r27	; 0x2b
    363a:	20 91 05 2a 	lds	r18, 0x2A05	; 0x802a05 <sCal+0x20>
    363e:	30 91 06 2a 	lds	r19, 0x2A06	; 0x802a06 <sCal+0x21>
    3642:	40 91 07 2a 	lds	r20, 0x2A07	; 0x802a07 <sCal+0x22>
    3646:	50 91 08 2a 	lds	r21, 0x2A08	; 0x802a08 <sCal+0x23>
    364a:	2c a7       	std	Y+44, r18	; 0x2c
    364c:	3d a7       	std	Y+45, r19	; 0x2d
    364e:	4e a7       	std	Y+46, r20	; 0x2e
    3650:	5f a7       	std	Y+47, r21	; 0x2f
    3652:	80 91 09 2a 	lds	r24, 0x2A09	; 0x802a09 <sCal+0x24>
    3656:	90 91 0a 2a 	lds	r25, 0x2A0A	; 0x802a0a <sCal+0x25>
    365a:	a0 91 0b 2a 	lds	r26, 0x2A0B	; 0x802a0b <sCal+0x26>
    365e:	b0 91 0c 2a 	lds	r27, 0x2A0C	; 0x802a0c <sCal+0x27>
    3662:	88 ab       	std	Y+48, r24	; 0x30
    3664:	99 ab       	std	Y+49, r25	; 0x31
    3666:	aa ab       	std	Y+50, r26	; 0x32
    3668:	bb ab       	std	Y+51, r27	; 0x33
		sSensorDataSnapshot.adc.h2a.scVoltageFiltered / (65536.0f * sCal.scVoltageScale),
		sSensorDataSnapshot.adc.h2a.scCurrentFiltered / (65536.0f * sCal.scCurrentScale),
		sSensorDataSnapshot.adc.h2a.scPowerFiltered / (256.0f * sCal.scVoltageScale * sCal.scCurrentScale), /* Power */
		sSensorDataSnapshot.adc.h2a.scEnergy / (CYCLES_PER_SECOND * sCal.scVoltageScale * sCal.scCurrentScale), /* Energy */
		sSensorDataSnapshot.motorVoltageFiltered / (65536.0f * sCal.motorVoltageScale),
		sSensorDataSnapshot.motorCurrentFiltered / (65536.0f * sCal.motorCurrentScale),
    366a:	26 a9       	ldd	r18, Z+54	; 0x36
    366c:	37 a9       	ldd	r19, Z+55	; 0x37
    366e:	40 ad       	ldd	r20, Z+56	; 0x38
    3670:	51 ad       	ldd	r21, Z+57	; 0x39
    3672:	2c ab       	std	Y+52, r18	; 0x34
    3674:	3d ab       	std	Y+53, r19	; 0x35
    3676:	4e ab       	std	Y+54, r20	; 0x36
    3678:	5f ab       	std	Y+55, r21	; 0x37
    367a:	80 91 09 2a 	lds	r24, 0x2A09	; 0x802a09 <sCal+0x24>
    367e:	90 91 0a 2a 	lds	r25, 0x2A0A	; 0x802a0a <sCal+0x25>
    3682:	a0 91 0b 2a 	lds	r26, 0x2A0B	; 0x802a0b <sCal+0x26>
    3686:	b0 91 0c 2a 	lds	r27, 0x2A0C	; 0x802a0c <sCal+0x27>
    368a:	88 af       	std	Y+56, r24	; 0x38
    368c:	99 af       	std	Y+57, r25	; 0x39
    368e:	aa af       	std	Y+58, r26	; 0x3a
    3690:	bb af       	std	Y+59, r27	; 0x3b
		sSensorDataSnapshot.adc.h2a.fcEnergy / (CYCLES_PER_SECOND * sCal.fcVoltageScale * sCal.fcCurrentScale), /* Energy */
		sSensorDataSnapshot.adc.h2a.scVoltageFiltered / (65536.0f * sCal.scVoltageScale),
		sSensorDataSnapshot.adc.h2a.scCurrentFiltered / (65536.0f * sCal.scCurrentScale),
		sSensorDataSnapshot.adc.h2a.scPowerFiltered / (256.0f * sCal.scVoltageScale * sCal.scCurrentScale), /* Power */
		sSensorDataSnapshot.adc.h2a.scEnergy / (CYCLES_PER_SECOND * sCal.scVoltageScale * sCal.scCurrentScale), /* Energy */
		sSensorDataSnapshot.motorVoltageFiltered / (65536.0f * sCal.motorVoltageScale),
    3692:	22 a9       	ldd	r18, Z+50	; 0x32
    3694:	33 a9       	ldd	r19, Z+51	; 0x33
    3696:	44 a9       	ldd	r20, Z+52	; 0x34
    3698:	55 a9       	ldd	r21, Z+53	; 0x35
    369a:	2c af       	std	Y+60, r18	; 0x3c
    369c:	3d af       	std	Y+61, r19	; 0x3d
    369e:	4e af       	std	Y+62, r20	; 0x3e
    36a0:	5f af       	std	Y+63, r21	; 0x3f
    36a2:	80 91 05 2a 	lds	r24, 0x2A05	; 0x802a05 <sCal+0x20>
    36a6:	90 91 06 2a 	lds	r25, 0x2A06	; 0x802a06 <sCal+0x21>
    36aa:	a0 91 07 2a 	lds	r26, 0x2A07	; 0x802a07 <sCal+0x22>
    36ae:	b0 91 08 2a 	lds	r27, 0x2A08	; 0x802a08 <sCal+0x23>
    36b2:	24 96       	adiw	r28, 0x04	; 4
    36b4:	8c af       	std	Y+60, r24	; 0x3c
    36b6:	9d af       	std	Y+61, r25	; 0x3d
    36b8:	ae af       	std	Y+62, r26	; 0x3e
    36ba:	bf af       	std	Y+63, r27	; 0x3f
    36bc:	24 97       	sbiw	r28, 0x04	; 4
		sSensorDataSnapshot.adc.h2a.fcPowerFiltered / (256.0f * sCal.fcVoltageScale * sCal.fcCurrentScale), /* Power */
		sSensorDataSnapshot.adc.h2a.fcEnergy / (CYCLES_PER_SECOND * sCal.fcVoltageScale * sCal.fcCurrentScale), /* Energy */
		sSensorDataSnapshot.adc.h2a.scVoltageFiltered / (65536.0f * sCal.scVoltageScale),
		sSensorDataSnapshot.adc.h2a.scCurrentFiltered / (65536.0f * sCal.scCurrentScale),
		sSensorDataSnapshot.adc.h2a.scPowerFiltered / (256.0f * sCal.scVoltageScale * sCal.scCurrentScale), /* Power */
		sSensorDataSnapshot.adc.h2a.scEnergy / (CYCLES_PER_SECOND * sCal.scVoltageScale * sCal.scCurrentScale), /* Energy */
    36be:	90 a1       	ldd	r25, Z+32	; 0x20
    36c0:	c9 55       	subi	r28, 0x59	; 89
    36c2:	df 4f       	sbci	r29, 0xFF	; 255
    36c4:	98 83       	st	Y, r25
    36c6:	c7 5a       	subi	r28, 0xA7	; 167
    36c8:	d0 40       	sbci	r29, 0x00	; 0
    36ca:	a1 a1       	ldd	r26, Z+33	; 0x21
    36cc:	c8 55       	subi	r28, 0x58	; 88
    36ce:	df 4f       	sbci	r29, 0xFF	; 255
    36d0:	a8 83       	st	Y, r26
    36d2:	c8 5a       	subi	r28, 0xA8	; 168
    36d4:	d0 40       	sbci	r29, 0x00	; 0
    36d6:	b2 a1       	ldd	r27, Z+34	; 0x22
    36d8:	c7 55       	subi	r28, 0x57	; 87
    36da:	df 4f       	sbci	r29, 0xFF	; 255
    36dc:	b8 83       	st	Y, r27
    36de:	c9 5a       	subi	r28, 0xA9	; 169
    36e0:	d0 40       	sbci	r29, 0x00	; 0
    36e2:	23 a1       	ldd	r18, Z+35	; 0x23
    36e4:	c6 55       	subi	r28, 0x56	; 86
    36e6:	df 4f       	sbci	r29, 0xFF	; 255
    36e8:	28 83       	st	Y, r18
    36ea:	ca 5a       	subi	r28, 0xAA	; 170
    36ec:	d0 40       	sbci	r29, 0x00	; 0
    36ee:	34 a1       	ldd	r19, Z+36	; 0x24
    36f0:	c5 55       	subi	r28, 0x55	; 85
    36f2:	df 4f       	sbci	r29, 0xFF	; 255
    36f4:	38 83       	st	Y, r19
    36f6:	cb 5a       	subi	r28, 0xAB	; 171
    36f8:	d0 40       	sbci	r29, 0x00	; 0
    36fa:	45 a1       	ldd	r20, Z+37	; 0x25
    36fc:	c4 55       	subi	r28, 0x54	; 84
    36fe:	df 4f       	sbci	r29, 0xFF	; 255
    3700:	48 83       	st	Y, r20
    3702:	cc 5a       	subi	r28, 0xAC	; 172
    3704:	d0 40       	sbci	r29, 0x00	; 0
    3706:	56 a1       	ldd	r21, Z+38	; 0x26
    3708:	c3 55       	subi	r28, 0x53	; 83
    370a:	df 4f       	sbci	r29, 0xFF	; 255
    370c:	58 83       	st	Y, r21
    370e:	cd 5a       	subi	r28, 0xAD	; 173
    3710:	d0 40       	sbci	r29, 0x00	; 0
    3712:	87 a1       	ldd	r24, Z+39	; 0x27
    3714:	cf 52       	subi	r28, 0x2F	; 47
    3716:	df 4f       	sbci	r29, 0xFF	; 255
    3718:	88 83       	st	Y, r24
    371a:	c1 5d       	subi	r28, 0xD1	; 209
    371c:	d0 40       	sbci	r29, 0x00	; 0
    371e:	20 91 f5 29 	lds	r18, 0x29F5	; 0x8029f5 <sCal+0x10>
    3722:	30 91 f6 29 	lds	r19, 0x29F6	; 0x8029f6 <sCal+0x11>
    3726:	40 91 f7 29 	lds	r20, 0x29F7	; 0x8029f7 <sCal+0x12>
    372a:	50 91 f8 29 	lds	r21, 0x29F8	; 0x8029f8 <sCal+0x13>
    372e:	28 96       	adiw	r28, 0x08	; 8
    3730:	2c af       	std	Y+60, r18	; 0x3c
    3732:	3d af       	std	Y+61, r19	; 0x3d
    3734:	4e af       	std	Y+62, r20	; 0x3e
    3736:	5f af       	std	Y+63, r21	; 0x3f
    3738:	28 97       	sbiw	r28, 0x08	; 8
    373a:	80 91 f9 29 	lds	r24, 0x29F9	; 0x8029f9 <sCal+0x14>
    373e:	90 91 fa 29 	lds	r25, 0x29FA	; 0x8029fa <sCal+0x15>
    3742:	a0 91 fb 29 	lds	r26, 0x29FB	; 0x8029fb <sCal+0x16>
    3746:	b0 91 fc 29 	lds	r27, 0x29FC	; 0x8029fc <sCal+0x17>
    374a:	2c 96       	adiw	r28, 0x0c	; 12
    374c:	8c af       	std	Y+60, r24	; 0x3c
    374e:	9d af       	std	Y+61, r25	; 0x3d
    3750:	ae af       	std	Y+62, r26	; 0x3e
    3752:	bf af       	std	Y+63, r27	; 0x3f
    3754:	2c 97       	sbiw	r28, 0x0c	; 12
		sSensorDataSnapshot.adc.h2a.fcCurrentFiltered / (65536.0f * sCal.fcCurrentScale),
		sSensorDataSnapshot.adc.h2a.fcPowerFiltered / (256.0f * sCal.fcVoltageScale * sCal.fcCurrentScale), /* Power */
		sSensorDataSnapshot.adc.h2a.fcEnergy / (CYCLES_PER_SECOND * sCal.fcVoltageScale * sCal.fcCurrentScale), /* Energy */
		sSensorDataSnapshot.adc.h2a.scVoltageFiltered / (65536.0f * sCal.scVoltageScale),
		sSensorDataSnapshot.adc.h2a.scCurrentFiltered / (65536.0f * sCal.scCurrentScale),
		sSensorDataSnapshot.adc.h2a.scPowerFiltered / (256.0f * sCal.scVoltageScale * sCal.scCurrentScale), /* Power */
    3756:	24 89       	ldd	r18, Z+20	; 0x14
    3758:	35 89       	ldd	r19, Z+21	; 0x15
    375a:	46 89       	ldd	r20, Z+22	; 0x16
    375c:	57 89       	ldd	r21, Z+23	; 0x17
    375e:	60 96       	adiw	r28, 0x10	; 16
    3760:	2c af       	std	Y+60, r18	; 0x3c
    3762:	3d af       	std	Y+61, r19	; 0x3d
    3764:	4e af       	std	Y+62, r20	; 0x3e
    3766:	5f af       	std	Y+63, r21	; 0x3f
    3768:	60 97       	sbiw	r28, 0x10	; 16
    376a:	80 91 f5 29 	lds	r24, 0x29F5	; 0x8029f5 <sCal+0x10>
    376e:	90 91 f6 29 	lds	r25, 0x29F6	; 0x8029f6 <sCal+0x11>
    3772:	a0 91 f7 29 	lds	r26, 0x29F7	; 0x8029f7 <sCal+0x12>
    3776:	b0 91 f8 29 	lds	r27, 0x29F8	; 0x8029f8 <sCal+0x13>
    377a:	64 96       	adiw	r28, 0x14	; 20
    377c:	8c af       	std	Y+60, r24	; 0x3c
    377e:	9d af       	std	Y+61, r25	; 0x3d
    3780:	ae af       	std	Y+62, r26	; 0x3e
    3782:	bf af       	std	Y+63, r27	; 0x3f
    3784:	64 97       	sbiw	r28, 0x14	; 20
    3786:	20 91 f9 29 	lds	r18, 0x29F9	; 0x8029f9 <sCal+0x14>
    378a:	30 91 fa 29 	lds	r19, 0x29FA	; 0x8029fa <sCal+0x15>
    378e:	40 91 fb 29 	lds	r20, 0x29FB	; 0x8029fb <sCal+0x16>
    3792:	50 91 fc 29 	lds	r21, 0x29FC	; 0x8029fc <sCal+0x17>
    3796:	68 96       	adiw	r28, 0x18	; 24
    3798:	2c af       	std	Y+60, r18	; 0x3c
    379a:	3d af       	std	Y+61, r19	; 0x3d
    379c:	4e af       	std	Y+62, r20	; 0x3e
    379e:	5f af       	std	Y+63, r21	; 0x3f
    37a0:	68 97       	sbiw	r28, 0x18	; 24
		sSensorDataSnapshot.adc.h2a.fcVoltageFiltered / (65536.0f * sCal.fcVoltageScale),
		sSensorDataSnapshot.adc.h2a.fcCurrentFiltered / (65536.0f * sCal.fcCurrentScale),
		sSensorDataSnapshot.adc.h2a.fcPowerFiltered / (256.0f * sCal.fcVoltageScale * sCal.fcCurrentScale), /* Power */
		sSensorDataSnapshot.adc.h2a.fcEnergy / (CYCLES_PER_SECOND * sCal.fcVoltageScale * sCal.fcCurrentScale), /* Energy */
		sSensorDataSnapshot.adc.h2a.scVoltageFiltered / (65536.0f * sCal.scVoltageScale),
		sSensorDataSnapshot.adc.h2a.scCurrentFiltered / (65536.0f * sCal.scCurrentScale),
    37a2:	84 85       	ldd	r24, Z+12	; 0x0c
    37a4:	95 85       	ldd	r25, Z+13	; 0x0d
    37a6:	a6 85       	ldd	r26, Z+14	; 0x0e
    37a8:	b7 85       	ldd	r27, Z+15	; 0x0f
    37aa:	6c 96       	adiw	r28, 0x1c	; 28
    37ac:	8c af       	std	Y+60, r24	; 0x3c
    37ae:	9d af       	std	Y+61, r25	; 0x3d
    37b0:	ae af       	std	Y+62, r26	; 0x3e
    37b2:	bf af       	std	Y+63, r27	; 0x3f
    37b4:	6c 97       	sbiw	r28, 0x1c	; 28
    37b6:	20 91 f9 29 	lds	r18, 0x29F9	; 0x8029f9 <sCal+0x14>
    37ba:	30 91 fa 29 	lds	r19, 0x29FA	; 0x8029fa <sCal+0x15>
    37be:	40 91 fb 29 	lds	r20, 0x29FB	; 0x8029fb <sCal+0x16>
    37c2:	50 91 fc 29 	lds	r21, 0x29FC	; 0x8029fc <sCal+0x17>
    37c6:	a0 96       	adiw	r28, 0x20	; 32
    37c8:	2c af       	std	Y+60, r18	; 0x3c
    37ca:	3d af       	std	Y+61, r19	; 0x3d
    37cc:	4e af       	std	Y+62, r20	; 0x3e
    37ce:	5f af       	std	Y+63, r21	; 0x3f
    37d0:	a0 97       	sbiw	r28, 0x20	; 32
		(float) sSessionCycleCountSnapshot / CYCLES_PER_SECOND,
		sSensorDataSnapshot.adc.h2a.fcVoltageFiltered / (65536.0f * sCal.fcVoltageScale),
		sSensorDataSnapshot.adc.h2a.fcCurrentFiltered / (65536.0f * sCal.fcCurrentScale),
		sSensorDataSnapshot.adc.h2a.fcPowerFiltered / (256.0f * sCal.fcVoltageScale * sCal.fcCurrentScale), /* Power */
		sSensorDataSnapshot.adc.h2a.fcEnergy / (CYCLES_PER_SECOND * sCal.fcVoltageScale * sCal.fcCurrentScale), /* Energy */
		sSensorDataSnapshot.adc.h2a.scVoltageFiltered / (65536.0f * sCal.scVoltageScale),
    37d2:	80 85       	ldd	r24, Z+8	; 0x08
    37d4:	91 85       	ldd	r25, Z+9	; 0x09
    37d6:	a2 85       	ldd	r26, Z+10	; 0x0a
    37d8:	b3 85       	ldd	r27, Z+11	; 0x0b
    37da:	a4 96       	adiw	r28, 0x24	; 36
    37dc:	8c af       	std	Y+60, r24	; 0x3c
    37de:	9d af       	std	Y+61, r25	; 0x3d
    37e0:	ae af       	std	Y+62, r26	; 0x3e
    37e2:	bf af       	std	Y+63, r27	; 0x3f
    37e4:	a4 97       	sbiw	r28, 0x24	; 36
    37e6:	20 91 f5 29 	lds	r18, 0x29F5	; 0x8029f5 <sCal+0x10>
    37ea:	30 91 f6 29 	lds	r19, 0x29F6	; 0x8029f6 <sCal+0x11>
    37ee:	40 91 f7 29 	lds	r20, 0x29F7	; 0x8029f7 <sCal+0x12>
    37f2:	50 91 f8 29 	lds	r21, 0x29F8	; 0x8029f8 <sCal+0x13>
    37f6:	a8 96       	adiw	r28, 0x28	; 40
    37f8:	2c af       	std	Y+60, r18	; 0x3c
    37fa:	3d af       	std	Y+61, r19	; 0x3d
    37fc:	4e af       	std	Y+62, r20	; 0x3e
    37fe:	5f af       	std	Y+63, r21	; 0x3f
    3800:	a8 97       	sbiw	r28, 0x28	; 40
	fprintf(fp, ">03|02:%.4f,%.3f,%.3f,%.2f,%.0f,%.3f,%.3f,%.2f,%.0f,%.3f,%.3f,%.1f,%.0f,%.3f,%.3f,%.1f,%.0f,%.2f,%.0f,%.0f,%.3f,%.2f,%d,%.3f,%d,%.3f,%d,%.3f,%d,%.3f,%d,%.3f,",
		(float) sSessionCycleCountSnapshot / CYCLES_PER_SECOND,
		sSensorDataSnapshot.adc.h2a.fcVoltageFiltered / (65536.0f * sCal.fcVoltageScale),
		sSensorDataSnapshot.adc.h2a.fcCurrentFiltered / (65536.0f * sCal.fcCurrentScale),
		sSensorDataSnapshot.adc.h2a.fcPowerFiltered / (256.0f * sCal.fcVoltageScale * sCal.fcCurrentScale), /* Power */
		sSensorDataSnapshot.adc.h2a.fcEnergy / (CYCLES_PER_SECOND * sCal.fcVoltageScale * sCal.fcCurrentScale), /* Energy */
    3802:	30 8d       	ldd	r19, Z+24	; 0x18
    3804:	c2 55       	subi	r28, 0x52	; 82
    3806:	df 4f       	sbci	r29, 0xFF	; 255
    3808:	38 83       	st	Y, r19
    380a:	ce 5a       	subi	r28, 0xAE	; 174
    380c:	d0 40       	sbci	r29, 0x00	; 0
    380e:	41 8d       	ldd	r20, Z+25	; 0x19
    3810:	c1 55       	subi	r28, 0x51	; 81
    3812:	df 4f       	sbci	r29, 0xFF	; 255
    3814:	48 83       	st	Y, r20
    3816:	cf 5a       	subi	r28, 0xAF	; 175
    3818:	d0 40       	sbci	r29, 0x00	; 0
    381a:	52 8d       	ldd	r21, Z+26	; 0x1a
    381c:	c0 55       	subi	r28, 0x50	; 80
    381e:	df 4f       	sbci	r29, 0xFF	; 255
    3820:	58 83       	st	Y, r21
    3822:	c0 5b       	subi	r28, 0xB0	; 176
    3824:	d0 40       	sbci	r29, 0x00	; 0
    3826:	83 8d       	ldd	r24, Z+27	; 0x1b
    3828:	cf 54       	subi	r28, 0x4F	; 79
    382a:	df 4f       	sbci	r29, 0xFF	; 255
    382c:	88 83       	st	Y, r24
    382e:	c1 5b       	subi	r28, 0xB1	; 177
    3830:	d0 40       	sbci	r29, 0x00	; 0
    3832:	94 8d       	ldd	r25, Z+28	; 0x1c
    3834:	ce 54       	subi	r28, 0x4E	; 78
    3836:	df 4f       	sbci	r29, 0xFF	; 255
    3838:	98 83       	st	Y, r25
    383a:	c2 5b       	subi	r28, 0xB2	; 178
    383c:	d0 40       	sbci	r29, 0x00	; 0
    383e:	a5 8d       	ldd	r26, Z+29	; 0x1d
    3840:	cd 54       	subi	r28, 0x4D	; 77
    3842:	df 4f       	sbci	r29, 0xFF	; 255
    3844:	a8 83       	st	Y, r26
    3846:	c3 5b       	subi	r28, 0xB3	; 179
    3848:	d0 40       	sbci	r29, 0x00	; 0
    384a:	b6 8d       	ldd	r27, Z+30	; 0x1e
    384c:	cc 54       	subi	r28, 0x4C	; 76
    384e:	df 4f       	sbci	r29, 0xFF	; 255
    3850:	b8 83       	st	Y, r27
    3852:	c4 5b       	subi	r28, 0xB4	; 180
    3854:	d0 40       	sbci	r29, 0x00	; 0
    3856:	27 8d       	ldd	r18, Z+31	; 0x1f
    3858:	cb 54       	subi	r28, 0x4B	; 75
    385a:	df 4f       	sbci	r29, 0xFF	; 255
    385c:	28 83       	st	Y, r18
    385e:	c5 5b       	subi	r28, 0xB5	; 181
    3860:	d0 40       	sbci	r29, 0x00	; 0
    3862:	80 91 ed 29 	lds	r24, 0x29ED	; 0x8029ed <sCal+0x8>
    3866:	90 91 ee 29 	lds	r25, 0x29EE	; 0x8029ee <sCal+0x9>
    386a:	a0 91 ef 29 	lds	r26, 0x29EF	; 0x8029ef <sCal+0xa>
    386e:	b0 91 f0 29 	lds	r27, 0x29F0	; 0x8029f0 <sCal+0xb>
    3872:	ac 96       	adiw	r28, 0x2c	; 44
    3874:	8c af       	std	Y+60, r24	; 0x3c
    3876:	9d af       	std	Y+61, r25	; 0x3d
    3878:	ae af       	std	Y+62, r26	; 0x3e
    387a:	bf af       	std	Y+63, r27	; 0x3f
    387c:	ac 97       	sbiw	r28, 0x2c	; 44
    387e:	20 91 f1 29 	lds	r18, 0x29F1	; 0x8029f1 <sCal+0xc>
    3882:	30 91 f2 29 	lds	r19, 0x29F2	; 0x8029f2 <sCal+0xd>
    3886:	40 91 f3 29 	lds	r20, 0x29F3	; 0x8029f3 <sCal+0xe>
    388a:	50 91 f4 29 	lds	r21, 0x29F4	; 0x8029f4 <sCal+0xf>
    388e:	e0 96       	adiw	r28, 0x30	; 48
    3890:	2c af       	std	Y+60, r18	; 0x3c
    3892:	3d af       	std	Y+61, r19	; 0x3d
    3894:	4e af       	std	Y+62, r20	; 0x3e
    3896:	5f af       	std	Y+63, r21	; 0x3f
    3898:	e0 97       	sbiw	r28, 0x30	; 48

	fprintf(fp, ">03|02:%.4f,%.3f,%.3f,%.2f,%.0f,%.3f,%.3f,%.2f,%.0f,%.3f,%.3f,%.1f,%.0f,%.3f,%.3f,%.1f,%.0f,%.2f,%.0f,%.0f,%.3f,%.2f,%d,%.3f,%d,%.3f,%d,%.3f,%d,%.3f,%d,%.3f,",
		(float) sSessionCycleCountSnapshot / CYCLES_PER_SECOND,
		sSensorDataSnapshot.adc.h2a.fcVoltageFiltered / (65536.0f * sCal.fcVoltageScale),
		sSensorDataSnapshot.adc.h2a.fcCurrentFiltered / (65536.0f * sCal.fcCurrentScale),
		sSensorDataSnapshot.adc.h2a.fcPowerFiltered / (256.0f * sCal.fcVoltageScale * sCal.fcCurrentScale), /* Power */
    389a:	80 89       	ldd	r24, Z+16	; 0x10
    389c:	91 89       	ldd	r25, Z+17	; 0x11
    389e:	a2 89       	ldd	r26, Z+18	; 0x12
    38a0:	b3 89       	ldd	r27, Z+19	; 0x13
    38a2:	e4 96       	adiw	r28, 0x34	; 52
    38a4:	8c af       	std	Y+60, r24	; 0x3c
    38a6:	9d af       	std	Y+61, r25	; 0x3d
    38a8:	ae af       	std	Y+62, r26	; 0x3e
    38aa:	bf af       	std	Y+63, r27	; 0x3f
    38ac:	e4 97       	sbiw	r28, 0x34	; 52
    38ae:	20 91 ed 29 	lds	r18, 0x29ED	; 0x8029ed <sCal+0x8>
    38b2:	30 91 ee 29 	lds	r19, 0x29EE	; 0x8029ee <sCal+0x9>
    38b6:	40 91 ef 29 	lds	r20, 0x29EF	; 0x8029ef <sCal+0xa>
    38ba:	50 91 f0 29 	lds	r21, 0x29F0	; 0x8029f0 <sCal+0xb>
    38be:	e8 96       	adiw	r28, 0x38	; 56
    38c0:	2c af       	std	Y+60, r18	; 0x3c
    38c2:	3d af       	std	Y+61, r19	; 0x3d
    38c4:	4e af       	std	Y+62, r20	; 0x3e
    38c6:	5f af       	std	Y+63, r21	; 0x3f
    38c8:	e8 97       	sbiw	r28, 0x38	; 56
    38ca:	80 91 f1 29 	lds	r24, 0x29F1	; 0x8029f1 <sCal+0xc>
    38ce:	90 91 f2 29 	lds	r25, 0x29F2	; 0x8029f2 <sCal+0xd>
    38d2:	a0 91 f3 29 	lds	r26, 0x29F3	; 0x8029f3 <sCal+0xe>
    38d6:	b0 91 f4 29 	lds	r27, 0x29F4	; 0x8029f4 <sCal+0xf>
    38da:	ec 96       	adiw	r28, 0x3c	; 60
    38dc:	8c af       	std	Y+60, r24	; 0x3c
    38de:	9d af       	std	Y+61, r25	; 0x3d
    38e0:	ae af       	std	Y+62, r26	; 0x3e
    38e2:	bf af       	std	Y+63, r27	; 0x3f
    38e4:	ec 97       	sbiw	r28, 0x3c	; 60
	while(!(IsSnapshotDone())) ; /* Wait for the snapshot to be taken */

	fprintf(fp, ">03|02:%.4f,%.3f,%.3f,%.2f,%.0f,%.3f,%.3f,%.2f,%.0f,%.3f,%.3f,%.1f,%.0f,%.3f,%.3f,%.1f,%.0f,%.2f,%.0f,%.0f,%.3f,%.2f,%d,%.3f,%d,%.3f,%d,%.3f,%d,%.3f,%d,%.3f,",
		(float) sSessionCycleCountSnapshot / CYCLES_PER_SECOND,
		sSensorDataSnapshot.adc.h2a.fcVoltageFiltered / (65536.0f * sCal.fcVoltageScale),
		sSensorDataSnapshot.adc.h2a.fcCurrentFiltered / (65536.0f * sCal.fcCurrentScale),
    38e6:	24 81       	ldd	r18, Z+4	; 0x04
    38e8:	35 81       	ldd	r19, Z+5	; 0x05
    38ea:	46 81       	ldd	r20, Z+6	; 0x06
    38ec:	57 81       	ldd	r21, Z+7	; 0x07
    38ee:	c4 58       	subi	r28, 0x84	; 132
    38f0:	df 4f       	sbci	r29, 0xFF	; 255
    38f2:	28 83       	st	Y, r18
    38f4:	39 83       	std	Y+1, r19	; 0x01
    38f6:	4a 83       	std	Y+2, r20	; 0x02
    38f8:	5b 83       	std	Y+3, r21	; 0x03
    38fa:	cc 57       	subi	r28, 0x7C	; 124
    38fc:	d0 40       	sbci	r29, 0x00	; 0
    38fe:	80 91 f1 29 	lds	r24, 0x29F1	; 0x8029f1 <sCal+0xc>
    3902:	90 91 f2 29 	lds	r25, 0x29F2	; 0x8029f2 <sCal+0xd>
    3906:	a0 91 f3 29 	lds	r26, 0x29F3	; 0x8029f3 <sCal+0xe>
    390a:	b0 91 f4 29 	lds	r27, 0x29F4	; 0x8029f4 <sCal+0xf>
    390e:	c0 58       	subi	r28, 0x80	; 128
    3910:	df 4f       	sbci	r29, 0xFF	; 255
    3912:	88 83       	st	Y, r24
    3914:	99 83       	std	Y+1, r25	; 0x01
    3916:	aa 83       	std	Y+2, r26	; 0x02
    3918:	bb 83       	std	Y+3, r27	; 0x03
    391a:	c0 58       	subi	r28, 0x80	; 128
    391c:	d0 40       	sbci	r29, 0x00	; 0
	/* Assume the calling code has already initiated a snapshot */
	while(!(IsSnapshotDone())) ; /* Wait for the snapshot to be taken */

	fprintf(fp, ">03|02:%.4f,%.3f,%.3f,%.2f,%.0f,%.3f,%.3f,%.2f,%.0f,%.3f,%.3f,%.1f,%.0f,%.3f,%.3f,%.1f,%.0f,%.2f,%.0f,%.0f,%.3f,%.2f,%d,%.3f,%d,%.3f,%d,%.3f,%d,%.3f,%d,%.3f,",
		(float) sSessionCycleCountSnapshot / CYCLES_PER_SECOND,
		sSensorDataSnapshot.adc.h2a.fcVoltageFiltered / (65536.0f * sCal.fcVoltageScale),
    391e:	20 81       	ld	r18, Z
    3920:	31 81       	ldd	r19, Z+1	; 0x01
    3922:	42 81       	ldd	r20, Z+2	; 0x02
    3924:	53 81       	ldd	r21, Z+3	; 0x03
    3926:	cc 57       	subi	r28, 0x7C	; 124
    3928:	df 4f       	sbci	r29, 0xFF	; 255
    392a:	28 83       	st	Y, r18
    392c:	39 83       	std	Y+1, r19	; 0x01
    392e:	4a 83       	std	Y+2, r20	; 0x02
    3930:	5b 83       	std	Y+3, r21	; 0x03
    3932:	c4 58       	subi	r28, 0x84	; 132
    3934:	d0 40       	sbci	r29, 0x00	; 0
    3936:	80 91 ed 29 	lds	r24, 0x29ED	; 0x8029ed <sCal+0x8>
    393a:	90 91 ee 29 	lds	r25, 0x29EE	; 0x8029ee <sCal+0x9>
    393e:	a0 91 ef 29 	lds	r26, 0x29EF	; 0x8029ef <sCal+0xa>
    3942:	b0 91 f0 29 	lds	r27, 0x29F0	; 0x8029f0 <sCal+0xb>
    3946:	c8 57       	subi	r28, 0x78	; 120
    3948:	df 4f       	sbci	r29, 0xFF	; 255
    394a:	88 83       	st	Y, r24
    394c:	99 83       	std	Y+1, r25	; 0x01
    394e:	aa 83       	std	Y+2, r26	; 0x02
    3950:	bb 83       	std	Y+3, r27	; 0x03
    3952:	c8 58       	subi	r28, 0x88	; 136
    3954:	d0 40       	sbci	r29, 0x00	; 0
void PrintCSV_H2A(FILE *fp) {
	/* Assume the calling code has already initiated a snapshot */
	while(!(IsSnapshotDone())) ; /* Wait for the snapshot to be taken */

	fprintf(fp, ">03|02:%.4f,%.3f,%.3f,%.2f,%.0f,%.3f,%.3f,%.2f,%.0f,%.3f,%.3f,%.1f,%.0f,%.3f,%.3f,%.1f,%.0f,%.2f,%.0f,%.0f,%.3f,%.2f,%d,%.3f,%d,%.3f,%d,%.3f,%d,%.3f,%d,%.3f,",
		(float) sSessionCycleCountSnapshot / CYCLES_PER_SECOND,
    3956:	20 91 67 29 	lds	r18, 0x2967	; 0x802967 <sSessionCycleCountSnapshot>
    395a:	30 91 68 29 	lds	r19, 0x2968	; 0x802968 <sSessionCycleCountSnapshot+0x1>
    395e:	40 91 69 29 	lds	r20, 0x2969	; 0x802969 <sSessionCycleCountSnapshot+0x2>
    3962:	50 91 6a 29 	lds	r21, 0x296A	; 0x80296a <sSessionCycleCountSnapshot+0x3>
    3966:	c4 57       	subi	r28, 0x74	; 116
    3968:	df 4f       	sbci	r29, 0xFF	; 255
    396a:	28 83       	st	Y, r18
    396c:	39 83       	std	Y+1, r19	; 0x01
    396e:	4a 83       	std	Y+2, r20	; 0x02
    3970:	5b 83       	std	Y+3, r21	; 0x03
    3972:	cc 58       	subi	r28, 0x8C	; 140
    3974:	d0 40       	sbci	r29, 0x00	; 0

void PrintCSV_H2A(FILE *fp) {
	/* Assume the calling code has already initiated a snapshot */
	while(!(IsSnapshotDone())) ; /* Wait for the snapshot to be taken */

	fprintf(fp, ">03|02:%.4f,%.3f,%.3f,%.2f,%.0f,%.3f,%.3f,%.2f,%.0f,%.3f,%.3f,%.1f,%.0f,%.3f,%.3f,%.1f,%.0f,%.2f,%.0f,%.0f,%.3f,%.2f,%d,%.3f,%d,%.3f,%d,%.3f,%d,%.3f,%d,%.3f,",
    3976:	c5 54       	subi	r28, 0x45	; 69
    3978:	df 4f       	sbci	r29, 0xFF	; 255
    397a:	38 81       	ld	r19, Y
    397c:	cb 5b       	subi	r28, 0xBB	; 187
    397e:	d0 40       	sbci	r29, 0x00	; 0
    3980:	3f 93       	push	r19
    3982:	c6 54       	subi	r28, 0x46	; 70
    3984:	df 4f       	sbci	r29, 0xFF	; 255
    3986:	48 81       	ld	r20, Y
    3988:	ca 5b       	subi	r28, 0xBA	; 186
    398a:	d0 40       	sbci	r29, 0x00	; 0
    398c:	4f 93       	push	r20
    398e:	c7 54       	subi	r28, 0x47	; 71
    3990:	df 4f       	sbci	r29, 0xFF	; 255
    3992:	58 81       	ld	r21, Y
    3994:	c9 5b       	subi	r28, 0xB9	; 185
    3996:	d0 40       	sbci	r29, 0x00	; 0
    3998:	5f 93       	push	r21
    399a:	c8 54       	subi	r28, 0x48	; 72
    399c:	df 4f       	sbci	r29, 0xFF	; 255
    399e:	88 81       	ld	r24, Y
    39a0:	c8 5b       	subi	r28, 0xB8	; 184
    39a2:	d0 40       	sbci	r29, 0x00	; 0
    39a4:	8f 93       	push	r24
    39a6:	cf 56       	subi	r28, 0x6F	; 111
    39a8:	df 4f       	sbci	r29, 0xFF	; 255
    39aa:	98 81       	ld	r25, Y
    39ac:	c1 59       	subi	r28, 0x91	; 145
    39ae:	d0 40       	sbci	r29, 0x00	; 0
    39b0:	9f 93       	push	r25
    39b2:	c0 57       	subi	r28, 0x70	; 112
    39b4:	df 4f       	sbci	r29, 0xFF	; 255
    39b6:	a8 81       	ld	r26, Y
    39b8:	c0 59       	subi	r28, 0x90	; 144
    39ba:	d0 40       	sbci	r29, 0x00	; 0
    39bc:	af 93       	push	r26
    39be:	c1 53       	subi	r28, 0x31	; 49
    39c0:	df 4f       	sbci	r29, 0xFF	; 255
    39c2:	b8 81       	ld	r27, Y
    39c4:	cf 5c       	subi	r28, 0xCF	; 207
    39c6:	d0 40       	sbci	r29, 0x00	; 0
    39c8:	bf 93       	push	r27
    39ca:	c2 53       	subi	r28, 0x32	; 50
    39cc:	df 4f       	sbci	r29, 0xFF	; 255
    39ce:	28 81       	ld	r18, Y
    39d0:	ce 5c       	subi	r28, 0xCE	; 206
    39d2:	d0 40       	sbci	r29, 0x00	; 0
    39d4:	2f 93       	push	r18
    39d6:	c3 53       	subi	r28, 0x33	; 51
    39d8:	df 4f       	sbci	r29, 0xFF	; 255
    39da:	38 81       	ld	r19, Y
    39dc:	cd 5c       	subi	r28, 0xCD	; 205
    39de:	d0 40       	sbci	r29, 0x00	; 0
    39e0:	3f 93       	push	r19
    39e2:	c4 53       	subi	r28, 0x34	; 52
    39e4:	df 4f       	sbci	r29, 0xFF	; 255
    39e6:	48 81       	ld	r20, Y
    39e8:	cc 5c       	subi	r28, 0xCC	; 204
    39ea:	d0 40       	sbci	r29, 0x00	; 0
    39ec:	4f 93       	push	r20
    39ee:	1f 92       	push	r1
    39f0:	1f 93       	push	r17
    39f2:	c1 54       	subi	r28, 0x41	; 65
    39f4:	df 4f       	sbci	r29, 0xFF	; 255
    39f6:	58 81       	ld	r21, Y
    39f8:	cf 5b       	subi	r28, 0xBF	; 191
    39fa:	d0 40       	sbci	r29, 0x00	; 0
    39fc:	5f 93       	push	r21
    39fe:	c2 54       	subi	r28, 0x42	; 66
    3a00:	df 4f       	sbci	r29, 0xFF	; 255
    3a02:	88 81       	ld	r24, Y
    3a04:	ce 5b       	subi	r28, 0xBE	; 190
    3a06:	d0 40       	sbci	r29, 0x00	; 0
    3a08:	8f 93       	push	r24
    3a0a:	c3 54       	subi	r28, 0x43	; 67
    3a0c:	df 4f       	sbci	r29, 0xFF	; 255
    3a0e:	98 81       	ld	r25, Y
    3a10:	cd 5b       	subi	r28, 0xBD	; 189
    3a12:	d0 40       	sbci	r29, 0x00	; 0
    3a14:	9f 93       	push	r25
    3a16:	c4 54       	subi	r28, 0x44	; 68
    3a18:	df 4f       	sbci	r29, 0xFF	; 255
    3a1a:	a8 81       	ld	r26, Y
    3a1c:	cc 5b       	subi	r28, 0xBC	; 188
    3a1e:	d0 40       	sbci	r29, 0x00	; 0
    3a20:	af 93       	push	r26
    3a22:	cd 56       	subi	r28, 0x6D	; 109
    3a24:	df 4f       	sbci	r29, 0xFF	; 255
    3a26:	b8 81       	ld	r27, Y
    3a28:	c3 59       	subi	r28, 0x93	; 147
    3a2a:	d0 40       	sbci	r29, 0x00	; 0
    3a2c:	bf 93       	push	r27
    3a2e:	ce 56       	subi	r28, 0x6E	; 110
    3a30:	df 4f       	sbci	r29, 0xFF	; 255
    3a32:	28 81       	ld	r18, Y
    3a34:	c2 59       	subi	r28, 0x92	; 146
    3a36:	d0 40       	sbci	r29, 0x00	; 0
    3a38:	2f 93       	push	r18
    3a3a:	cd 53       	subi	r28, 0x3D	; 61
    3a3c:	df 4f       	sbci	r29, 0xFF	; 255
    3a3e:	38 81       	ld	r19, Y
    3a40:	c3 5c       	subi	r28, 0xC3	; 195
    3a42:	d0 40       	sbci	r29, 0x00	; 0
    3a44:	3f 93       	push	r19
    3a46:	ce 53       	subi	r28, 0x3E	; 62
    3a48:	df 4f       	sbci	r29, 0xFF	; 255
    3a4a:	48 81       	ld	r20, Y
    3a4c:	c2 5c       	subi	r28, 0xC2	; 194
    3a4e:	d0 40       	sbci	r29, 0x00	; 0
    3a50:	4f 93       	push	r20
    3a52:	cf 53       	subi	r28, 0x3F	; 63
    3a54:	df 4f       	sbci	r29, 0xFF	; 255
    3a56:	58 81       	ld	r21, Y
    3a58:	c1 5c       	subi	r28, 0xC1	; 193
    3a5a:	d0 40       	sbci	r29, 0x00	; 0
    3a5c:	5f 93       	push	r21
    3a5e:	c0 54       	subi	r28, 0x40	; 64
    3a60:	df 4f       	sbci	r29, 0xFF	; 255
    3a62:	88 81       	ld	r24, Y
    3a64:	c0 5c       	subi	r28, 0xC0	; 192
    3a66:	d0 40       	sbci	r29, 0x00	; 0
    3a68:	8f 93       	push	r24
    3a6a:	cb 56       	subi	r28, 0x6B	; 107
    3a6c:	df 4f       	sbci	r29, 0xFF	; 255
    3a6e:	98 81       	ld	r25, Y
    3a70:	c5 59       	subi	r28, 0x95	; 149
    3a72:	d0 40       	sbci	r29, 0x00	; 0
    3a74:	9f 93       	push	r25
    3a76:	cc 56       	subi	r28, 0x6C	; 108
    3a78:	df 4f       	sbci	r29, 0xFF	; 255
    3a7a:	a8 81       	ld	r26, Y
    3a7c:	c4 59       	subi	r28, 0x94	; 148
    3a7e:	d0 40       	sbci	r29, 0x00	; 0
    3a80:	af 93       	push	r26
    3a82:	c9 53       	subi	r28, 0x39	; 57
    3a84:	df 4f       	sbci	r29, 0xFF	; 255
    3a86:	b8 81       	ld	r27, Y
    3a88:	c7 5c       	subi	r28, 0xC7	; 199
    3a8a:	d0 40       	sbci	r29, 0x00	; 0
    3a8c:	bf 93       	push	r27
    3a8e:	ca 53       	subi	r28, 0x3A	; 58
    3a90:	df 4f       	sbci	r29, 0xFF	; 255
    3a92:	28 81       	ld	r18, Y
    3a94:	c6 5c       	subi	r28, 0xC6	; 198
    3a96:	d0 40       	sbci	r29, 0x00	; 0
    3a98:	2f 93       	push	r18
    3a9a:	cb 53       	subi	r28, 0x3B	; 59
    3a9c:	df 4f       	sbci	r29, 0xFF	; 255
    3a9e:	38 81       	ld	r19, Y
    3aa0:	c5 5c       	subi	r28, 0xC5	; 197
    3aa2:	d0 40       	sbci	r29, 0x00	; 0
    3aa4:	3f 93       	push	r19
    3aa6:	cc 53       	subi	r28, 0x3C	; 60
    3aa8:	df 4f       	sbci	r29, 0xFF	; 255
    3aaa:	48 81       	ld	r20, Y
    3aac:	c4 5c       	subi	r28, 0xC4	; 196
    3aae:	d0 40       	sbci	r29, 0x00	; 0
    3ab0:	4f 93       	push	r20
    3ab2:	c9 56       	subi	r28, 0x69	; 105
    3ab4:	df 4f       	sbci	r29, 0xFF	; 255
    3ab6:	58 81       	ld	r21, Y
    3ab8:	c7 59       	subi	r28, 0x97	; 151
    3aba:	d0 40       	sbci	r29, 0x00	; 0
    3abc:	5f 93       	push	r21
    3abe:	ca 56       	subi	r28, 0x6A	; 106
    3ac0:	df 4f       	sbci	r29, 0xFF	; 255
    3ac2:	88 81       	ld	r24, Y
    3ac4:	c6 59       	subi	r28, 0x96	; 150
    3ac6:	d0 40       	sbci	r29, 0x00	; 0
    3ac8:	8f 93       	push	r24
    3aca:	c5 53       	subi	r28, 0x35	; 53
    3acc:	df 4f       	sbci	r29, 0xFF	; 255
    3ace:	98 81       	ld	r25, Y
    3ad0:	cb 5c       	subi	r28, 0xCB	; 203
    3ad2:	d0 40       	sbci	r29, 0x00	; 0
    3ad4:	9f 93       	push	r25
    3ad6:	c6 53       	subi	r28, 0x36	; 54
    3ad8:	df 4f       	sbci	r29, 0xFF	; 255
    3ada:	a8 81       	ld	r26, Y
    3adc:	ca 5c       	subi	r28, 0xCA	; 202
    3ade:	d0 40       	sbci	r29, 0x00	; 0
    3ae0:	af 93       	push	r26
    3ae2:	c7 53       	subi	r28, 0x37	; 55
    3ae4:	df 4f       	sbci	r29, 0xFF	; 255
    3ae6:	b8 81       	ld	r27, Y
    3ae8:	c9 5c       	subi	r28, 0xC9	; 201
    3aea:	d0 40       	sbci	r29, 0x00	; 0
    3aec:	bf 93       	push	r27
    3aee:	c8 53       	subi	r28, 0x38	; 56
    3af0:	df 4f       	sbci	r29, 0xFF	; 255
    3af2:	28 81       	ld	r18, Y
    3af4:	c8 5c       	subi	r28, 0xC8	; 200
    3af6:	d0 40       	sbci	r29, 0x00	; 0
    3af8:	2f 93       	push	r18
    3afa:	2f 92       	push	r2
    3afc:	3f 92       	push	r3
    3afe:	0f 93       	push	r16
    3b00:	39 81       	ldd	r19, Y+1	; 0x01
    3b02:	3f 93       	push	r19
    3b04:	80 e0       	ldi	r24, 0x00	; 0
    3b06:	90 e0       	ldi	r25, 0x00	; 0
    3b08:	0e 94 3c 33 	call	0x6678	; 0x6678 <__floatunsisf>
    3b0c:	23 e3       	ldi	r18, 0x33	; 51
    3b0e:	33 e3       	ldi	r19, 0x33	; 51
    3b10:	43 e2       	ldi	r20, 0x23	; 35
    3b12:	54 e4       	ldi	r21, 0x44	; 68
    3b14:	0e 94 8e 32 	call	0x651c	; 0x651c <__divsf3>
    3b18:	9f 93       	push	r25
    3b1a:	8f 93       	push	r24
    3b1c:	7f 93       	push	r23
    3b1e:	6f 93       	push	r22
    3b20:	4a 81       	ldd	r20, Y+2	; 0x02
    3b22:	5b 81       	ldd	r21, Y+3	; 0x03
    3b24:	ba 01       	movw	r22, r20
    3b26:	80 e0       	ldi	r24, 0x00	; 0
    3b28:	90 e0       	ldi	r25, 0x00	; 0
    3b2a:	0e 94 3c 33 	call	0x6678	; 0x6678 <__floatunsisf>
    3b2e:	27 e1       	ldi	r18, 0x17	; 23
    3b30:	37 eb       	ldi	r19, 0xB7	; 183
    3b32:	41 ed       	ldi	r20, 0xD1	; 209
    3b34:	5e e3       	ldi	r21, 0x3E	; 62
    3b36:	0e 94 8e 32 	call	0x651c	; 0x651c <__divsf3>
    3b3a:	9f 93       	push	r25
    3b3c:	8f 93       	push	r24
    3b3e:	7f 93       	push	r23
    3b40:	6f 93       	push	r22
    3b42:	c7 01       	movw	r24, r14
    3b44:	b6 01       	movw	r22, r12
    3b46:	0e 94 3e 33 	call	0x667c	; 0x667c <__floatsisf>
    3b4a:	20 e0       	ldi	r18, 0x00	; 0
    3b4c:	30 e0       	ldi	r19, 0x00	; 0
    3b4e:	40 e2       	ldi	r20, 0x20	; 32
    3b50:	59 e4       	ldi	r21, 0x49	; 73
    3b52:	0e 94 8e 32 	call	0x651c	; 0x651c <__divsf3>
    3b56:	9f 93       	push	r25
    3b58:	8f 93       	push	r24
    3b5a:	7f 93       	push	r23
    3b5c:	6f 93       	push	r22
    3b5e:	c8 56       	subi	r28, 0x68	; 104
    3b60:	df 4f       	sbci	r29, 0xFF	; 255
    3b62:	28 81       	ld	r18, Y
    3b64:	c8 59       	subi	r28, 0x98	; 152
    3b66:	d0 40       	sbci	r29, 0x00	; 0
    3b68:	c7 56       	subi	r28, 0x67	; 103
    3b6a:	df 4f       	sbci	r29, 0xFF	; 255
    3b6c:	38 81       	ld	r19, Y
    3b6e:	c9 59       	subi	r28, 0x99	; 153
    3b70:	d0 40       	sbci	r29, 0x00	; 0
    3b72:	c6 56       	subi	r28, 0x66	; 102
    3b74:	df 4f       	sbci	r29, 0xFF	; 255
    3b76:	48 81       	ld	r20, Y
    3b78:	ca 59       	subi	r28, 0x9A	; 154
    3b7a:	d0 40       	sbci	r29, 0x00	; 0
    3b7c:	c5 56       	subi	r28, 0x65	; 101
    3b7e:	df 4f       	sbci	r29, 0xFF	; 255
    3b80:	58 81       	ld	r21, Y
    3b82:	cb 59       	subi	r28, 0x9B	; 155
    3b84:	d0 40       	sbci	r29, 0x00	; 0
    3b86:	c4 56       	subi	r28, 0x64	; 100
    3b88:	df 4f       	sbci	r29, 0xFF	; 255
    3b8a:	68 81       	ld	r22, Y
    3b8c:	cc 59       	subi	r28, 0x9C	; 156
    3b8e:	d0 40       	sbci	r29, 0x00	; 0
    3b90:	c3 56       	subi	r28, 0x63	; 99
    3b92:	df 4f       	sbci	r29, 0xFF	; 255
    3b94:	78 81       	ld	r23, Y
    3b96:	cd 59       	subi	r28, 0x9D	; 157
    3b98:	d0 40       	sbci	r29, 0x00	; 0
    3b9a:	c2 56       	subi	r28, 0x62	; 98
    3b9c:	df 4f       	sbci	r29, 0xFF	; 255
    3b9e:	88 81       	ld	r24, Y
    3ba0:	ce 59       	subi	r28, 0x9E	; 158
    3ba2:	d0 40       	sbci	r29, 0x00	; 0
    3ba4:	c1 56       	subi	r28, 0x61	; 97
    3ba6:	df 4f       	sbci	r29, 0xFF	; 255
    3ba8:	98 81       	ld	r25, Y
    3baa:	cf 59       	subi	r28, 0x9F	; 159
    3bac:	d0 40       	sbci	r29, 0x00	; 0
    3bae:	0e 94 36 33 	call	0x666c	; 0x666c <__floatdisf>
    3bb2:	6b 01       	movw	r12, r22
    3bb4:	7c 01       	movw	r14, r24
    3bb6:	20 e0       	ldi	r18, 0x00	; 0
    3bb8:	30 e4       	ldi	r19, 0x40	; 64
    3bba:	4c e9       	ldi	r20, 0x9C	; 156
    3bbc:	55 e4       	ldi	r21, 0x45	; 69
    3bbe:	c3 01       	movw	r24, r6
    3bc0:	b2 01       	movw	r22, r4
    3bc2:	0e 94 3c 34 	call	0x6878	; 0x6878 <__mulsf3>
    3bc6:	a5 01       	movw	r20, r10
    3bc8:	94 01       	movw	r18, r8
    3bca:	0e 94 3c 34 	call	0x6878	; 0x6878 <__mulsf3>
    3bce:	9b 01       	movw	r18, r22
    3bd0:	ac 01       	movw	r20, r24
    3bd2:	c7 01       	movw	r24, r14
    3bd4:	b6 01       	movw	r22, r12
    3bd6:	0e 94 8e 32 	call	0x651c	; 0x651c <__divsf3>
    3bda:	9f 93       	push	r25
    3bdc:	8f 93       	push	r24
    3bde:	7f 93       	push	r23
    3be0:	6f 93       	push	r22
    3be2:	6c 81       	ldd	r22, Y+4	; 0x04
    3be4:	7d 81       	ldd	r23, Y+5	; 0x05
    3be6:	8e 81       	ldd	r24, Y+6	; 0x06
    3be8:	9f 81       	ldd	r25, Y+7	; 0x07
    3bea:	0e 94 3e 33 	call	0x667c	; 0x667c <__floatsisf>
    3bee:	6b 01       	movw	r12, r22
    3bf0:	7c 01       	movw	r14, r24
    3bf2:	20 e0       	ldi	r18, 0x00	; 0
    3bf4:	30 e0       	ldi	r19, 0x00	; 0
    3bf6:	40 e8       	ldi	r20, 0x80	; 128
    3bf8:	53 e4       	ldi	r21, 0x43	; 67
    3bfa:	68 85       	ldd	r22, Y+8	; 0x08
    3bfc:	79 85       	ldd	r23, Y+9	; 0x09
    3bfe:	8a 85       	ldd	r24, Y+10	; 0x0a
    3c00:	9b 85       	ldd	r25, Y+11	; 0x0b
    3c02:	0e 94 3c 34 	call	0x6878	; 0x6878 <__mulsf3>
    3c06:	2c 85       	ldd	r18, Y+12	; 0x0c
    3c08:	3d 85       	ldd	r19, Y+13	; 0x0d
    3c0a:	4e 85       	ldd	r20, Y+14	; 0x0e
    3c0c:	5f 85       	ldd	r21, Y+15	; 0x0f
    3c0e:	0e 94 3c 34 	call	0x6878	; 0x6878 <__mulsf3>
    3c12:	9b 01       	movw	r18, r22
    3c14:	ac 01       	movw	r20, r24
    3c16:	c7 01       	movw	r24, r14
    3c18:	b6 01       	movw	r22, r12
    3c1a:	0e 94 8e 32 	call	0x651c	; 0x651c <__divsf3>
    3c1e:	9f 93       	push	r25
    3c20:	8f 93       	push	r24
    3c22:	7f 93       	push	r23
    3c24:	6f 93       	push	r22
    3c26:	68 89       	ldd	r22, Y+16	; 0x10
    3c28:	79 89       	ldd	r23, Y+17	; 0x11
    3c2a:	8a 89       	ldd	r24, Y+18	; 0x12
    3c2c:	9b 89       	ldd	r25, Y+19	; 0x13
    3c2e:	0e 94 3e 33 	call	0x667c	; 0x667c <__floatsisf>
    3c32:	6b 01       	movw	r12, r22
    3c34:	7c 01       	movw	r14, r24
    3c36:	20 e0       	ldi	r18, 0x00	; 0
    3c38:	30 e0       	ldi	r19, 0x00	; 0
    3c3a:	40 e8       	ldi	r20, 0x80	; 128
    3c3c:	57 e4       	ldi	r21, 0x47	; 71
    3c3e:	6c 89       	ldd	r22, Y+20	; 0x14
    3c40:	7d 89       	ldd	r23, Y+21	; 0x15
    3c42:	8e 89       	ldd	r24, Y+22	; 0x16
    3c44:	9f 89       	ldd	r25, Y+23	; 0x17
    3c46:	0e 94 3c 34 	call	0x6878	; 0x6878 <__mulsf3>
    3c4a:	9b 01       	movw	r18, r22
    3c4c:	ac 01       	movw	r20, r24
    3c4e:	c7 01       	movw	r24, r14
    3c50:	b6 01       	movw	r22, r12
    3c52:	0e 94 8e 32 	call	0x651c	; 0x651c <__divsf3>
    3c56:	9f 93       	push	r25
    3c58:	8f 93       	push	r24
    3c5a:	7f 93       	push	r23
    3c5c:	6f 93       	push	r22
    3c5e:	68 8d       	ldd	r22, Y+24	; 0x18
    3c60:	79 8d       	ldd	r23, Y+25	; 0x19
    3c62:	8a 8d       	ldd	r24, Y+26	; 0x1a
    3c64:	9b 8d       	ldd	r25, Y+27	; 0x1b
    3c66:	0e 94 3e 33 	call	0x667c	; 0x667c <__floatsisf>
    3c6a:	6b 01       	movw	r12, r22
    3c6c:	7c 01       	movw	r14, r24
    3c6e:	20 e0       	ldi	r18, 0x00	; 0
    3c70:	30 e0       	ldi	r19, 0x00	; 0
    3c72:	40 e8       	ldi	r20, 0x80	; 128
    3c74:	57 e4       	ldi	r21, 0x47	; 71
    3c76:	6c 8d       	ldd	r22, Y+28	; 0x1c
    3c78:	7d 8d       	ldd	r23, Y+29	; 0x1d
    3c7a:	8e 8d       	ldd	r24, Y+30	; 0x1e
    3c7c:	9f 8d       	ldd	r25, Y+31	; 0x1f
    3c7e:	0e 94 3c 34 	call	0x6878	; 0x6878 <__mulsf3>
    3c82:	9b 01       	movw	r18, r22
    3c84:	ac 01       	movw	r20, r24
    3c86:	c7 01       	movw	r24, r14
    3c88:	b6 01       	movw	r22, r12
    3c8a:	0e 94 8e 32 	call	0x651c	; 0x651c <__divsf3>
    3c8e:	9f 93       	push	r25
    3c90:	8f 93       	push	r24
    3c92:	7f 93       	push	r23
    3c94:	6f 93       	push	r22
    3c96:	c0 56       	subi	r28, 0x60	; 96
    3c98:	df 4f       	sbci	r29, 0xFF	; 255
    3c9a:	28 81       	ld	r18, Y
    3c9c:	c0 5a       	subi	r28, 0xA0	; 160
    3c9e:	d0 40       	sbci	r29, 0x00	; 0
    3ca0:	cf 55       	subi	r28, 0x5F	; 95
    3ca2:	df 4f       	sbci	r29, 0xFF	; 255
    3ca4:	38 81       	ld	r19, Y
    3ca6:	c1 5a       	subi	r28, 0xA1	; 161
    3ca8:	d0 40       	sbci	r29, 0x00	; 0
    3caa:	ce 55       	subi	r28, 0x5E	; 94
    3cac:	df 4f       	sbci	r29, 0xFF	; 255
    3cae:	48 81       	ld	r20, Y
    3cb0:	c2 5a       	subi	r28, 0xA2	; 162
    3cb2:	d0 40       	sbci	r29, 0x00	; 0
    3cb4:	cd 55       	subi	r28, 0x5D	; 93
    3cb6:	df 4f       	sbci	r29, 0xFF	; 255
    3cb8:	58 81       	ld	r21, Y
    3cba:	c3 5a       	subi	r28, 0xA3	; 163
    3cbc:	d0 40       	sbci	r29, 0x00	; 0
    3cbe:	cc 55       	subi	r28, 0x5C	; 92
    3cc0:	df 4f       	sbci	r29, 0xFF	; 255
    3cc2:	68 81       	ld	r22, Y
    3cc4:	c4 5a       	subi	r28, 0xA4	; 164
    3cc6:	d0 40       	sbci	r29, 0x00	; 0
    3cc8:	cb 55       	subi	r28, 0x5B	; 91
    3cca:	df 4f       	sbci	r29, 0xFF	; 255
    3ccc:	78 81       	ld	r23, Y
    3cce:	c5 5a       	subi	r28, 0xA5	; 165
    3cd0:	d0 40       	sbci	r29, 0x00	; 0
    3cd2:	ca 55       	subi	r28, 0x5A	; 90
    3cd4:	df 4f       	sbci	r29, 0xFF	; 255
    3cd6:	88 81       	ld	r24, Y
    3cd8:	c6 5a       	subi	r28, 0xA6	; 166
    3cda:	d0 40       	sbci	r29, 0x00	; 0
    3cdc:	c0 53       	subi	r28, 0x30	; 48
    3cde:	df 4f       	sbci	r29, 0xFF	; 255
    3ce0:	98 81       	ld	r25, Y
    3ce2:	c0 5d       	subi	r28, 0xD0	; 208
    3ce4:	d0 40       	sbci	r29, 0x00	; 0
    3ce6:	0e 94 36 33 	call	0x666c	; 0x666c <__floatdisf>
    3cea:	6b 01       	movw	r12, r22
    3cec:	7c 01       	movw	r14, r24
    3cee:	20 e0       	ldi	r18, 0x00	; 0
    3cf0:	30 e4       	ldi	r19, 0x40	; 64
    3cf2:	4c e9       	ldi	r20, 0x9C	; 156
    3cf4:	55 e4       	ldi	r21, 0x45	; 69
    3cf6:	68 a1       	ldd	r22, Y+32	; 0x20
    3cf8:	79 a1       	ldd	r23, Y+33	; 0x21
    3cfa:	8a a1       	ldd	r24, Y+34	; 0x22
    3cfc:	9b a1       	ldd	r25, Y+35	; 0x23
    3cfe:	0e 94 3c 34 	call	0x6878	; 0x6878 <__mulsf3>
    3d02:	2c a1       	ldd	r18, Y+36	; 0x24
    3d04:	3d a1       	ldd	r19, Y+37	; 0x25
    3d06:	4e a1       	ldd	r20, Y+38	; 0x26
    3d08:	5f a1       	ldd	r21, Y+39	; 0x27
    3d0a:	0e 94 3c 34 	call	0x6878	; 0x6878 <__mulsf3>
    3d0e:	9b 01       	movw	r18, r22
    3d10:	ac 01       	movw	r20, r24
    3d12:	c7 01       	movw	r24, r14
    3d14:	b6 01       	movw	r22, r12
    3d16:	0e 94 8e 32 	call	0x651c	; 0x651c <__divsf3>
    3d1a:	9f 93       	push	r25
    3d1c:	8f 93       	push	r24
    3d1e:	7f 93       	push	r23
    3d20:	6f 93       	push	r22
    3d22:	68 a5       	ldd	r22, Y+40	; 0x28
    3d24:	79 a5       	ldd	r23, Y+41	; 0x29
    3d26:	8a a5       	ldd	r24, Y+42	; 0x2a
    3d28:	9b a5       	ldd	r25, Y+43	; 0x2b
    3d2a:	0e 94 3e 33 	call	0x667c	; 0x667c <__floatsisf>
    3d2e:	6b 01       	movw	r12, r22
    3d30:	7c 01       	movw	r14, r24
    3d32:	20 e0       	ldi	r18, 0x00	; 0
    3d34:	30 e0       	ldi	r19, 0x00	; 0
    3d36:	40 e8       	ldi	r20, 0x80	; 128
    3d38:	53 e4       	ldi	r21, 0x43	; 67
    3d3a:	6c a5       	ldd	r22, Y+44	; 0x2c
    3d3c:	7d a5       	ldd	r23, Y+45	; 0x2d
    3d3e:	8e a5       	ldd	r24, Y+46	; 0x2e
    3d40:	9f a5       	ldd	r25, Y+47	; 0x2f
    3d42:	0e 94 3c 34 	call	0x6878	; 0x6878 <__mulsf3>
    3d46:	28 a9       	ldd	r18, Y+48	; 0x30
    3d48:	39 a9       	ldd	r19, Y+49	; 0x31
    3d4a:	4a a9       	ldd	r20, Y+50	; 0x32
    3d4c:	5b a9       	ldd	r21, Y+51	; 0x33
    3d4e:	0e 94 3c 34 	call	0x6878	; 0x6878 <__mulsf3>
    3d52:	9b 01       	movw	r18, r22
    3d54:	ac 01       	movw	r20, r24
    3d56:	c7 01       	movw	r24, r14
    3d58:	b6 01       	movw	r22, r12
    3d5a:	0e 94 8e 32 	call	0x651c	; 0x651c <__divsf3>
    3d5e:	9f 93       	push	r25
    3d60:	8f 93       	push	r24
    3d62:	7f 93       	push	r23
    3d64:	6f 93       	push	r22
    3d66:	6c a9       	ldd	r22, Y+52	; 0x34
    3d68:	7d a9       	ldd	r23, Y+53	; 0x35
    3d6a:	8e a9       	ldd	r24, Y+54	; 0x36
    3d6c:	9f a9       	ldd	r25, Y+55	; 0x37
    3d6e:	0e 94 3e 33 	call	0x667c	; 0x667c <__floatsisf>
    3d72:	6b 01       	movw	r12, r22
    3d74:	7c 01       	movw	r14, r24
    3d76:	20 e0       	ldi	r18, 0x00	; 0
    3d78:	30 e0       	ldi	r19, 0x00	; 0
    3d7a:	40 e8       	ldi	r20, 0x80	; 128
    3d7c:	57 e4       	ldi	r21, 0x47	; 71
    3d7e:	68 ad       	ldd	r22, Y+56	; 0x38
    3d80:	79 ad       	ldd	r23, Y+57	; 0x39
    3d82:	8a ad       	ldd	r24, Y+58	; 0x3a
    3d84:	9b ad       	ldd	r25, Y+59	; 0x3b
    3d86:	0e 94 3c 34 	call	0x6878	; 0x6878 <__mulsf3>
    3d8a:	9b 01       	movw	r18, r22
    3d8c:	ac 01       	movw	r20, r24
    3d8e:	c7 01       	movw	r24, r14
    3d90:	b6 01       	movw	r22, r12
    3d92:	0e 94 8e 32 	call	0x651c	; 0x651c <__divsf3>
    3d96:	9f 93       	push	r25
    3d98:	8f 93       	push	r24
    3d9a:	7f 93       	push	r23
    3d9c:	6f 93       	push	r22
    3d9e:	6c ad       	ldd	r22, Y+60	; 0x3c
    3da0:	7d ad       	ldd	r23, Y+61	; 0x3d
    3da2:	8e ad       	ldd	r24, Y+62	; 0x3e
    3da4:	9f ad       	ldd	r25, Y+63	; 0x3f
    3da6:	0e 94 3e 33 	call	0x667c	; 0x667c <__floatsisf>
    3daa:	6b 01       	movw	r12, r22
    3dac:	7c 01       	movw	r14, r24
    3dae:	20 e0       	ldi	r18, 0x00	; 0
    3db0:	30 e0       	ldi	r19, 0x00	; 0
    3db2:	40 e8       	ldi	r20, 0x80	; 128
    3db4:	57 e4       	ldi	r21, 0x47	; 71
    3db6:	24 96       	adiw	r28, 0x04	; 4
    3db8:	6c ad       	ldd	r22, Y+60	; 0x3c
    3dba:	7d ad       	ldd	r23, Y+61	; 0x3d
    3dbc:	8e ad       	ldd	r24, Y+62	; 0x3e
    3dbe:	9f ad       	ldd	r25, Y+63	; 0x3f
    3dc0:	24 97       	sbiw	r28, 0x04	; 4
    3dc2:	0e 94 3c 34 	call	0x6878	; 0x6878 <__mulsf3>
    3dc6:	9b 01       	movw	r18, r22
    3dc8:	ac 01       	movw	r20, r24
    3dca:	c7 01       	movw	r24, r14
    3dcc:	b6 01       	movw	r22, r12
    3dce:	0e 94 8e 32 	call	0x651c	; 0x651c <__divsf3>
    3dd2:	9f 93       	push	r25
    3dd4:	8f 93       	push	r24
    3dd6:	7f 93       	push	r23
    3dd8:	6f 93       	push	r22
    3dda:	c9 55       	subi	r28, 0x59	; 89
    3ddc:	df 4f       	sbci	r29, 0xFF	; 255
    3dde:	28 81       	ld	r18, Y
    3de0:	c7 5a       	subi	r28, 0xA7	; 167
    3de2:	d0 40       	sbci	r29, 0x00	; 0
    3de4:	c8 55       	subi	r28, 0x58	; 88
    3de6:	df 4f       	sbci	r29, 0xFF	; 255
    3de8:	38 81       	ld	r19, Y
    3dea:	c8 5a       	subi	r28, 0xA8	; 168
    3dec:	d0 40       	sbci	r29, 0x00	; 0
    3dee:	c7 55       	subi	r28, 0x57	; 87
    3df0:	df 4f       	sbci	r29, 0xFF	; 255
    3df2:	48 81       	ld	r20, Y
    3df4:	c9 5a       	subi	r28, 0xA9	; 169
    3df6:	d0 40       	sbci	r29, 0x00	; 0
    3df8:	c6 55       	subi	r28, 0x56	; 86
    3dfa:	df 4f       	sbci	r29, 0xFF	; 255
    3dfc:	58 81       	ld	r21, Y
    3dfe:	ca 5a       	subi	r28, 0xAA	; 170
    3e00:	d0 40       	sbci	r29, 0x00	; 0
    3e02:	c5 55       	subi	r28, 0x55	; 85
    3e04:	df 4f       	sbci	r29, 0xFF	; 255
    3e06:	68 81       	ld	r22, Y
    3e08:	cb 5a       	subi	r28, 0xAB	; 171
    3e0a:	d0 40       	sbci	r29, 0x00	; 0
    3e0c:	c4 55       	subi	r28, 0x54	; 84
    3e0e:	df 4f       	sbci	r29, 0xFF	; 255
    3e10:	78 81       	ld	r23, Y
    3e12:	cc 5a       	subi	r28, 0xAC	; 172
    3e14:	d0 40       	sbci	r29, 0x00	; 0
    3e16:	c3 55       	subi	r28, 0x53	; 83
    3e18:	df 4f       	sbci	r29, 0xFF	; 255
    3e1a:	88 81       	ld	r24, Y
    3e1c:	cd 5a       	subi	r28, 0xAD	; 173
    3e1e:	d0 40       	sbci	r29, 0x00	; 0
    3e20:	cf 52       	subi	r28, 0x2F	; 47
    3e22:	df 4f       	sbci	r29, 0xFF	; 255
    3e24:	98 81       	ld	r25, Y
    3e26:	c1 5d       	subi	r28, 0xD1	; 209
    3e28:	d0 40       	sbci	r29, 0x00	; 0
    3e2a:	0e 94 36 33 	call	0x666c	; 0x666c <__floatdisf>
    3e2e:	6b 01       	movw	r12, r22
    3e30:	7c 01       	movw	r14, r24
    3e32:	20 e0       	ldi	r18, 0x00	; 0
    3e34:	30 e4       	ldi	r19, 0x40	; 64
    3e36:	4c e9       	ldi	r20, 0x9C	; 156
    3e38:	55 e4       	ldi	r21, 0x45	; 69
    3e3a:	28 96       	adiw	r28, 0x08	; 8
    3e3c:	6c ad       	ldd	r22, Y+60	; 0x3c
    3e3e:	7d ad       	ldd	r23, Y+61	; 0x3d
    3e40:	8e ad       	ldd	r24, Y+62	; 0x3e
    3e42:	9f ad       	ldd	r25, Y+63	; 0x3f
    3e44:	28 97       	sbiw	r28, 0x08	; 8
    3e46:	0e 94 3c 34 	call	0x6878	; 0x6878 <__mulsf3>
    3e4a:	2c 96       	adiw	r28, 0x0c	; 12
    3e4c:	2c ad       	ldd	r18, Y+60	; 0x3c
    3e4e:	3d ad       	ldd	r19, Y+61	; 0x3d
    3e50:	4e ad       	ldd	r20, Y+62	; 0x3e
    3e52:	5f ad       	ldd	r21, Y+63	; 0x3f
    3e54:	2c 97       	sbiw	r28, 0x0c	; 12
    3e56:	0e 94 3c 34 	call	0x6878	; 0x6878 <__mulsf3>
    3e5a:	9b 01       	movw	r18, r22
    3e5c:	ac 01       	movw	r20, r24
    3e5e:	c7 01       	movw	r24, r14
    3e60:	b6 01       	movw	r22, r12
    3e62:	0e 94 8e 32 	call	0x651c	; 0x651c <__divsf3>
    3e66:	9f 93       	push	r25
    3e68:	8f 93       	push	r24
    3e6a:	7f 93       	push	r23
    3e6c:	6f 93       	push	r22
    3e6e:	60 96       	adiw	r28, 0x10	; 16
    3e70:	6c ad       	ldd	r22, Y+60	; 0x3c
    3e72:	7d ad       	ldd	r23, Y+61	; 0x3d
    3e74:	8e ad       	ldd	r24, Y+62	; 0x3e
    3e76:	9f ad       	ldd	r25, Y+63	; 0x3f
    3e78:	60 97       	sbiw	r28, 0x10	; 16
    3e7a:	0e 94 3e 33 	call	0x667c	; 0x667c <__floatsisf>
    3e7e:	6b 01       	movw	r12, r22
    3e80:	7c 01       	movw	r14, r24
    3e82:	20 e0       	ldi	r18, 0x00	; 0
    3e84:	30 e0       	ldi	r19, 0x00	; 0
    3e86:	40 e8       	ldi	r20, 0x80	; 128
    3e88:	53 e4       	ldi	r21, 0x43	; 67
    3e8a:	64 96       	adiw	r28, 0x14	; 20
    3e8c:	6c ad       	ldd	r22, Y+60	; 0x3c
    3e8e:	7d ad       	ldd	r23, Y+61	; 0x3d
    3e90:	8e ad       	ldd	r24, Y+62	; 0x3e
    3e92:	9f ad       	ldd	r25, Y+63	; 0x3f
    3e94:	64 97       	sbiw	r28, 0x14	; 20
    3e96:	0e 94 3c 34 	call	0x6878	; 0x6878 <__mulsf3>
    3e9a:	68 96       	adiw	r28, 0x18	; 24
    3e9c:	2c ad       	ldd	r18, Y+60	; 0x3c
    3e9e:	3d ad       	ldd	r19, Y+61	; 0x3d
    3ea0:	4e ad       	ldd	r20, Y+62	; 0x3e
    3ea2:	5f ad       	ldd	r21, Y+63	; 0x3f
    3ea4:	68 97       	sbiw	r28, 0x18	; 24
    3ea6:	0e 94 3c 34 	call	0x6878	; 0x6878 <__mulsf3>
    3eaa:	9b 01       	movw	r18, r22
    3eac:	ac 01       	movw	r20, r24
    3eae:	c7 01       	movw	r24, r14
    3eb0:	b6 01       	movw	r22, r12
    3eb2:	0e 94 8e 32 	call	0x651c	; 0x651c <__divsf3>
    3eb6:	9f 93       	push	r25
    3eb8:	8f 93       	push	r24
    3eba:	7f 93       	push	r23
    3ebc:	6f 93       	push	r22
    3ebe:	6c 96       	adiw	r28, 0x1c	; 28
    3ec0:	6c ad       	ldd	r22, Y+60	; 0x3c
    3ec2:	7d ad       	ldd	r23, Y+61	; 0x3d
    3ec4:	8e ad       	ldd	r24, Y+62	; 0x3e
    3ec6:	9f ad       	ldd	r25, Y+63	; 0x3f
    3ec8:	6c 97       	sbiw	r28, 0x1c	; 28
    3eca:	0e 94 3e 33 	call	0x667c	; 0x667c <__floatsisf>
    3ece:	6b 01       	movw	r12, r22
    3ed0:	7c 01       	movw	r14, r24
    3ed2:	20 e0       	ldi	r18, 0x00	; 0
    3ed4:	30 e0       	ldi	r19, 0x00	; 0
    3ed6:	40 e8       	ldi	r20, 0x80	; 128
    3ed8:	57 e4       	ldi	r21, 0x47	; 71
    3eda:	a0 96       	adiw	r28, 0x20	; 32
    3edc:	6c ad       	ldd	r22, Y+60	; 0x3c
    3ede:	7d ad       	ldd	r23, Y+61	; 0x3d
    3ee0:	8e ad       	ldd	r24, Y+62	; 0x3e
    3ee2:	9f ad       	ldd	r25, Y+63	; 0x3f
    3ee4:	a0 97       	sbiw	r28, 0x20	; 32
    3ee6:	0e 94 3c 34 	call	0x6878	; 0x6878 <__mulsf3>
    3eea:	9b 01       	movw	r18, r22
    3eec:	ac 01       	movw	r20, r24
    3eee:	c7 01       	movw	r24, r14
    3ef0:	b6 01       	movw	r22, r12
    3ef2:	0e 94 8e 32 	call	0x651c	; 0x651c <__divsf3>
    3ef6:	9f 93       	push	r25
    3ef8:	8f 93       	push	r24
    3efa:	7f 93       	push	r23
    3efc:	6f 93       	push	r22
    3efe:	a4 96       	adiw	r28, 0x24	; 36
    3f00:	6c ad       	ldd	r22, Y+60	; 0x3c
    3f02:	7d ad       	ldd	r23, Y+61	; 0x3d
    3f04:	8e ad       	ldd	r24, Y+62	; 0x3e
    3f06:	9f ad       	ldd	r25, Y+63	; 0x3f
    3f08:	a4 97       	sbiw	r28, 0x24	; 36
    3f0a:	0e 94 3e 33 	call	0x667c	; 0x667c <__floatsisf>
    3f0e:	6b 01       	movw	r12, r22
    3f10:	7c 01       	movw	r14, r24
    3f12:	20 e0       	ldi	r18, 0x00	; 0
    3f14:	30 e0       	ldi	r19, 0x00	; 0
    3f16:	40 e8       	ldi	r20, 0x80	; 128
    3f18:	57 e4       	ldi	r21, 0x47	; 71
    3f1a:	a8 96       	adiw	r28, 0x28	; 40
    3f1c:	6c ad       	ldd	r22, Y+60	; 0x3c
    3f1e:	7d ad       	ldd	r23, Y+61	; 0x3d
    3f20:	8e ad       	ldd	r24, Y+62	; 0x3e
    3f22:	9f ad       	ldd	r25, Y+63	; 0x3f
    3f24:	a8 97       	sbiw	r28, 0x28	; 40
    3f26:	0e 94 3c 34 	call	0x6878	; 0x6878 <__mulsf3>
    3f2a:	9b 01       	movw	r18, r22
    3f2c:	ac 01       	movw	r20, r24
    3f2e:	c7 01       	movw	r24, r14
    3f30:	b6 01       	movw	r22, r12
    3f32:	0e 94 8e 32 	call	0x651c	; 0x651c <__divsf3>
    3f36:	9f 93       	push	r25
    3f38:	8f 93       	push	r24
    3f3a:	7f 93       	push	r23
    3f3c:	6f 93       	push	r22
    3f3e:	c2 55       	subi	r28, 0x52	; 82
    3f40:	df 4f       	sbci	r29, 0xFF	; 255
    3f42:	28 81       	ld	r18, Y
    3f44:	ce 5a       	subi	r28, 0xAE	; 174
    3f46:	d0 40       	sbci	r29, 0x00	; 0
    3f48:	c1 55       	subi	r28, 0x51	; 81
    3f4a:	df 4f       	sbci	r29, 0xFF	; 255
    3f4c:	38 81       	ld	r19, Y
    3f4e:	cf 5a       	subi	r28, 0xAF	; 175
    3f50:	d0 40       	sbci	r29, 0x00	; 0
    3f52:	c0 55       	subi	r28, 0x50	; 80
    3f54:	df 4f       	sbci	r29, 0xFF	; 255
    3f56:	48 81       	ld	r20, Y
    3f58:	c0 5b       	subi	r28, 0xB0	; 176
    3f5a:	d0 40       	sbci	r29, 0x00	; 0
    3f5c:	cf 54       	subi	r28, 0x4F	; 79
    3f5e:	df 4f       	sbci	r29, 0xFF	; 255
    3f60:	58 81       	ld	r21, Y
    3f62:	c1 5b       	subi	r28, 0xB1	; 177
    3f64:	d0 40       	sbci	r29, 0x00	; 0
    3f66:	ce 54       	subi	r28, 0x4E	; 78
    3f68:	df 4f       	sbci	r29, 0xFF	; 255
    3f6a:	68 81       	ld	r22, Y
    3f6c:	c2 5b       	subi	r28, 0xB2	; 178
    3f6e:	d0 40       	sbci	r29, 0x00	; 0
    3f70:	cd 54       	subi	r28, 0x4D	; 77
    3f72:	df 4f       	sbci	r29, 0xFF	; 255
    3f74:	78 81       	ld	r23, Y
    3f76:	c3 5b       	subi	r28, 0xB3	; 179
    3f78:	d0 40       	sbci	r29, 0x00	; 0
    3f7a:	cc 54       	subi	r28, 0x4C	; 76
    3f7c:	df 4f       	sbci	r29, 0xFF	; 255
    3f7e:	88 81       	ld	r24, Y
    3f80:	c4 5b       	subi	r28, 0xB4	; 180
    3f82:	d0 40       	sbci	r29, 0x00	; 0
    3f84:	cb 54       	subi	r28, 0x4B	; 75
    3f86:	df 4f       	sbci	r29, 0xFF	; 255
    3f88:	98 81       	ld	r25, Y
    3f8a:	c5 5b       	subi	r28, 0xB5	; 181
    3f8c:	d0 40       	sbci	r29, 0x00	; 0
    3f8e:	0e 94 36 33 	call	0x666c	; 0x666c <__floatdisf>
    3f92:	6b 01       	movw	r12, r22
    3f94:	7c 01       	movw	r14, r24
    3f96:	20 e0       	ldi	r18, 0x00	; 0
    3f98:	30 e4       	ldi	r19, 0x40	; 64
    3f9a:	4c e9       	ldi	r20, 0x9C	; 156
    3f9c:	55 e4       	ldi	r21, 0x45	; 69
    3f9e:	ac 96       	adiw	r28, 0x2c	; 44
    3fa0:	6c ad       	ldd	r22, Y+60	; 0x3c
    3fa2:	7d ad       	ldd	r23, Y+61	; 0x3d
    3fa4:	8e ad       	ldd	r24, Y+62	; 0x3e
    3fa6:	9f ad       	ldd	r25, Y+63	; 0x3f
    3fa8:	ac 97       	sbiw	r28, 0x2c	; 44
    3faa:	0e 94 3c 34 	call	0x6878	; 0x6878 <__mulsf3>
    3fae:	e0 96       	adiw	r28, 0x30	; 48
    3fb0:	2c ad       	ldd	r18, Y+60	; 0x3c
    3fb2:	3d ad       	ldd	r19, Y+61	; 0x3d
    3fb4:	4e ad       	ldd	r20, Y+62	; 0x3e
    3fb6:	5f ad       	ldd	r21, Y+63	; 0x3f
    3fb8:	e0 97       	sbiw	r28, 0x30	; 48
    3fba:	0e 94 3c 34 	call	0x6878	; 0x6878 <__mulsf3>
    3fbe:	9b 01       	movw	r18, r22
    3fc0:	ac 01       	movw	r20, r24
    3fc2:	c7 01       	movw	r24, r14
    3fc4:	b6 01       	movw	r22, r12
    3fc6:	0e 94 8e 32 	call	0x651c	; 0x651c <__divsf3>
    3fca:	9f 93       	push	r25
    3fcc:	8f 93       	push	r24
    3fce:	7f 93       	push	r23
    3fd0:	6f 93       	push	r22
    3fd2:	e4 96       	adiw	r28, 0x34	; 52
    3fd4:	6c ad       	ldd	r22, Y+60	; 0x3c
    3fd6:	7d ad       	ldd	r23, Y+61	; 0x3d
    3fd8:	8e ad       	ldd	r24, Y+62	; 0x3e
    3fda:	9f ad       	ldd	r25, Y+63	; 0x3f
    3fdc:	e4 97       	sbiw	r28, 0x34	; 52
    3fde:	0e 94 3e 33 	call	0x667c	; 0x667c <__floatsisf>
    3fe2:	6b 01       	movw	r12, r22
    3fe4:	7c 01       	movw	r14, r24
    3fe6:	20 e0       	ldi	r18, 0x00	; 0
    3fe8:	30 e0       	ldi	r19, 0x00	; 0
    3fea:	40 e8       	ldi	r20, 0x80	; 128
    3fec:	53 e4       	ldi	r21, 0x43	; 67
    3fee:	e8 96       	adiw	r28, 0x38	; 56
    3ff0:	6c ad       	ldd	r22, Y+60	; 0x3c
    3ff2:	7d ad       	ldd	r23, Y+61	; 0x3d
    3ff4:	8e ad       	ldd	r24, Y+62	; 0x3e
    3ff6:	9f ad       	ldd	r25, Y+63	; 0x3f
    3ff8:	e8 97       	sbiw	r28, 0x38	; 56
    3ffa:	0e 94 3c 34 	call	0x6878	; 0x6878 <__mulsf3>
    3ffe:	ec 96       	adiw	r28, 0x3c	; 60
    4000:	2c ad       	ldd	r18, Y+60	; 0x3c
    4002:	3d ad       	ldd	r19, Y+61	; 0x3d
    4004:	4e ad       	ldd	r20, Y+62	; 0x3e
    4006:	5f ad       	ldd	r21, Y+63	; 0x3f
    4008:	ec 97       	sbiw	r28, 0x3c	; 60
    400a:	0e 94 3c 34 	call	0x6878	; 0x6878 <__mulsf3>
    400e:	9b 01       	movw	r18, r22
    4010:	ac 01       	movw	r20, r24
    4012:	c7 01       	movw	r24, r14
    4014:	b6 01       	movw	r22, r12
    4016:	0e 94 8e 32 	call	0x651c	; 0x651c <__divsf3>
    401a:	9f 93       	push	r25
    401c:	8f 93       	push	r24
    401e:	7f 93       	push	r23
    4020:	6f 93       	push	r22
    4022:	c4 58       	subi	r28, 0x84	; 132
    4024:	df 4f       	sbci	r29, 0xFF	; 255
    4026:	68 81       	ld	r22, Y
    4028:	79 81       	ldd	r23, Y+1	; 0x01
    402a:	8a 81       	ldd	r24, Y+2	; 0x02
    402c:	9b 81       	ldd	r25, Y+3	; 0x03
    402e:	cc 57       	subi	r28, 0x7C	; 124
    4030:	d0 40       	sbci	r29, 0x00	; 0
    4032:	0e 94 3e 33 	call	0x667c	; 0x667c <__floatsisf>
    4036:	6b 01       	movw	r12, r22
    4038:	7c 01       	movw	r14, r24
    403a:	20 e0       	ldi	r18, 0x00	; 0
    403c:	30 e0       	ldi	r19, 0x00	; 0
    403e:	40 e8       	ldi	r20, 0x80	; 128
    4040:	57 e4       	ldi	r21, 0x47	; 71
    4042:	c0 58       	subi	r28, 0x80	; 128
    4044:	df 4f       	sbci	r29, 0xFF	; 255
    4046:	68 81       	ld	r22, Y
    4048:	79 81       	ldd	r23, Y+1	; 0x01
    404a:	8a 81       	ldd	r24, Y+2	; 0x02
    404c:	9b 81       	ldd	r25, Y+3	; 0x03
    404e:	c0 58       	subi	r28, 0x80	; 128
    4050:	d0 40       	sbci	r29, 0x00	; 0
    4052:	0e 94 3c 34 	call	0x6878	; 0x6878 <__mulsf3>
    4056:	9b 01       	movw	r18, r22
    4058:	ac 01       	movw	r20, r24
    405a:	c7 01       	movw	r24, r14
    405c:	b6 01       	movw	r22, r12
    405e:	0e 94 8e 32 	call	0x651c	; 0x651c <__divsf3>
    4062:	9f 93       	push	r25
    4064:	8f 93       	push	r24
    4066:	7f 93       	push	r23
    4068:	6f 93       	push	r22
    406a:	cc 57       	subi	r28, 0x7C	; 124
    406c:	df 4f       	sbci	r29, 0xFF	; 255
    406e:	68 81       	ld	r22, Y
    4070:	79 81       	ldd	r23, Y+1	; 0x01
    4072:	8a 81       	ldd	r24, Y+2	; 0x02
    4074:	9b 81       	ldd	r25, Y+3	; 0x03
    4076:	c4 58       	subi	r28, 0x84	; 132
    4078:	d0 40       	sbci	r29, 0x00	; 0
    407a:	0e 94 3e 33 	call	0x667c	; 0x667c <__floatsisf>
    407e:	6b 01       	movw	r12, r22
    4080:	7c 01       	movw	r14, r24
    4082:	20 e0       	ldi	r18, 0x00	; 0
    4084:	30 e0       	ldi	r19, 0x00	; 0
    4086:	40 e8       	ldi	r20, 0x80	; 128
    4088:	57 e4       	ldi	r21, 0x47	; 71
    408a:	c8 57       	subi	r28, 0x78	; 120
    408c:	df 4f       	sbci	r29, 0xFF	; 255
    408e:	68 81       	ld	r22, Y
    4090:	79 81       	ldd	r23, Y+1	; 0x01
    4092:	8a 81       	ldd	r24, Y+2	; 0x02
    4094:	9b 81       	ldd	r25, Y+3	; 0x03
    4096:	c8 58       	subi	r28, 0x88	; 136
    4098:	d0 40       	sbci	r29, 0x00	; 0
    409a:	0e 94 3c 34 	call	0x6878	; 0x6878 <__mulsf3>
    409e:	9b 01       	movw	r18, r22
    40a0:	ac 01       	movw	r20, r24
    40a2:	c7 01       	movw	r24, r14
    40a4:	b6 01       	movw	r22, r12
    40a6:	0e 94 8e 32 	call	0x651c	; 0x651c <__divsf3>
    40aa:	9f 93       	push	r25
    40ac:	8f 93       	push	r24
    40ae:	7f 93       	push	r23
    40b0:	6f 93       	push	r22
    40b2:	c4 57       	subi	r28, 0x74	; 116
    40b4:	df 4f       	sbci	r29, 0xFF	; 255
    40b6:	68 81       	ld	r22, Y
    40b8:	79 81       	ldd	r23, Y+1	; 0x01
    40ba:	8a 81       	ldd	r24, Y+2	; 0x02
    40bc:	9b 81       	ldd	r25, Y+3	; 0x03
    40be:	cc 58       	subi	r28, 0x8C	; 140
    40c0:	d0 40       	sbci	r29, 0x00	; 0
    40c2:	0e 94 3c 33 	call	0x6678	; 0x6678 <__floatunsisf>
    40c6:	20 e0       	ldi	r18, 0x00	; 0
    40c8:	30 e4       	ldi	r19, 0x40	; 64
    40ca:	4c e9       	ldi	r20, 0x9C	; 156
    40cc:	55 e4       	ldi	r21, 0x45	; 69
    40ce:	0e 94 8e 32 	call	0x651c	; 0x651c <__divsf3>
    40d2:	9f 93       	push	r25
    40d4:	8f 93       	push	r24
    40d6:	7f 93       	push	r23
    40d8:	6f 93       	push	r22
    40da:	8e ec       	ldi	r24, 0xCE	; 206
    40dc:	95 e2       	ldi	r25, 0x25	; 37
    40de:	9f 93       	push	r25
    40e0:	8f 93       	push	r24
    40e2:	c9 54       	subi	r28, 0x49	; 73
    40e4:	df 4f       	sbci	r29, 0xFF	; 255
    40e6:	58 81       	ld	r21, Y
    40e8:	c7 5b       	subi	r28, 0xB7	; 183
    40ea:	d0 40       	sbci	r29, 0x00	; 0
    40ec:	5f 93       	push	r21
    40ee:	ca 54       	subi	r28, 0x4A	; 74
    40f0:	df 4f       	sbci	r29, 0xFF	; 255
    40f2:	88 81       	ld	r24, Y
    40f4:	c6 5b       	subi	r28, 0xB6	; 182
    40f6:	d0 40       	sbci	r29, 0x00	; 0
    40f8:	8f 93       	push	r24
    40fa:	0e 94 1a 3d 	call	0x7a34	; 0x7a34 <fprintf>
		(int16_t)sSensorDataSnapshot.ccPower,
		sSensorDataSnapshot.ccTargetSpeed ? (H2A_WHEEL_METER_PER_PULSE * WHEEL_MS_TO_KMH * CYCLES_PER_SECOND / (sSensorDataSnapshot.ccTargetSpeed  / 65536.0f)) : 0.0f,
		(int16_t)!sSensorDataSnapshot.selCC2State,
		((float) sSensorDataSnapshot.selCC2Timestamp / CYCLES_PER_SECOND));
	
} /* PrintCSV_H2A */
    40fe:	cd bf       	out	0x3d, r28	; 61
    4100:	de bf       	out	0x3e, r29	; 62
    4102:	cf 52       	subi	r28, 0x2F	; 47
    4104:	df 4f       	sbci	r29, 0xFF	; 255
    4106:	cd bf       	out	0x3d, r28	; 61
    4108:	de bf       	out	0x3e, r29	; 62
    410a:	df 91       	pop	r29
    410c:	cf 91       	pop	r28
    410e:	1f 91       	pop	r17
    4110:	0f 91       	pop	r16
    4112:	ff 90       	pop	r15
    4114:	ef 90       	pop	r14
    4116:	df 90       	pop	r13
    4118:	cf 90       	pop	r12
    411a:	bf 90       	pop	r11
    411c:	af 90       	pop	r10
    411e:	9f 90       	pop	r9
    4120:	8f 90       	pop	r8
    4122:	7f 90       	pop	r7
    4124:	6f 90       	pop	r6
    4126:	5f 90       	pop	r5
    4128:	4f 90       	pop	r4
    412a:	3f 90       	pop	r3
    412c:	2f 90       	pop	r2
    412e:	08 95       	ret

00004130 <PrintCSV_EVA>:




void PrintCSV_EVA(FILE *fp) {
    4130:	2f 92       	push	r2
    4132:	3f 92       	push	r3
    4134:	4f 92       	push	r4
    4136:	5f 92       	push	r5
    4138:	6f 92       	push	r6
    413a:	7f 92       	push	r7
    413c:	8f 92       	push	r8
    413e:	9f 92       	push	r9
    4140:	af 92       	push	r10
    4142:	bf 92       	push	r11
    4144:	cf 92       	push	r12
    4146:	df 92       	push	r13
    4148:	ef 92       	push	r14
    414a:	ff 92       	push	r15
    414c:	0f 93       	push	r16
    414e:	1f 93       	push	r17
    4150:	cf 93       	push	r28
    4152:	df 93       	push	r29
    4154:	cd b7       	in	r28, 0x3d	; 61
    4156:	de b7       	in	r29, 0x3e	; 62
    4158:	c3 58       	subi	r28, 0x83	; 131
    415a:	d1 09       	sbc	r29, r1
    415c:	cd bf       	out	0x3d, r28	; 61
    415e:	de bf       	out	0x3e, r29	; 62
    4160:	ae 96       	adiw	r28, 0x2e	; 46
    4162:	8f af       	std	Y+63, r24	; 0x3f
    4164:	ae 97       	sbiw	r28, 0x2e	; 46
    4166:	af 96       	adiw	r28, 0x2f	; 47
    4168:	9f af       	std	Y+63, r25	; 0x3f
    416a:	af 97       	sbiw	r28, 0x2f	; 47
} /* TakeSnapshotCoreAnalog */


uint8_t IsSnapshotDone(void) {
	
	return !sTakeSnapshot;
    416c:	80 91 66 29 	lds	r24, 0x2966	; 0x802966 <sTakeSnapshot>



void PrintCSV_EVA(FILE *fp) {
	/* Assume the calling code has already initiated a snapshot */	
	while(!(IsSnapshotDone())) ; /* Wait for the snapshot to be taken */
    4170:	81 11       	cpse	r24, r1
    4172:	fc cf       	rjmp	.-8      	; 0x416c <PrintCSV_EVA+0x3c>
		(int16_t)!sSensorDataSnapshot.selCCState,
		((float) sSensorDataSnapshot.selCCTimestamp / CYCLES_PER_SECOND),
		(int16_t)sSensorDataSnapshot.ccPower,
		sSensorDataSnapshot.ccTargetSpeed ? (EVA_WHEEL_METER_PER_PULSE * WHEEL_MS_TO_KMH * CYCLES_PER_SECOND / (sSensorDataSnapshot.ccTargetSpeed  / 65536.0f)) : 0.0f,
		(int16_t)!sSensorDataSnapshot.selCC2State,
		((float) sSensorDataSnapshot.selCC2Timestamp / CYCLES_PER_SECOND));
    4174:	60 91 d8 29 	lds	r22, 0x29D8	; 0x8029d8 <sSensorDataSnapshot+0x6d>
    4178:	70 91 d9 29 	lds	r23, 0x29D9	; 0x8029d9 <sSensorDataSnapshot+0x6e>
    417c:	80 91 da 29 	lds	r24, 0x29DA	; 0x8029da <sSensorDataSnapshot+0x6f>
    4180:	90 91 db 29 	lds	r25, 0x29DB	; 0x8029db <sSensorDataSnapshot+0x70>
    4184:	0e 94 3c 33 	call	0x6678	; 0x6678 <__floatunsisf>
    4188:	20 e0       	ldi	r18, 0x00	; 0
    418a:	30 e4       	ldi	r19, 0x40	; 64
    418c:	4c e9       	ldi	r20, 0x9C	; 156
    418e:	55 e4       	ldi	r21, 0x45	; 69
    4190:	0e 94 8e 32 	call	0x651c	; 0x651c <__divsf3>
    4194:	e0 96       	adiw	r28, 0x30	; 48
    4196:	6f af       	std	Y+63, r22	; 0x3f
    4198:	e0 97       	sbiw	r28, 0x30	; 48
    419a:	e1 96       	adiw	r28, 0x31	; 49
    419c:	7f af       	std	Y+63, r23	; 0x3f
    419e:	e1 97       	sbiw	r28, 0x31	; 49
    41a0:	e2 96       	adiw	r28, 0x32	; 50
    41a2:	8f af       	std	Y+63, r24	; 0x3f
    41a4:	e2 97       	sbiw	r28, 0x32	; 50
    41a6:	e3 96       	adiw	r28, 0x33	; 51
    41a8:	9f af       	std	Y+63, r25	; 0x3f
    41aa:	e3 97       	sbiw	r28, 0x33	; 51
		((float) sSensorDataSnapshot.selFPTimestamp / CYCLES_PER_SECOND),
		(int16_t)!sSensorDataSnapshot.selCCState,
		((float) sSensorDataSnapshot.selCCTimestamp / CYCLES_PER_SECOND),
		(int16_t)sSensorDataSnapshot.ccPower,
		sSensorDataSnapshot.ccTargetSpeed ? (EVA_WHEEL_METER_PER_PULSE * WHEEL_MS_TO_KMH * CYCLES_PER_SECOND / (sSensorDataSnapshot.ccTargetSpeed  / 65536.0f)) : 0.0f,
		(int16_t)!sSensorDataSnapshot.selCC2State,
    41ac:	20 91 cf 29 	lds	r18, 0x29CF	; 0x8029cf <sSensorDataSnapshot+0x64>

void PrintCSV_EVA(FILE *fp) {
	/* Assume the calling code has already initiated a snapshot */	
	while(!(IsSnapshotDone())) ; /* Wait for the snapshot to be taken */

	fprintf(fp, ">04|04:%.4f,%.3f,%.3f,%.2f,%.2f,%.3f,%.3f,%.1f,%.0f,%.3f,%.3f,%.1f,%.0f,%.2f,%.0f,%.0f,%.3f,%.2f,%d,%.3f,%d,%.3f,%d,%.3f,%d,%.3f,",
    41b0:	91 e0       	ldi	r25, 0x01	; 1
    41b2:	80 e0       	ldi	r24, 0x00	; 0
    41b4:	21 11       	cpse	r18, r1
    41b6:	90 e0       	ldi	r25, 0x00	; 0
    41b8:	69 96       	adiw	r28, 0x19	; 25
    41ba:	9f af       	std	Y+63, r25	; 0x3f
    41bc:	69 97       	sbiw	r28, 0x19	; 25
    41be:	6a 96       	adiw	r28, 0x1a	; 26
    41c0:	8f af       	std	Y+63, r24	; 0x3f
    41c2:	6a 97       	sbiw	r28, 0x1a	; 26
		(int16_t)!sSensorDataSnapshot.selFPState,
		((float) sSensorDataSnapshot.selFPTimestamp / CYCLES_PER_SECOND),
		(int16_t)!sSensorDataSnapshot.selCCState,
		((float) sSensorDataSnapshot.selCCTimestamp / CYCLES_PER_SECOND),
		(int16_t)sSensorDataSnapshot.ccPower,
		sSensorDataSnapshot.ccTargetSpeed ? (EVA_WHEEL_METER_PER_PULSE * WHEEL_MS_TO_KMH * CYCLES_PER_SECOND / (sSensorDataSnapshot.ccTargetSpeed  / 65536.0f)) : 0.0f,
    41c4:	80 91 e0 29 	lds	r24, 0x29E0	; 0x8029e0 <sSensorDataSnapshot+0x75>
    41c8:	90 91 e1 29 	lds	r25, 0x29E1	; 0x8029e1 <sSensorDataSnapshot+0x76>
    41cc:	a0 91 e2 29 	lds	r26, 0x29E2	; 0x8029e2 <sSensorDataSnapshot+0x77>
    41d0:	b0 91 e3 29 	lds	r27, 0x29E3	; 0x8029e3 <sSensorDataSnapshot+0x78>

void PrintCSV_EVA(FILE *fp) {
	/* Assume the calling code has already initiated a snapshot */	
	while(!(IsSnapshotDone())) ; /* Wait for the snapshot to be taken */

	fprintf(fp, ">04|04:%.4f,%.3f,%.3f,%.2f,%.2f,%.3f,%.3f,%.1f,%.0f,%.3f,%.3f,%.1f,%.0f,%.2f,%.0f,%.0f,%.3f,%.2f,%d,%.3f,%d,%.3f,%d,%.3f,%d,%.3f,",
    41d4:	89 2b       	or	r24, r25
    41d6:	8a 2b       	or	r24, r26
    41d8:	8b 2b       	or	r24, r27
    41da:	69 f1       	breq	.+90     	; 0x4236 <PrintCSV_EVA+0x106>
		(int16_t)!sSensorDataSnapshot.selFPState,
		((float) sSensorDataSnapshot.selFPTimestamp / CYCLES_PER_SECOND),
		(int16_t)!sSensorDataSnapshot.selCCState,
		((float) sSensorDataSnapshot.selCCTimestamp / CYCLES_PER_SECOND),
		(int16_t)sSensorDataSnapshot.ccPower,
		sSensorDataSnapshot.ccTargetSpeed ? (EVA_WHEEL_METER_PER_PULSE * WHEEL_MS_TO_KMH * CYCLES_PER_SECOND / (sSensorDataSnapshot.ccTargetSpeed  / 65536.0f)) : 0.0f,
    41dc:	60 91 e0 29 	lds	r22, 0x29E0	; 0x8029e0 <sSensorDataSnapshot+0x75>
    41e0:	70 91 e1 29 	lds	r23, 0x29E1	; 0x8029e1 <sSensorDataSnapshot+0x76>
    41e4:	80 91 e2 29 	lds	r24, 0x29E2	; 0x8029e2 <sSensorDataSnapshot+0x77>
    41e8:	90 91 e3 29 	lds	r25, 0x29E3	; 0x8029e3 <sSensorDataSnapshot+0x78>

void PrintCSV_EVA(FILE *fp) {
	/* Assume the calling code has already initiated a snapshot */	
	while(!(IsSnapshotDone())) ; /* Wait for the snapshot to be taken */

	fprintf(fp, ">04|04:%.4f,%.3f,%.3f,%.2f,%.2f,%.3f,%.3f,%.1f,%.0f,%.3f,%.3f,%.1f,%.0f,%.2f,%.0f,%.0f,%.3f,%.2f,%d,%.3f,%d,%.3f,%d,%.3f,%d,%.3f,",
    41ec:	0e 94 3e 33 	call	0x667c	; 0x667c <__floatsisf>
    41f0:	20 e0       	ldi	r18, 0x00	; 0
    41f2:	30 e0       	ldi	r19, 0x00	; 0
    41f4:	40 e8       	ldi	r20, 0x80	; 128
    41f6:	57 e3       	ldi	r21, 0x37	; 55
    41f8:	0e 94 3c 34 	call	0x6878	; 0x6878 <__mulsf3>
    41fc:	9b 01       	movw	r18, r22
    41fe:	ac 01       	movw	r20, r24
    4200:	60 e0       	ldi	r22, 0x00	; 0
    4202:	78 e5       	ldi	r23, 0x58	; 88
    4204:	84 ea       	ldi	r24, 0xA4	; 164
    4206:	94 e4       	ldi	r25, 0x44	; 68
    4208:	0e 94 8e 32 	call	0x651c	; 0x651c <__divsf3>
    420c:	c1 58       	subi	r28, 0x81	; 129
    420e:	df 4f       	sbci	r29, 0xFF	; 255
    4210:	68 83       	st	Y, r22
    4212:	cf 57       	subi	r28, 0x7F	; 127
    4214:	d0 40       	sbci	r29, 0x00	; 0
    4216:	c0 58       	subi	r28, 0x80	; 128
    4218:	df 4f       	sbci	r29, 0xFF	; 255
    421a:	78 83       	st	Y, r23
    421c:	c0 58       	subi	r28, 0x80	; 128
    421e:	d0 40       	sbci	r29, 0x00	; 0
    4220:	cf 57       	subi	r28, 0x7F	; 127
    4222:	df 4f       	sbci	r29, 0xFF	; 255
    4224:	88 83       	st	Y, r24
    4226:	c1 58       	subi	r28, 0x81	; 129
    4228:	d0 40       	sbci	r29, 0x00	; 0
    422a:	ce 57       	subi	r28, 0x7E	; 126
    422c:	df 4f       	sbci	r29, 0xFF	; 255
    422e:	98 83       	st	Y, r25
    4230:	c2 58       	subi	r28, 0x82	; 130
    4232:	d0 40       	sbci	r29, 0x00	; 0
    4234:	14 c0       	rjmp	.+40     	; 0x425e <PrintCSV_EVA+0x12e>
    4236:	c1 58       	subi	r28, 0x81	; 129
    4238:	df 4f       	sbci	r29, 0xFF	; 255
    423a:	18 82       	st	Y, r1
    423c:	cf 57       	subi	r28, 0x7F	; 127
    423e:	d0 40       	sbci	r29, 0x00	; 0
    4240:	c0 58       	subi	r28, 0x80	; 128
    4242:	df 4f       	sbci	r29, 0xFF	; 255
    4244:	18 82       	st	Y, r1
    4246:	c0 58       	subi	r28, 0x80	; 128
    4248:	d0 40       	sbci	r29, 0x00	; 0
    424a:	cf 57       	subi	r28, 0x7F	; 127
    424c:	df 4f       	sbci	r29, 0xFF	; 255
    424e:	18 82       	st	Y, r1
    4250:	c1 58       	subi	r28, 0x81	; 129
    4252:	d0 40       	sbci	r29, 0x00	; 0
    4254:	ce 57       	subi	r28, 0x7E	; 126
    4256:	df 4f       	sbci	r29, 0xFF	; 255
    4258:	18 82       	st	Y, r1
    425a:	c2 58       	subi	r28, 0x82	; 130
    425c:	d0 40       	sbci	r29, 0x00	; 0
		sSensorDataSnapshot.speedSensorPositivePulsesSeen * EVA_WHEEL_METER_PER_PULSE,
		(int16_t)!sSensorDataSnapshot.selFPState,
		((float) sSensorDataSnapshot.selFPTimestamp / CYCLES_PER_SECOND),
		(int16_t)!sSensorDataSnapshot.selCCState,
		((float) sSensorDataSnapshot.selCCTimestamp / CYCLES_PER_SECOND),
		(int16_t)sSensorDataSnapshot.ccPower,
    425e:	10 91 e4 29 	lds	r17, 0x29E4	; 0x8029e4 <sSensorDataSnapshot+0x79>
		GetProcessedSpeed(sSensorDataSnapshot.speedSensorPulseInterval, EVA_WHEEL_METER_PER_PULSE),
		sSensorDataSnapshot.speedSensorPositivePulsesSeen * EVA_WHEEL_METER_PER_PULSE,
		(int16_t)!sSensorDataSnapshot.selFPState,
		((float) sSensorDataSnapshot.selFPTimestamp / CYCLES_PER_SECOND),
		(int16_t)!sSensorDataSnapshot.selCCState,
		((float) sSensorDataSnapshot.selCCTimestamp / CYCLES_PER_SECOND),
    4262:	60 91 d4 29 	lds	r22, 0x29D4	; 0x8029d4 <sSensorDataSnapshot+0x69>
    4266:	70 91 d5 29 	lds	r23, 0x29D5	; 0x8029d5 <sSensorDataSnapshot+0x6a>
    426a:	80 91 d6 29 	lds	r24, 0x29D6	; 0x8029d6 <sSensorDataSnapshot+0x6b>
    426e:	90 91 d7 29 	lds	r25, 0x29D7	; 0x8029d7 <sSensorDataSnapshot+0x6c>
    4272:	0e 94 3c 33 	call	0x6678	; 0x6678 <__floatunsisf>
    4276:	20 e0       	ldi	r18, 0x00	; 0
    4278:	30 e4       	ldi	r19, 0x40	; 64
    427a:	4c e9       	ldi	r20, 0x9C	; 156
    427c:	55 e4       	ldi	r21, 0x45	; 69
    427e:	0e 94 8e 32 	call	0x651c	; 0x651c <__divsf3>
    4282:	e4 96       	adiw	r28, 0x34	; 52
    4284:	6f af       	std	Y+63, r22	; 0x3f
    4286:	e4 97       	sbiw	r28, 0x34	; 52
    4288:	e5 96       	adiw	r28, 0x35	; 53
    428a:	7f af       	std	Y+63, r23	; 0x3f
    428c:	e5 97       	sbiw	r28, 0x35	; 53
    428e:	e6 96       	adiw	r28, 0x36	; 54
    4290:	8f af       	std	Y+63, r24	; 0x3f
    4292:	e6 97       	sbiw	r28, 0x36	; 54
    4294:	e7 96       	adiw	r28, 0x37	; 55
    4296:	9f af       	std	Y+63, r25	; 0x3f
    4298:	e7 97       	sbiw	r28, 0x37	; 55
		sSensorDataSnapshot.pwmDutyCycle / (256.0f * PWM_DC_SCALE),
		GetProcessedSpeed(sSensorDataSnapshot.speedSensorPulseInterval, EVA_WHEEL_METER_PER_PULSE),
		sSensorDataSnapshot.speedSensorPositivePulsesSeen * EVA_WHEEL_METER_PER_PULSE,
		(int16_t)!sSensorDataSnapshot.selFPState,
		((float) sSensorDataSnapshot.selFPTimestamp / CYCLES_PER_SECOND),
		(int16_t)!sSensorDataSnapshot.selCCState,
    429a:	20 91 ce 29 	lds	r18, 0x29CE	; 0x8029ce <sSensorDataSnapshot+0x63>

void PrintCSV_EVA(FILE *fp) {
	/* Assume the calling code has already initiated a snapshot */	
	while(!(IsSnapshotDone())) ; /* Wait for the snapshot to be taken */

	fprintf(fp, ">04|04:%.4f,%.3f,%.3f,%.2f,%.2f,%.3f,%.3f,%.1f,%.0f,%.3f,%.3f,%.1f,%.0f,%.2f,%.0f,%.0f,%.3f,%.2f,%d,%.3f,%d,%.3f,%d,%.3f,%d,%.3f,",
    429e:	91 e0       	ldi	r25, 0x01	; 1
    42a0:	80 e0       	ldi	r24, 0x00	; 0
    42a2:	21 11       	cpse	r18, r1
    42a4:	90 e0       	ldi	r25, 0x00	; 0
    42a6:	6b 96       	adiw	r28, 0x1b	; 27
    42a8:	9f af       	std	Y+63, r25	; 0x3f
    42aa:	6b 97       	sbiw	r28, 0x1b	; 27
    42ac:	6c 96       	adiw	r28, 0x1c	; 28
    42ae:	8f af       	std	Y+63, r24	; 0x3f
    42b0:	6c 97       	sbiw	r28, 0x1c	; 28
		sSensorDataSnapshot.pwmFrequency / (256.0f * PWM_FREQ_SCALE),
		sSensorDataSnapshot.pwmDutyCycle / (256.0f * PWM_DC_SCALE),
		GetProcessedSpeed(sSensorDataSnapshot.speedSensorPulseInterval, EVA_WHEEL_METER_PER_PULSE),
		sSensorDataSnapshot.speedSensorPositivePulsesSeen * EVA_WHEEL_METER_PER_PULSE,
		(int16_t)!sSensorDataSnapshot.selFPState,
		((float) sSensorDataSnapshot.selFPTimestamp / CYCLES_PER_SECOND),
    42b2:	60 91 d0 29 	lds	r22, 0x29D0	; 0x8029d0 <sSensorDataSnapshot+0x65>
    42b6:	70 91 d1 29 	lds	r23, 0x29D1	; 0x8029d1 <sSensorDataSnapshot+0x66>
    42ba:	80 91 d2 29 	lds	r24, 0x29D2	; 0x8029d2 <sSensorDataSnapshot+0x67>
    42be:	90 91 d3 29 	lds	r25, 0x29D3	; 0x8029d3 <sSensorDataSnapshot+0x68>
    42c2:	0e 94 3c 33 	call	0x6678	; 0x6678 <__floatunsisf>
    42c6:	20 e0       	ldi	r18, 0x00	; 0
    42c8:	30 e4       	ldi	r19, 0x40	; 64
    42ca:	4c e9       	ldi	r20, 0x9C	; 156
    42cc:	55 e4       	ldi	r21, 0x45	; 69
    42ce:	0e 94 8e 32 	call	0x651c	; 0x651c <__divsf3>
    42d2:	e8 96       	adiw	r28, 0x38	; 56
    42d4:	6f af       	std	Y+63, r22	; 0x3f
    42d6:	e8 97       	sbiw	r28, 0x38	; 56
    42d8:	e9 96       	adiw	r28, 0x39	; 57
    42da:	7f af       	std	Y+63, r23	; 0x3f
    42dc:	e9 97       	sbiw	r28, 0x39	; 57
    42de:	ea 96       	adiw	r28, 0x3a	; 58
    42e0:	8f af       	std	Y+63, r24	; 0x3f
    42e2:	ea 97       	sbiw	r28, 0x3a	; 58
    42e4:	eb 96       	adiw	r28, 0x3b	; 59
    42e6:	9f af       	std	Y+63, r25	; 0x3f
    42e8:	eb 97       	sbiw	r28, 0x3b	; 59
		sSensorDataSnapshot.driverTempFiltered / (65536.0f * 10.0f),
		sSensorDataSnapshot.pwmFrequency / (256.0f * PWM_FREQ_SCALE),
		sSensorDataSnapshot.pwmDutyCycle / (256.0f * PWM_DC_SCALE),
		GetProcessedSpeed(sSensorDataSnapshot.speedSensorPulseInterval, EVA_WHEEL_METER_PER_PULSE),
		sSensorDataSnapshot.speedSensorPositivePulsesSeen * EVA_WHEEL_METER_PER_PULSE,
		(int16_t)!sSensorDataSnapshot.selFPState,
    42ea:	20 91 cd 29 	lds	r18, 0x29CD	; 0x8029cd <sSensorDataSnapshot+0x62>

void PrintCSV_EVA(FILE *fp) {
	/* Assume the calling code has already initiated a snapshot */	
	while(!(IsSnapshotDone())) ; /* Wait for the snapshot to be taken */

	fprintf(fp, ">04|04:%.4f,%.3f,%.3f,%.2f,%.2f,%.3f,%.3f,%.1f,%.0f,%.3f,%.3f,%.1f,%.0f,%.2f,%.0f,%.0f,%.3f,%.2f,%d,%.3f,%d,%.3f,%d,%.3f,%d,%.3f,",
    42ee:	91 e0       	ldi	r25, 0x01	; 1
    42f0:	80 e0       	ldi	r24, 0x00	; 0
    42f2:	21 11       	cpse	r18, r1
    42f4:	90 e0       	ldi	r25, 0x00	; 0
    42f6:	6d 96       	adiw	r28, 0x1d	; 29
    42f8:	9f af       	std	Y+63, r25	; 0x3f
    42fa:	6d 97       	sbiw	r28, 0x1d	; 29
    42fc:	6e 96       	adiw	r28, 0x1e	; 30
    42fe:	8f af       	std	Y+63, r24	; 0x3f
    4300:	6e 97       	sbiw	r28, 0x1e	; 30
		sSensorDataSnapshot.inEnergy / (CYCLES_PER_SECOND * sCal.inVoltageScale * sCal.inCurrentScale),
		sSensorDataSnapshot.driverTempFiltered / (65536.0f * 10.0f),
		sSensorDataSnapshot.pwmFrequency / (256.0f * PWM_FREQ_SCALE),
		sSensorDataSnapshot.pwmDutyCycle / (256.0f * PWM_DC_SCALE),
		GetProcessedSpeed(sSensorDataSnapshot.speedSensorPulseInterval, EVA_WHEEL_METER_PER_PULSE),
		sSensorDataSnapshot.speedSensorPositivePulsesSeen * EVA_WHEEL_METER_PER_PULSE,
    4302:	60 91 c9 29 	lds	r22, 0x29C9	; 0x8029c9 <sSensorDataSnapshot+0x5e>
    4306:	70 91 ca 29 	lds	r23, 0x29CA	; 0x8029ca <sSensorDataSnapshot+0x5f>
    430a:	80 91 cb 29 	lds	r24, 0x29CB	; 0x8029cb <sSensorDataSnapshot+0x60>
    430e:	90 91 cc 29 	lds	r25, 0x29CC	; 0x8029cc <sSensorDataSnapshot+0x61>
    4312:	0e 94 3c 33 	call	0x6678	; 0x6678 <__floatunsisf>
    4316:	2f ed       	ldi	r18, 0xDF	; 223
    4318:	36 e9       	ldi	r19, 0x96	; 150
    431a:	45 e9       	ldi	r20, 0x95	; 149
    431c:	5d e3       	ldi	r21, 0x3D	; 61
    431e:	0e 94 3c 34 	call	0x6878	; 0x6878 <__mulsf3>
    4322:	ec 96       	adiw	r28, 0x3c	; 60
    4324:	6f af       	std	Y+63, r22	; 0x3f
    4326:	ec 97       	sbiw	r28, 0x3c	; 60
    4328:	ed 96       	adiw	r28, 0x3d	; 61
    432a:	7f af       	std	Y+63, r23	; 0x3f
    432c:	ed 97       	sbiw	r28, 0x3d	; 61
    432e:	ee 96       	adiw	r28, 0x3e	; 62
    4330:	8f af       	std	Y+63, r24	; 0x3f
    4332:	ee 97       	sbiw	r28, 0x3e	; 62
    4334:	ef 96       	adiw	r28, 0x3f	; 63
    4336:	9f af       	std	Y+63, r25	; 0x3f
    4338:	ef 97       	sbiw	r28, 0x3f	; 63
		sSensorDataSnapshot.inPowerFiltered / (256.0f * sCal.inVoltageScale * sCal.inCurrentScale),
		sSensorDataSnapshot.inEnergy / (CYCLES_PER_SECOND * sCal.inVoltageScale * sCal.inCurrentScale),
		sSensorDataSnapshot.driverTempFiltered / (65536.0f * 10.0f),
		sSensorDataSnapshot.pwmFrequency / (256.0f * PWM_FREQ_SCALE),
		sSensorDataSnapshot.pwmDutyCycle / (256.0f * PWM_DC_SCALE),
		GetProcessedSpeed(sSensorDataSnapshot.speedSensorPulseInterval, EVA_WHEEL_METER_PER_PULSE),
    433a:	60 91 c5 29 	lds	r22, 0x29C5	; 0x8029c5 <sSensorDataSnapshot+0x5a>
    433e:	70 91 c6 29 	lds	r23, 0x29C6	; 0x8029c6 <sSensorDataSnapshot+0x5b>
    4342:	80 91 c7 29 	lds	r24, 0x29C7	; 0x8029c7 <sSensorDataSnapshot+0x5c>
    4346:	90 91 c8 29 	lds	r25, 0x29C8	; 0x8029c8 <sSensorDataSnapshot+0x5d>

static float GetProcessedSpeed(int32_t speedSensorPulseInterval, float wheelMeterPerPulse) {
	
	float res;
	
	if(speedSensorPulseInterval) {
    434a:	61 15       	cp	r22, r1
    434c:	71 05       	cpc	r23, r1
    434e:	81 05       	cpc	r24, r1
    4350:	91 05       	cpc	r25, r1
    4352:	09 f1       	breq	.+66     	; 0x4396 <PrintCSV_EVA+0x266>
		res = wheelMeterPerPulse * WHEEL_MS_TO_KMH * CYCLES_PER_SECOND / (speedSensorPulseInterval / 65536.0f);
    4354:	0e 94 3e 33 	call	0x667c	; 0x667c <__floatsisf>
    4358:	20 e0       	ldi	r18, 0x00	; 0
    435a:	30 e0       	ldi	r19, 0x00	; 0
    435c:	40 e8       	ldi	r20, 0x80	; 128
    435e:	57 e3       	ldi	r21, 0x37	; 55
    4360:	0e 94 3c 34 	call	0x6878	; 0x6878 <__mulsf3>
    4364:	9b 01       	movw	r18, r22
    4366:	ac 01       	movw	r20, r24
    4368:	60 e0       	ldi	r22, 0x00	; 0
    436a:	78 e5       	ldi	r23, 0x58	; 88
    436c:	84 ea       	ldi	r24, 0xA4	; 164
    436e:	94 e4       	ldi	r25, 0x44	; 68
    4370:	0e 94 8e 32 	call	0x651c	; 0x651c <__divsf3>
    4374:	69 83       	std	Y+1, r22	; 0x01
    4376:	07 2f       	mov	r16, r23
    4378:	38 2e       	mov	r3, r24
    437a:	29 2e       	mov	r2, r25
		if(res < SPEEDSENSOR_MIN_SPEED)
    437c:	20 e0       	ldi	r18, 0x00	; 0
    437e:	30 e0       	ldi	r19, 0x00	; 0
    4380:	40 e8       	ldi	r20, 0x80	; 128
    4382:	5f e3       	ldi	r21, 0x3F	; 63
    4384:	0e 94 89 32 	call	0x6512	; 0x6512 <__cmpsf2>
    4388:	88 23       	and	r24, r24
    438a:	4c f4       	brge	.+18     	; 0x439e <PrintCSV_EVA+0x26e>
		res = 0.0f;
    438c:	19 82       	std	Y+1, r1	; 0x01
    438e:	00 e0       	ldi	r16, 0x00	; 0
    4390:	31 2c       	mov	r3, r1
    4392:	21 2c       	mov	r2, r1
    4394:	04 c0       	rjmp	.+8      	; 0x439e <PrintCSV_EVA+0x26e>
	}
	else
	res = 0.0f;
    4396:	19 82       	std	Y+1, r1	; 0x01
    4398:	00 e0       	ldi	r16, 0x00	; 0
    439a:	31 2c       	mov	r3, r1
    439c:	21 2c       	mov	r2, r1
		sSensorDataSnapshot.inCurrentFiltered / (65536.0f * sCal.inCurrentScale),
		sSensorDataSnapshot.inPowerFiltered / (256.0f * sCal.inVoltageScale * sCal.inCurrentScale),
		sSensorDataSnapshot.inEnergy / (CYCLES_PER_SECOND * sCal.inVoltageScale * sCal.inCurrentScale),
		sSensorDataSnapshot.driverTempFiltered / (65536.0f * 10.0f),
		sSensorDataSnapshot.pwmFrequency / (256.0f * PWM_FREQ_SCALE),
		sSensorDataSnapshot.pwmDutyCycle / (256.0f * PWM_DC_SCALE),
    439e:	60 91 de 29 	lds	r22, 0x29DE	; 0x8029de <sSensorDataSnapshot+0x73>
    43a2:	70 91 df 29 	lds	r23, 0x29DF	; 0x8029df <sSensorDataSnapshot+0x74>
		sSensorDataSnapshot.inVoltageFiltered / (65536.0f * sCal.inVoltageScale),
		sSensorDataSnapshot.inCurrentFiltered / (65536.0f * sCal.inCurrentScale),
		sSensorDataSnapshot.inPowerFiltered / (256.0f * sCal.inVoltageScale * sCal.inCurrentScale),
		sSensorDataSnapshot.inEnergy / (CYCLES_PER_SECOND * sCal.inVoltageScale * sCal.inCurrentScale),
		sSensorDataSnapshot.driverTempFiltered / (65536.0f * 10.0f),
		sSensorDataSnapshot.pwmFrequency / (256.0f * PWM_FREQ_SCALE),
    43a6:	20 91 dc 29 	lds	r18, 0x29DC	; 0x8029dc <sSensorDataSnapshot+0x71>
    43aa:	30 91 dd 29 	lds	r19, 0x29DD	; 0x8029dd <sSensorDataSnapshot+0x72>
    43ae:	2a 83       	std	Y+2, r18	; 0x02
    43b0:	3b 83       	std	Y+3, r19	; 0x03
		sSensorDataSnapshot.motorEnergy / (CYCLES_PER_SECOND * sCal.motorVoltageScale * sCal.motorCurrentScale),
		sSensorDataSnapshot.inVoltageFiltered / (65536.0f * sCal.inVoltageScale),
		sSensorDataSnapshot.inCurrentFiltered / (65536.0f * sCal.inCurrentScale),
		sSensorDataSnapshot.inPowerFiltered / (256.0f * sCal.inVoltageScale * sCal.inCurrentScale),
		sSensorDataSnapshot.inEnergy / (CYCLES_PER_SECOND * sCal.inVoltageScale * sCal.inCurrentScale),
		sSensorDataSnapshot.driverTempFiltered / (65536.0f * 10.0f),
    43b2:	c0 90 99 29 	lds	r12, 0x2999	; 0x802999 <sSensorDataSnapshot+0x2e>
    43b6:	d0 90 9a 29 	lds	r13, 0x299A	; 0x80299a <sSensorDataSnapshot+0x2f>
    43ba:	e0 90 9b 29 	lds	r14, 0x299B	; 0x80299b <sSensorDataSnapshot+0x30>
    43be:	f0 90 9c 29 	lds	r15, 0x299C	; 0x80299c <sSensorDataSnapshot+0x31>
		sSensorDataSnapshot.motorPowerFiltered / (256.0f * sCal.motorVoltageScale * sCal.motorCurrentScale),
		sSensorDataSnapshot.motorEnergy / (CYCLES_PER_SECOND * sCal.motorVoltageScale * sCal.motorCurrentScale),
		sSensorDataSnapshot.inVoltageFiltered / (65536.0f * sCal.inVoltageScale),
		sSensorDataSnapshot.inCurrentFiltered / (65536.0f * sCal.inCurrentScale),
		sSensorDataSnapshot.inPowerFiltered / (256.0f * sCal.inVoltageScale * sCal.inCurrentScale),
		sSensorDataSnapshot.inEnergy / (CYCLES_PER_SECOND * sCal.inVoltageScale * sCal.inCurrentScale),
    43c2:	ed eb       	ldi	r30, 0xBD	; 189
    43c4:	f9 e2       	ldi	r31, 0x29	; 41
    43c6:	30 81       	ld	r19, Z
    43c8:	6f 96       	adiw	r28, 0x1f	; 31
    43ca:	3f af       	std	Y+63, r19	; 0x3f
    43cc:	6f 97       	sbiw	r28, 0x1f	; 31
    43ce:	41 81       	ldd	r20, Z+1	; 0x01
    43d0:	a0 96       	adiw	r28, 0x20	; 32
    43d2:	4f af       	std	Y+63, r20	; 0x3f
    43d4:	a0 97       	sbiw	r28, 0x20	; 32
    43d6:	52 81       	ldd	r21, Z+2	; 0x02
    43d8:	a1 96       	adiw	r28, 0x21	; 33
    43da:	5f af       	std	Y+63, r21	; 0x3f
    43dc:	a1 97       	sbiw	r28, 0x21	; 33
    43de:	83 81       	ldd	r24, Z+3	; 0x03
    43e0:	a2 96       	adiw	r28, 0x22	; 34
    43e2:	8f af       	std	Y+63, r24	; 0x3f
    43e4:	a2 97       	sbiw	r28, 0x22	; 34
    43e6:	94 81       	ldd	r25, Z+4	; 0x04
    43e8:	a3 96       	adiw	r28, 0x23	; 35
    43ea:	9f af       	std	Y+63, r25	; 0x3f
    43ec:	a3 97       	sbiw	r28, 0x23	; 35
    43ee:	a5 81       	ldd	r26, Z+5	; 0x05
    43f0:	a4 96       	adiw	r28, 0x24	; 36
    43f2:	af af       	std	Y+63, r26	; 0x3f
    43f4:	a4 97       	sbiw	r28, 0x24	; 36
    43f6:	b6 81       	ldd	r27, Z+6	; 0x06
    43f8:	a5 96       	adiw	r28, 0x25	; 37
    43fa:	bf af       	std	Y+63, r27	; 0x3f
    43fc:	a5 97       	sbiw	r28, 0x25	; 37
    43fe:	27 81       	ldd	r18, Z+7	; 0x07
    4400:	a6 96       	adiw	r28, 0x26	; 38
    4402:	2f af       	std	Y+63, r18	; 0x3f
    4404:	a6 97       	sbiw	r28, 0x26	; 38
    4406:	e5 ee       	ldi	r30, 0xE5	; 229
    4408:	f9 e2       	ldi	r31, 0x29	; 41
    440a:	40 a4       	ldd	r4, Z+40	; 0x28
    440c:	51 a4       	ldd	r5, Z+41	; 0x29
    440e:	62 a4       	ldd	r6, Z+42	; 0x2a
    4410:	73 a4       	ldd	r7, Z+43	; 0x2b
    4412:	84 a4       	ldd	r8, Z+44	; 0x2c
    4414:	95 a4       	ldd	r9, Z+45	; 0x2d
    4416:	a6 a4       	ldd	r10, Z+46	; 0x2e
    4418:	b7 a4       	ldd	r11, Z+47	; 0x2f
		sSensorDataSnapshot.motorCurrentFiltered / (65536.0f * sCal.motorCurrentScale),
		sSensorDataSnapshot.motorPowerFiltered / (256.0f * sCal.motorVoltageScale * sCal.motorCurrentScale),
		sSensorDataSnapshot.motorEnergy / (CYCLES_PER_SECOND * sCal.motorVoltageScale * sCal.motorCurrentScale),
		sSensorDataSnapshot.inVoltageFiltered / (65536.0f * sCal.inVoltageScale),
		sSensorDataSnapshot.inCurrentFiltered / (65536.0f * sCal.inCurrentScale),
		sSensorDataSnapshot.inPowerFiltered / (256.0f * sCal.inVoltageScale * sCal.inCurrentScale),
    441a:	80 91 b1 29 	lds	r24, 0x29B1	; 0x8029b1 <sSensorDataSnapshot+0x46>
    441e:	90 91 b2 29 	lds	r25, 0x29B2	; 0x8029b2 <sSensorDataSnapshot+0x47>
    4422:	a0 91 b3 29 	lds	r26, 0x29B3	; 0x8029b3 <sSensorDataSnapshot+0x48>
    4426:	b0 91 b4 29 	lds	r27, 0x29B4	; 0x8029b4 <sSensorDataSnapshot+0x49>
    442a:	8c 83       	std	Y+4, r24	; 0x04
    442c:	9d 83       	std	Y+5, r25	; 0x05
    442e:	ae 83       	std	Y+6, r26	; 0x06
    4430:	bf 83       	std	Y+7, r27	; 0x07
    4432:	20 a5       	ldd	r18, Z+40	; 0x28
    4434:	31 a5       	ldd	r19, Z+41	; 0x29
    4436:	42 a5       	ldd	r20, Z+42	; 0x2a
    4438:	53 a5       	ldd	r21, Z+43	; 0x2b
    443a:	28 87       	std	Y+8, r18	; 0x08
    443c:	39 87       	std	Y+9, r19	; 0x09
    443e:	4a 87       	std	Y+10, r20	; 0x0a
    4440:	5b 87       	std	Y+11, r21	; 0x0b
    4442:	84 a5       	ldd	r24, Z+44	; 0x2c
    4444:	95 a5       	ldd	r25, Z+45	; 0x2d
    4446:	a6 a5       	ldd	r26, Z+46	; 0x2e
    4448:	b7 a5       	ldd	r27, Z+47	; 0x2f
    444a:	8c 87       	std	Y+12, r24	; 0x0c
    444c:	9d 87       	std	Y+13, r25	; 0x0d
    444e:	ae 87       	std	Y+14, r26	; 0x0e
    4450:	bf 87       	std	Y+15, r27	; 0x0f
		sSensorDataSnapshot.motorVoltageFiltered / (65536.0f * sCal.motorVoltageScale),
		sSensorDataSnapshot.motorCurrentFiltered / (65536.0f * sCal.motorCurrentScale),
		sSensorDataSnapshot.motorPowerFiltered / (256.0f * sCal.motorVoltageScale * sCal.motorCurrentScale),
		sSensorDataSnapshot.motorEnergy / (CYCLES_PER_SECOND * sCal.motorVoltageScale * sCal.motorCurrentScale),
		sSensorDataSnapshot.inVoltageFiltered / (65536.0f * sCal.inVoltageScale),
		sSensorDataSnapshot.inCurrentFiltered / (65536.0f * sCal.inCurrentScale),
    4452:	20 91 a9 29 	lds	r18, 0x29A9	; 0x8029a9 <sSensorDataSnapshot+0x3e>
    4456:	30 91 aa 29 	lds	r19, 0x29AA	; 0x8029aa <sSensorDataSnapshot+0x3f>
    445a:	40 91 ab 29 	lds	r20, 0x29AB	; 0x8029ab <sSensorDataSnapshot+0x40>
    445e:	50 91 ac 29 	lds	r21, 0x29AC	; 0x8029ac <sSensorDataSnapshot+0x41>
    4462:	28 8b       	std	Y+16, r18	; 0x10
    4464:	39 8b       	std	Y+17, r19	; 0x11
    4466:	4a 8b       	std	Y+18, r20	; 0x12
    4468:	5b 8b       	std	Y+19, r21	; 0x13
    446a:	84 a5       	ldd	r24, Z+44	; 0x2c
    446c:	95 a5       	ldd	r25, Z+45	; 0x2d
    446e:	a6 a5       	ldd	r26, Z+46	; 0x2e
    4470:	b7 a5       	ldd	r27, Z+47	; 0x2f
    4472:	8c 8b       	std	Y+20, r24	; 0x14
    4474:	9d 8b       	std	Y+21, r25	; 0x15
    4476:	ae 8b       	std	Y+22, r26	; 0x16
    4478:	bf 8b       	std	Y+23, r27	; 0x17
		sSensorDataSnapshot.adc.eva.motorTempRearFiltered / (65536.0f * MOTORTEMP_SCALE),		
		sSensorDataSnapshot.motorVoltageFiltered / (65536.0f * sCal.motorVoltageScale),
		sSensorDataSnapshot.motorCurrentFiltered / (65536.0f * sCal.motorCurrentScale),
		sSensorDataSnapshot.motorPowerFiltered / (256.0f * sCal.motorVoltageScale * sCal.motorCurrentScale),
		sSensorDataSnapshot.motorEnergy / (CYCLES_PER_SECOND * sCal.motorVoltageScale * sCal.motorCurrentScale),
		sSensorDataSnapshot.inVoltageFiltered / (65536.0f * sCal.inVoltageScale),
    447a:	20 91 a5 29 	lds	r18, 0x29A5	; 0x8029a5 <sSensorDataSnapshot+0x3a>
    447e:	30 91 a6 29 	lds	r19, 0x29A6	; 0x8029a6 <sSensorDataSnapshot+0x3b>
    4482:	40 91 a7 29 	lds	r20, 0x29A7	; 0x8029a7 <sSensorDataSnapshot+0x3c>
    4486:	50 91 a8 29 	lds	r21, 0x29A8	; 0x8029a8 <sSensorDataSnapshot+0x3d>
    448a:	28 8f       	std	Y+24, r18	; 0x18
    448c:	39 8f       	std	Y+25, r19	; 0x19
    448e:	4a 8f       	std	Y+26, r20	; 0x1a
    4490:	5b 8f       	std	Y+27, r21	; 0x1b
    4492:	80 a5       	ldd	r24, Z+40	; 0x28
    4494:	91 a5       	ldd	r25, Z+41	; 0x29
    4496:	a2 a5       	ldd	r26, Z+42	; 0x2a
    4498:	b3 a5       	ldd	r27, Z+43	; 0x2b
    449a:	8c 8f       	std	Y+28, r24	; 0x1c
    449c:	9d 8f       	std	Y+29, r25	; 0x1d
    449e:	ae 8f       	std	Y+30, r26	; 0x1e
    44a0:	bf 8f       	std	Y+31, r27	; 0x1f
		sSensorDataSnapshot.adc.eva.motorTempFrontFiltered / (65536.0f * MOTORTEMP_SCALE),
		sSensorDataSnapshot.adc.eva.motorTempRearFiltered / (65536.0f * MOTORTEMP_SCALE),		
		sSensorDataSnapshot.motorVoltageFiltered / (65536.0f * sCal.motorVoltageScale),
		sSensorDataSnapshot.motorCurrentFiltered / (65536.0f * sCal.motorCurrentScale),
		sSensorDataSnapshot.motorPowerFiltered / (256.0f * sCal.motorVoltageScale * sCal.motorCurrentScale),
		sSensorDataSnapshot.motorEnergy / (CYCLES_PER_SECOND * sCal.motorVoltageScale * sCal.motorCurrentScale),
    44a2:	25 eb       	ldi	r18, 0xB5	; 181
    44a4:	39 e2       	ldi	r19, 0x29	; 41
    44a6:	d9 01       	movw	r26, r18
    44a8:	bc 91       	ld	r27, X
    44aa:	a7 96       	adiw	r28, 0x27	; 39
    44ac:	bf af       	std	Y+63, r27	; 0x3f
    44ae:	a7 97       	sbiw	r28, 0x27	; 39
    44b0:	40 91 b6 29 	lds	r20, 0x29B6	; 0x8029b6 <sSensorDataSnapshot+0x4b>
    44b4:	a8 96       	adiw	r28, 0x28	; 40
    44b6:	4f af       	std	Y+63, r20	; 0x3f
    44b8:	a8 97       	sbiw	r28, 0x28	; 40
    44ba:	50 91 b7 29 	lds	r21, 0x29B7	; 0x8029b7 <sSensorDataSnapshot+0x4c>
    44be:	a9 96       	adiw	r28, 0x29	; 41
    44c0:	5f af       	std	Y+63, r21	; 0x3f
    44c2:	a9 97       	sbiw	r28, 0x29	; 41
    44c4:	80 91 b8 29 	lds	r24, 0x29B8	; 0x8029b8 <sSensorDataSnapshot+0x4d>
    44c8:	aa 96       	adiw	r28, 0x2a	; 42
    44ca:	8f af       	std	Y+63, r24	; 0x3f
    44cc:	aa 97       	sbiw	r28, 0x2a	; 42
    44ce:	90 91 b9 29 	lds	r25, 0x29B9	; 0x8029b9 <sSensorDataSnapshot+0x4e>
    44d2:	ab 96       	adiw	r28, 0x2b	; 43
    44d4:	9f af       	std	Y+63, r25	; 0x3f
    44d6:	ab 97       	sbiw	r28, 0x2b	; 43
    44d8:	a0 91 ba 29 	lds	r26, 0x29BA	; 0x8029ba <sSensorDataSnapshot+0x4f>
    44dc:	ac 96       	adiw	r28, 0x2c	; 44
    44de:	af af       	std	Y+63, r26	; 0x3f
    44e0:	ac 97       	sbiw	r28, 0x2c	; 44
    44e2:	b0 91 bb 29 	lds	r27, 0x29BB	; 0x8029bb <sSensorDataSnapshot+0x50>
    44e6:	ad 96       	adiw	r28, 0x2d	; 45
    44e8:	bf af       	std	Y+63, r27	; 0x3f
    44ea:	ad 97       	sbiw	r28, 0x2d	; 45
    44ec:	40 91 bc 29 	lds	r20, 0x29BC	; 0x8029bc <sSensorDataSnapshot+0x51>
    44f0:	cd 57       	subi	r28, 0x7D	; 125
    44f2:	df 4f       	sbci	r29, 0xFF	; 255
    44f4:	48 83       	st	Y, r20
    44f6:	c3 58       	subi	r28, 0x83	; 131
    44f8:	d0 40       	sbci	r29, 0x00	; 0
    44fa:	80 a1       	ldd	r24, Z+32	; 0x20
    44fc:	91 a1       	ldd	r25, Z+33	; 0x21
    44fe:	a2 a1       	ldd	r26, Z+34	; 0x22
    4500:	b3 a1       	ldd	r27, Z+35	; 0x23
    4502:	88 a3       	std	Y+32, r24	; 0x20
    4504:	99 a3       	std	Y+33, r25	; 0x21
    4506:	aa a3       	std	Y+34, r26	; 0x22
    4508:	bb a3       	std	Y+35, r27	; 0x23
    450a:	24 a1       	ldd	r18, Z+36	; 0x24
    450c:	35 a1       	ldd	r19, Z+37	; 0x25
    450e:	46 a1       	ldd	r20, Z+38	; 0x26
    4510:	57 a1       	ldd	r21, Z+39	; 0x27
    4512:	2c a3       	std	Y+36, r18	; 0x24
    4514:	3d a3       	std	Y+37, r19	; 0x25
    4516:	4e a3       	std	Y+38, r20	; 0x26
    4518:	5f a3       	std	Y+39, r21	; 0x27
		sSensorDataSnapshot.adc.eva.angFSFiltered / (65536.0f),
		sSensorDataSnapshot.adc.eva.motorTempFrontFiltered / (65536.0f * MOTORTEMP_SCALE),
		sSensorDataSnapshot.adc.eva.motorTempRearFiltered / (65536.0f * MOTORTEMP_SCALE),		
		sSensorDataSnapshot.motorVoltageFiltered / (65536.0f * sCal.motorVoltageScale),
		sSensorDataSnapshot.motorCurrentFiltered / (65536.0f * sCal.motorCurrentScale),
		sSensorDataSnapshot.motorPowerFiltered / (256.0f * sCal.motorVoltageScale * sCal.motorCurrentScale),
    451a:	80 91 ad 29 	lds	r24, 0x29AD	; 0x8029ad <sSensorDataSnapshot+0x42>
    451e:	90 91 ae 29 	lds	r25, 0x29AE	; 0x8029ae <sSensorDataSnapshot+0x43>
    4522:	a0 91 af 29 	lds	r26, 0x29AF	; 0x8029af <sSensorDataSnapshot+0x44>
    4526:	b0 91 b0 29 	lds	r27, 0x29B0	; 0x8029b0 <sSensorDataSnapshot+0x45>
    452a:	88 a7       	std	Y+40, r24	; 0x28
    452c:	99 a7       	std	Y+41, r25	; 0x29
    452e:	aa a7       	std	Y+42, r26	; 0x2a
    4530:	bb a7       	std	Y+43, r27	; 0x2b
    4532:	20 a1       	ldd	r18, Z+32	; 0x20
    4534:	31 a1       	ldd	r19, Z+33	; 0x21
    4536:	42 a1       	ldd	r20, Z+34	; 0x22
    4538:	53 a1       	ldd	r21, Z+35	; 0x23
    453a:	2c a7       	std	Y+44, r18	; 0x2c
    453c:	3d a7       	std	Y+45, r19	; 0x2d
    453e:	4e a7       	std	Y+46, r20	; 0x2e
    4540:	5f a7       	std	Y+47, r21	; 0x2f
    4542:	84 a1       	ldd	r24, Z+36	; 0x24
    4544:	95 a1       	ldd	r25, Z+37	; 0x25
    4546:	a6 a1       	ldd	r26, Z+38	; 0x26
    4548:	b7 a1       	ldd	r27, Z+39	; 0x27
    454a:	88 ab       	std	Y+48, r24	; 0x30
    454c:	99 ab       	std	Y+49, r25	; 0x31
    454e:	aa ab       	std	Y+50, r26	; 0x32
    4550:	bb ab       	std	Y+51, r27	; 0x33
		sSensorDataSnapshot.adc.eva.angSenseFiltered / (65536.0f),
		sSensorDataSnapshot.adc.eva.angFSFiltered / (65536.0f),
		sSensorDataSnapshot.adc.eva.motorTempFrontFiltered / (65536.0f * MOTORTEMP_SCALE),
		sSensorDataSnapshot.adc.eva.motorTempRearFiltered / (65536.0f * MOTORTEMP_SCALE),		
		sSensorDataSnapshot.motorVoltageFiltered / (65536.0f * sCal.motorVoltageScale),
		sSensorDataSnapshot.motorCurrentFiltered / (65536.0f * sCal.motorCurrentScale),
    4552:	20 91 a1 29 	lds	r18, 0x29A1	; 0x8029a1 <sSensorDataSnapshot+0x36>
    4556:	30 91 a2 29 	lds	r19, 0x29A2	; 0x8029a2 <sSensorDataSnapshot+0x37>
    455a:	40 91 a3 29 	lds	r20, 0x29A3	; 0x8029a3 <sSensorDataSnapshot+0x38>
    455e:	50 91 a4 29 	lds	r21, 0x29A4	; 0x8029a4 <sSensorDataSnapshot+0x39>
    4562:	2c ab       	std	Y+52, r18	; 0x34
    4564:	3d ab       	std	Y+53, r19	; 0x35
    4566:	4e ab       	std	Y+54, r20	; 0x36
    4568:	5f ab       	std	Y+55, r21	; 0x37
    456a:	84 a1       	ldd	r24, Z+36	; 0x24
    456c:	95 a1       	ldd	r25, Z+37	; 0x25
    456e:	a6 a1       	ldd	r26, Z+38	; 0x26
    4570:	b7 a1       	ldd	r27, Z+39	; 0x27
    4572:	88 af       	std	Y+56, r24	; 0x38
    4574:	99 af       	std	Y+57, r25	; 0x39
    4576:	aa af       	std	Y+58, r26	; 0x3a
    4578:	bb af       	std	Y+59, r27	; 0x3b
		(float) sSessionCycleCountSnapshot / CYCLES_PER_SECOND,
		sSensorDataSnapshot.adc.eva.angSenseFiltered / (65536.0f),
		sSensorDataSnapshot.adc.eva.angFSFiltered / (65536.0f),
		sSensorDataSnapshot.adc.eva.motorTempFrontFiltered / (65536.0f * MOTORTEMP_SCALE),
		sSensorDataSnapshot.adc.eva.motorTempRearFiltered / (65536.0f * MOTORTEMP_SCALE),		
		sSensorDataSnapshot.motorVoltageFiltered / (65536.0f * sCal.motorVoltageScale),
    457a:	20 91 9d 29 	lds	r18, 0x299D	; 0x80299d <sSensorDataSnapshot+0x32>
    457e:	30 91 9e 29 	lds	r19, 0x299E	; 0x80299e <sSensorDataSnapshot+0x33>
    4582:	40 91 9f 29 	lds	r20, 0x299F	; 0x80299f <sSensorDataSnapshot+0x34>
    4586:	50 91 a0 29 	lds	r21, 0x29A0	; 0x8029a0 <sSensorDataSnapshot+0x35>
    458a:	2c af       	std	Y+60, r18	; 0x3c
    458c:	3d af       	std	Y+61, r19	; 0x3d
    458e:	4e af       	std	Y+62, r20	; 0x3e
    4590:	5f af       	std	Y+63, r21	; 0x3f
    4592:	80 a1       	ldd	r24, Z+32	; 0x20
    4594:	91 a1       	ldd	r25, Z+33	; 0x21
    4596:	a2 a1       	ldd	r26, Z+34	; 0x22
    4598:	b3 a1       	ldd	r27, Z+35	; 0x23
    459a:	24 96       	adiw	r28, 0x04	; 4
    459c:	8c af       	std	Y+60, r24	; 0x3c
    459e:	9d af       	std	Y+61, r25	; 0x3d
    45a0:	ae af       	std	Y+62, r26	; 0x3e
    45a2:	bf af       	std	Y+63, r27	; 0x3f
    45a4:	24 97       	sbiw	r28, 0x04	; 4
	fprintf(fp, ">04|04:%.4f,%.3f,%.3f,%.2f,%.2f,%.3f,%.3f,%.1f,%.0f,%.3f,%.3f,%.1f,%.0f,%.2f,%.0f,%.0f,%.3f,%.2f,%d,%.3f,%d,%.3f,%d,%.3f,%d,%.3f,",
		(float) sSessionCycleCountSnapshot / CYCLES_PER_SECOND,
		sSensorDataSnapshot.adc.eva.angSenseFiltered / (65536.0f),
		sSensorDataSnapshot.adc.eva.angFSFiltered / (65536.0f),
		sSensorDataSnapshot.adc.eva.motorTempFrontFiltered / (65536.0f * MOTORTEMP_SCALE),
		sSensorDataSnapshot.adc.eva.motorTempRearFiltered / (65536.0f * MOTORTEMP_SCALE),		
    45a6:	20 91 6f 29 	lds	r18, 0x296F	; 0x80296f <sSensorDataSnapshot+0x4>
    45aa:	30 91 70 29 	lds	r19, 0x2970	; 0x802970 <sSensorDataSnapshot+0x5>
    45ae:	40 91 71 29 	lds	r20, 0x2971	; 0x802971 <sSensorDataSnapshot+0x6>
    45b2:	50 91 72 29 	lds	r21, 0x2972	; 0x802972 <sSensorDataSnapshot+0x7>
    45b6:	28 96       	adiw	r28, 0x08	; 8
    45b8:	2c af       	std	Y+60, r18	; 0x3c
    45ba:	3d af       	std	Y+61, r19	; 0x3d
    45bc:	4e af       	std	Y+62, r20	; 0x3e
    45be:	5f af       	std	Y+63, r21	; 0x3f
    45c0:	28 97       	sbiw	r28, 0x08	; 8

	fprintf(fp, ">04|04:%.4f,%.3f,%.3f,%.2f,%.2f,%.3f,%.3f,%.1f,%.0f,%.3f,%.3f,%.1f,%.0f,%.2f,%.0f,%.0f,%.3f,%.2f,%d,%.3f,%d,%.3f,%d,%.3f,%d,%.3f,",
		(float) sSessionCycleCountSnapshot / CYCLES_PER_SECOND,
		sSensorDataSnapshot.adc.eva.angSenseFiltered / (65536.0f),
		sSensorDataSnapshot.adc.eva.angFSFiltered / (65536.0f),
		sSensorDataSnapshot.adc.eva.motorTempFrontFiltered / (65536.0f * MOTORTEMP_SCALE),
    45c2:	ab e6       	ldi	r26, 0x6B	; 107
    45c4:	b9 e2       	ldi	r27, 0x29	; 41
    45c6:	8d 91       	ld	r24, X+
    45c8:	9d 91       	ld	r25, X+
    45ca:	0d 90       	ld	r0, X+
    45cc:	bc 91       	ld	r27, X
    45ce:	a0 2d       	mov	r26, r0
    45d0:	2c 96       	adiw	r28, 0x0c	; 12
    45d2:	8c af       	std	Y+60, r24	; 0x3c
    45d4:	9d af       	std	Y+61, r25	; 0x3d
    45d6:	ae af       	std	Y+62, r26	; 0x3e
    45d8:	bf af       	std	Y+63, r27	; 0x3f
    45da:	2c 97       	sbiw	r28, 0x0c	; 12
	while(!(IsSnapshotDone())) ; /* Wait for the snapshot to be taken */

	fprintf(fp, ">04|04:%.4f,%.3f,%.3f,%.2f,%.2f,%.3f,%.3f,%.1f,%.0f,%.3f,%.3f,%.1f,%.0f,%.2f,%.0f,%.0f,%.3f,%.2f,%d,%.3f,%d,%.3f,%d,%.3f,%d,%.3f,",
		(float) sSessionCycleCountSnapshot / CYCLES_PER_SECOND,
		sSensorDataSnapshot.adc.eva.angSenseFiltered / (65536.0f),
		sSensorDataSnapshot.adc.eva.angFSFiltered / (65536.0f),
    45dc:	20 91 77 29 	lds	r18, 0x2977	; 0x802977 <sSensorDataSnapshot+0xc>
    45e0:	30 91 78 29 	lds	r19, 0x2978	; 0x802978 <sSensorDataSnapshot+0xd>
    45e4:	40 91 79 29 	lds	r20, 0x2979	; 0x802979 <sSensorDataSnapshot+0xe>
    45e8:	50 91 7a 29 	lds	r21, 0x297A	; 0x80297a <sSensorDataSnapshot+0xf>
    45ec:	60 96       	adiw	r28, 0x10	; 16
    45ee:	2c af       	std	Y+60, r18	; 0x3c
    45f0:	3d af       	std	Y+61, r19	; 0x3d
    45f2:	4e af       	std	Y+62, r20	; 0x3e
    45f4:	5f af       	std	Y+63, r21	; 0x3f
    45f6:	60 97       	sbiw	r28, 0x10	; 16
	/* Assume the calling code has already initiated a snapshot */	
	while(!(IsSnapshotDone())) ; /* Wait for the snapshot to be taken */

	fprintf(fp, ">04|04:%.4f,%.3f,%.3f,%.2f,%.2f,%.3f,%.3f,%.1f,%.0f,%.3f,%.3f,%.1f,%.0f,%.2f,%.0f,%.0f,%.3f,%.2f,%d,%.3f,%d,%.3f,%d,%.3f,%d,%.3f,",
		(float) sSessionCycleCountSnapshot / CYCLES_PER_SECOND,
		sSensorDataSnapshot.adc.eva.angSenseFiltered / (65536.0f),
    45f8:	80 91 73 29 	lds	r24, 0x2973	; 0x802973 <sSensorDataSnapshot+0x8>
    45fc:	90 91 74 29 	lds	r25, 0x2974	; 0x802974 <sSensorDataSnapshot+0x9>
    4600:	a0 91 75 29 	lds	r26, 0x2975	; 0x802975 <sSensorDataSnapshot+0xa>
    4604:	b0 91 76 29 	lds	r27, 0x2976	; 0x802976 <sSensorDataSnapshot+0xb>
    4608:	64 96       	adiw	r28, 0x14	; 20
    460a:	8c af       	std	Y+60, r24	; 0x3c
    460c:	9d af       	std	Y+61, r25	; 0x3d
    460e:	ae af       	std	Y+62, r26	; 0x3e
    4610:	bf af       	std	Y+63, r27	; 0x3f
    4612:	64 97       	sbiw	r28, 0x14	; 20
void PrintCSV_EVA(FILE *fp) {
	/* Assume the calling code has already initiated a snapshot */	
	while(!(IsSnapshotDone())) ; /* Wait for the snapshot to be taken */

	fprintf(fp, ">04|04:%.4f,%.3f,%.3f,%.2f,%.2f,%.3f,%.3f,%.1f,%.0f,%.3f,%.3f,%.1f,%.0f,%.2f,%.0f,%.0f,%.3f,%.2f,%d,%.3f,%d,%.3f,%d,%.3f,%d,%.3f,",
		(float) sSessionCycleCountSnapshot / CYCLES_PER_SECOND,
    4614:	20 91 67 29 	lds	r18, 0x2967	; 0x802967 <sSessionCycleCountSnapshot>
    4618:	30 91 68 29 	lds	r19, 0x2968	; 0x802968 <sSessionCycleCountSnapshot+0x1>
    461c:	40 91 69 29 	lds	r20, 0x2969	; 0x802969 <sSessionCycleCountSnapshot+0x2>
    4620:	50 91 6a 29 	lds	r21, 0x296A	; 0x80296a <sSessionCycleCountSnapshot+0x3>
    4624:	68 96       	adiw	r28, 0x18	; 24
    4626:	2c af       	std	Y+60, r18	; 0x3c
    4628:	3d af       	std	Y+61, r19	; 0x3d
    462a:	4e af       	std	Y+62, r20	; 0x3e
    462c:	5f af       	std	Y+63, r21	; 0x3f
    462e:	68 97       	sbiw	r28, 0x18	; 24

void PrintCSV_EVA(FILE *fp) {
	/* Assume the calling code has already initiated a snapshot */	
	while(!(IsSnapshotDone())) ; /* Wait for the snapshot to be taken */

	fprintf(fp, ">04|04:%.4f,%.3f,%.3f,%.2f,%.2f,%.3f,%.3f,%.1f,%.0f,%.3f,%.3f,%.1f,%.0f,%.2f,%.0f,%.0f,%.3f,%.2f,%d,%.3f,%d,%.3f,%d,%.3f,%d,%.3f,",
    4630:	e3 96       	adiw	r28, 0x33	; 51
    4632:	3f ad       	ldd	r19, Y+63	; 0x3f
    4634:	e3 97       	sbiw	r28, 0x33	; 51
    4636:	3f 93       	push	r19
    4638:	e2 96       	adiw	r28, 0x32	; 50
    463a:	4f ad       	ldd	r20, Y+63	; 0x3f
    463c:	e2 97       	sbiw	r28, 0x32	; 50
    463e:	4f 93       	push	r20
    4640:	e1 96       	adiw	r28, 0x31	; 49
    4642:	5f ad       	ldd	r21, Y+63	; 0x3f
    4644:	e1 97       	sbiw	r28, 0x31	; 49
    4646:	5f 93       	push	r21
    4648:	e0 96       	adiw	r28, 0x30	; 48
    464a:	8f ad       	ldd	r24, Y+63	; 0x3f
    464c:	e0 97       	sbiw	r28, 0x30	; 48
    464e:	8f 93       	push	r24
    4650:	6a 96       	adiw	r28, 0x1a	; 26
    4652:	9f ad       	ldd	r25, Y+63	; 0x3f
    4654:	6a 97       	sbiw	r28, 0x1a	; 26
    4656:	9f 93       	push	r25
    4658:	69 96       	adiw	r28, 0x19	; 25
    465a:	af ad       	ldd	r26, Y+63	; 0x3f
    465c:	69 97       	sbiw	r28, 0x19	; 25
    465e:	af 93       	push	r26
    4660:	ce 57       	subi	r28, 0x7E	; 126
    4662:	df 4f       	sbci	r29, 0xFF	; 255
    4664:	b8 81       	ld	r27, Y
    4666:	c2 58       	subi	r28, 0x82	; 130
    4668:	d0 40       	sbci	r29, 0x00	; 0
    466a:	bf 93       	push	r27
    466c:	cf 57       	subi	r28, 0x7F	; 127
    466e:	df 4f       	sbci	r29, 0xFF	; 255
    4670:	e8 81       	ld	r30, Y
    4672:	c1 58       	subi	r28, 0x81	; 129
    4674:	d0 40       	sbci	r29, 0x00	; 0
    4676:	ef 93       	push	r30
    4678:	c0 58       	subi	r28, 0x80	; 128
    467a:	df 4f       	sbci	r29, 0xFF	; 255
    467c:	f8 81       	ld	r31, Y
    467e:	c0 58       	subi	r28, 0x80	; 128
    4680:	d0 40       	sbci	r29, 0x00	; 0
    4682:	ff 93       	push	r31
    4684:	c1 58       	subi	r28, 0x81	; 129
    4686:	df 4f       	sbci	r29, 0xFF	; 255
    4688:	28 81       	ld	r18, Y
    468a:	cf 57       	subi	r28, 0x7F	; 127
    468c:	d0 40       	sbci	r29, 0x00	; 0
    468e:	2f 93       	push	r18
    4690:	1f 92       	push	r1
    4692:	1f 93       	push	r17
    4694:	e7 96       	adiw	r28, 0x37	; 55
    4696:	3f ad       	ldd	r19, Y+63	; 0x3f
    4698:	e7 97       	sbiw	r28, 0x37	; 55
    469a:	3f 93       	push	r19
    469c:	e6 96       	adiw	r28, 0x36	; 54
    469e:	4f ad       	ldd	r20, Y+63	; 0x3f
    46a0:	e6 97       	sbiw	r28, 0x36	; 54
    46a2:	4f 93       	push	r20
    46a4:	e5 96       	adiw	r28, 0x35	; 53
    46a6:	5f ad       	ldd	r21, Y+63	; 0x3f
    46a8:	e5 97       	sbiw	r28, 0x35	; 53
    46aa:	5f 93       	push	r21
    46ac:	e4 96       	adiw	r28, 0x34	; 52
    46ae:	8f ad       	ldd	r24, Y+63	; 0x3f
    46b0:	e4 97       	sbiw	r28, 0x34	; 52
    46b2:	8f 93       	push	r24
    46b4:	6c 96       	adiw	r28, 0x1c	; 28
    46b6:	9f ad       	ldd	r25, Y+63	; 0x3f
    46b8:	6c 97       	sbiw	r28, 0x1c	; 28
    46ba:	9f 93       	push	r25
    46bc:	6b 96       	adiw	r28, 0x1b	; 27
    46be:	af ad       	ldd	r26, Y+63	; 0x3f
    46c0:	6b 97       	sbiw	r28, 0x1b	; 27
    46c2:	af 93       	push	r26
    46c4:	eb 96       	adiw	r28, 0x3b	; 59
    46c6:	bf ad       	ldd	r27, Y+63	; 0x3f
    46c8:	eb 97       	sbiw	r28, 0x3b	; 59
    46ca:	bf 93       	push	r27
    46cc:	ea 96       	adiw	r28, 0x3a	; 58
    46ce:	ef ad       	ldd	r30, Y+63	; 0x3f
    46d0:	ea 97       	sbiw	r28, 0x3a	; 58
    46d2:	ef 93       	push	r30
    46d4:	e9 96       	adiw	r28, 0x39	; 57
    46d6:	ff ad       	ldd	r31, Y+63	; 0x3f
    46d8:	e9 97       	sbiw	r28, 0x39	; 57
    46da:	ff 93       	push	r31
    46dc:	e8 96       	adiw	r28, 0x38	; 56
    46de:	2f ad       	ldd	r18, Y+63	; 0x3f
    46e0:	e8 97       	sbiw	r28, 0x38	; 56
    46e2:	2f 93       	push	r18
    46e4:	6e 96       	adiw	r28, 0x1e	; 30
    46e6:	3f ad       	ldd	r19, Y+63	; 0x3f
    46e8:	6e 97       	sbiw	r28, 0x1e	; 30
    46ea:	3f 93       	push	r19
    46ec:	6d 96       	adiw	r28, 0x1d	; 29
    46ee:	4f ad       	ldd	r20, Y+63	; 0x3f
    46f0:	6d 97       	sbiw	r28, 0x1d	; 29
    46f2:	4f 93       	push	r20
    46f4:	ef 96       	adiw	r28, 0x3f	; 63
    46f6:	5f ad       	ldd	r21, Y+63	; 0x3f
    46f8:	ef 97       	sbiw	r28, 0x3f	; 63
    46fa:	5f 93       	push	r21
    46fc:	ee 96       	adiw	r28, 0x3e	; 62
    46fe:	8f ad       	ldd	r24, Y+63	; 0x3f
    4700:	ee 97       	sbiw	r28, 0x3e	; 62
    4702:	8f 93       	push	r24
    4704:	ed 96       	adiw	r28, 0x3d	; 61
    4706:	9f ad       	ldd	r25, Y+63	; 0x3f
    4708:	ed 97       	sbiw	r28, 0x3d	; 61
    470a:	9f 93       	push	r25
    470c:	ec 96       	adiw	r28, 0x3c	; 60
    470e:	af ad       	ldd	r26, Y+63	; 0x3f
    4710:	ec 97       	sbiw	r28, 0x3c	; 60
    4712:	af 93       	push	r26
    4714:	2f 92       	push	r2
    4716:	3f 92       	push	r3
    4718:	0f 93       	push	r16
    471a:	b9 81       	ldd	r27, Y+1	; 0x01
    471c:	bf 93       	push	r27
    471e:	80 e0       	ldi	r24, 0x00	; 0
    4720:	90 e0       	ldi	r25, 0x00	; 0
    4722:	0e 94 3c 33 	call	0x6678	; 0x6678 <__floatunsisf>
    4726:	23 e3       	ldi	r18, 0x33	; 51
    4728:	33 e3       	ldi	r19, 0x33	; 51
    472a:	43 e2       	ldi	r20, 0x23	; 35
    472c:	54 e4       	ldi	r21, 0x44	; 68
    472e:	0e 94 8e 32 	call	0x651c	; 0x651c <__divsf3>
    4732:	9f 93       	push	r25
    4734:	8f 93       	push	r24
    4736:	7f 93       	push	r23
    4738:	6f 93       	push	r22
    473a:	ea 81       	ldd	r30, Y+2	; 0x02
    473c:	fb 81       	ldd	r31, Y+3	; 0x03
    473e:	bf 01       	movw	r22, r30
    4740:	80 e0       	ldi	r24, 0x00	; 0
    4742:	90 e0       	ldi	r25, 0x00	; 0
    4744:	0e 94 3c 33 	call	0x6678	; 0x6678 <__floatunsisf>
    4748:	27 e1       	ldi	r18, 0x17	; 23
    474a:	37 eb       	ldi	r19, 0xB7	; 183
    474c:	41 ed       	ldi	r20, 0xD1	; 209
    474e:	5e e3       	ldi	r21, 0x3E	; 62
    4750:	0e 94 8e 32 	call	0x651c	; 0x651c <__divsf3>
    4754:	9f 93       	push	r25
    4756:	8f 93       	push	r24
    4758:	7f 93       	push	r23
    475a:	6f 93       	push	r22
    475c:	c7 01       	movw	r24, r14
    475e:	b6 01       	movw	r22, r12
    4760:	0e 94 3e 33 	call	0x667c	; 0x667c <__floatsisf>
    4764:	20 e0       	ldi	r18, 0x00	; 0
    4766:	30 e0       	ldi	r19, 0x00	; 0
    4768:	40 e2       	ldi	r20, 0x20	; 32
    476a:	59 e4       	ldi	r21, 0x49	; 73
    476c:	0e 94 8e 32 	call	0x651c	; 0x651c <__divsf3>
    4770:	9f 93       	push	r25
    4772:	8f 93       	push	r24
    4774:	7f 93       	push	r23
    4776:	6f 93       	push	r22
    4778:	6f 96       	adiw	r28, 0x1f	; 31
    477a:	2f ad       	ldd	r18, Y+63	; 0x3f
    477c:	6f 97       	sbiw	r28, 0x1f	; 31
    477e:	a0 96       	adiw	r28, 0x20	; 32
    4780:	3f ad       	ldd	r19, Y+63	; 0x3f
    4782:	a0 97       	sbiw	r28, 0x20	; 32
    4784:	a1 96       	adiw	r28, 0x21	; 33
    4786:	4f ad       	ldd	r20, Y+63	; 0x3f
    4788:	a1 97       	sbiw	r28, 0x21	; 33
    478a:	a2 96       	adiw	r28, 0x22	; 34
    478c:	5f ad       	ldd	r21, Y+63	; 0x3f
    478e:	a2 97       	sbiw	r28, 0x22	; 34
    4790:	a3 96       	adiw	r28, 0x23	; 35
    4792:	6f ad       	ldd	r22, Y+63	; 0x3f
    4794:	a3 97       	sbiw	r28, 0x23	; 35
    4796:	a4 96       	adiw	r28, 0x24	; 36
    4798:	7f ad       	ldd	r23, Y+63	; 0x3f
    479a:	a4 97       	sbiw	r28, 0x24	; 36
    479c:	a5 96       	adiw	r28, 0x25	; 37
    479e:	8f ad       	ldd	r24, Y+63	; 0x3f
    47a0:	a5 97       	sbiw	r28, 0x25	; 37
    47a2:	a6 96       	adiw	r28, 0x26	; 38
    47a4:	9f ad       	ldd	r25, Y+63	; 0x3f
    47a6:	a6 97       	sbiw	r28, 0x26	; 38
    47a8:	0e 94 36 33 	call	0x666c	; 0x666c <__floatdisf>
    47ac:	6b 01       	movw	r12, r22
    47ae:	7c 01       	movw	r14, r24
    47b0:	20 e0       	ldi	r18, 0x00	; 0
    47b2:	30 e4       	ldi	r19, 0x40	; 64
    47b4:	4c e9       	ldi	r20, 0x9C	; 156
    47b6:	55 e4       	ldi	r21, 0x45	; 69
    47b8:	c3 01       	movw	r24, r6
    47ba:	b2 01       	movw	r22, r4
    47bc:	0e 94 3c 34 	call	0x6878	; 0x6878 <__mulsf3>
    47c0:	a5 01       	movw	r20, r10
    47c2:	94 01       	movw	r18, r8
    47c4:	0e 94 3c 34 	call	0x6878	; 0x6878 <__mulsf3>
    47c8:	9b 01       	movw	r18, r22
    47ca:	ac 01       	movw	r20, r24
    47cc:	c7 01       	movw	r24, r14
    47ce:	b6 01       	movw	r22, r12
    47d0:	0e 94 8e 32 	call	0x651c	; 0x651c <__divsf3>
    47d4:	9f 93       	push	r25
    47d6:	8f 93       	push	r24
    47d8:	7f 93       	push	r23
    47da:	6f 93       	push	r22
    47dc:	6c 81       	ldd	r22, Y+4	; 0x04
    47de:	7d 81       	ldd	r23, Y+5	; 0x05
    47e0:	8e 81       	ldd	r24, Y+6	; 0x06
    47e2:	9f 81       	ldd	r25, Y+7	; 0x07
    47e4:	0e 94 3e 33 	call	0x667c	; 0x667c <__floatsisf>
    47e8:	6b 01       	movw	r12, r22
    47ea:	7c 01       	movw	r14, r24
    47ec:	20 e0       	ldi	r18, 0x00	; 0
    47ee:	30 e0       	ldi	r19, 0x00	; 0
    47f0:	40 e8       	ldi	r20, 0x80	; 128
    47f2:	53 e4       	ldi	r21, 0x43	; 67
    47f4:	68 85       	ldd	r22, Y+8	; 0x08
    47f6:	79 85       	ldd	r23, Y+9	; 0x09
    47f8:	8a 85       	ldd	r24, Y+10	; 0x0a
    47fa:	9b 85       	ldd	r25, Y+11	; 0x0b
    47fc:	0e 94 3c 34 	call	0x6878	; 0x6878 <__mulsf3>
    4800:	2c 85       	ldd	r18, Y+12	; 0x0c
    4802:	3d 85       	ldd	r19, Y+13	; 0x0d
    4804:	4e 85       	ldd	r20, Y+14	; 0x0e
    4806:	5f 85       	ldd	r21, Y+15	; 0x0f
    4808:	0e 94 3c 34 	call	0x6878	; 0x6878 <__mulsf3>
    480c:	9b 01       	movw	r18, r22
    480e:	ac 01       	movw	r20, r24
    4810:	c7 01       	movw	r24, r14
    4812:	b6 01       	movw	r22, r12
    4814:	0e 94 8e 32 	call	0x651c	; 0x651c <__divsf3>
    4818:	9f 93       	push	r25
    481a:	8f 93       	push	r24
    481c:	7f 93       	push	r23
    481e:	6f 93       	push	r22
    4820:	68 89       	ldd	r22, Y+16	; 0x10
    4822:	79 89       	ldd	r23, Y+17	; 0x11
    4824:	8a 89       	ldd	r24, Y+18	; 0x12
    4826:	9b 89       	ldd	r25, Y+19	; 0x13
    4828:	0e 94 3e 33 	call	0x667c	; 0x667c <__floatsisf>
    482c:	6b 01       	movw	r12, r22
    482e:	7c 01       	movw	r14, r24
    4830:	20 e0       	ldi	r18, 0x00	; 0
    4832:	30 e0       	ldi	r19, 0x00	; 0
    4834:	40 e8       	ldi	r20, 0x80	; 128
    4836:	57 e4       	ldi	r21, 0x47	; 71
    4838:	6c 89       	ldd	r22, Y+20	; 0x14
    483a:	7d 89       	ldd	r23, Y+21	; 0x15
    483c:	8e 89       	ldd	r24, Y+22	; 0x16
    483e:	9f 89       	ldd	r25, Y+23	; 0x17
    4840:	0e 94 3c 34 	call	0x6878	; 0x6878 <__mulsf3>
    4844:	9b 01       	movw	r18, r22
    4846:	ac 01       	movw	r20, r24
    4848:	c7 01       	movw	r24, r14
    484a:	b6 01       	movw	r22, r12
    484c:	0e 94 8e 32 	call	0x651c	; 0x651c <__divsf3>
    4850:	9f 93       	push	r25
    4852:	8f 93       	push	r24
    4854:	7f 93       	push	r23
    4856:	6f 93       	push	r22
    4858:	68 8d       	ldd	r22, Y+24	; 0x18
    485a:	79 8d       	ldd	r23, Y+25	; 0x19
    485c:	8a 8d       	ldd	r24, Y+26	; 0x1a
    485e:	9b 8d       	ldd	r25, Y+27	; 0x1b
    4860:	0e 94 3e 33 	call	0x667c	; 0x667c <__floatsisf>
    4864:	6b 01       	movw	r12, r22
    4866:	7c 01       	movw	r14, r24
    4868:	20 e0       	ldi	r18, 0x00	; 0
    486a:	30 e0       	ldi	r19, 0x00	; 0
    486c:	40 e8       	ldi	r20, 0x80	; 128
    486e:	57 e4       	ldi	r21, 0x47	; 71
    4870:	6c 8d       	ldd	r22, Y+28	; 0x1c
    4872:	7d 8d       	ldd	r23, Y+29	; 0x1d
    4874:	8e 8d       	ldd	r24, Y+30	; 0x1e
    4876:	9f 8d       	ldd	r25, Y+31	; 0x1f
    4878:	0e 94 3c 34 	call	0x6878	; 0x6878 <__mulsf3>
    487c:	9b 01       	movw	r18, r22
    487e:	ac 01       	movw	r20, r24
    4880:	c7 01       	movw	r24, r14
    4882:	b6 01       	movw	r22, r12
    4884:	0e 94 8e 32 	call	0x651c	; 0x651c <__divsf3>
    4888:	9f 93       	push	r25
    488a:	8f 93       	push	r24
    488c:	7f 93       	push	r23
    488e:	6f 93       	push	r22
    4890:	a7 96       	adiw	r28, 0x27	; 39
    4892:	2f ad       	ldd	r18, Y+63	; 0x3f
    4894:	a7 97       	sbiw	r28, 0x27	; 39
    4896:	a8 96       	adiw	r28, 0x28	; 40
    4898:	3f ad       	ldd	r19, Y+63	; 0x3f
    489a:	a8 97       	sbiw	r28, 0x28	; 40
    489c:	a9 96       	adiw	r28, 0x29	; 41
    489e:	4f ad       	ldd	r20, Y+63	; 0x3f
    48a0:	a9 97       	sbiw	r28, 0x29	; 41
    48a2:	aa 96       	adiw	r28, 0x2a	; 42
    48a4:	5f ad       	ldd	r21, Y+63	; 0x3f
    48a6:	aa 97       	sbiw	r28, 0x2a	; 42
    48a8:	ab 96       	adiw	r28, 0x2b	; 43
    48aa:	6f ad       	ldd	r22, Y+63	; 0x3f
    48ac:	ab 97       	sbiw	r28, 0x2b	; 43
    48ae:	ac 96       	adiw	r28, 0x2c	; 44
    48b0:	7f ad       	ldd	r23, Y+63	; 0x3f
    48b2:	ac 97       	sbiw	r28, 0x2c	; 44
    48b4:	ad 96       	adiw	r28, 0x2d	; 45
    48b6:	8f ad       	ldd	r24, Y+63	; 0x3f
    48b8:	ad 97       	sbiw	r28, 0x2d	; 45
    48ba:	cd 57       	subi	r28, 0x7D	; 125
    48bc:	df 4f       	sbci	r29, 0xFF	; 255
    48be:	98 81       	ld	r25, Y
    48c0:	c3 58       	subi	r28, 0x83	; 131
    48c2:	d0 40       	sbci	r29, 0x00	; 0
    48c4:	0e 94 36 33 	call	0x666c	; 0x666c <__floatdisf>
    48c8:	6b 01       	movw	r12, r22
    48ca:	7c 01       	movw	r14, r24
    48cc:	20 e0       	ldi	r18, 0x00	; 0
    48ce:	30 e4       	ldi	r19, 0x40	; 64
    48d0:	4c e9       	ldi	r20, 0x9C	; 156
    48d2:	55 e4       	ldi	r21, 0x45	; 69
    48d4:	68 a1       	ldd	r22, Y+32	; 0x20
    48d6:	79 a1       	ldd	r23, Y+33	; 0x21
    48d8:	8a a1       	ldd	r24, Y+34	; 0x22
    48da:	9b a1       	ldd	r25, Y+35	; 0x23
    48dc:	0e 94 3c 34 	call	0x6878	; 0x6878 <__mulsf3>
    48e0:	2c a1       	ldd	r18, Y+36	; 0x24
    48e2:	3d a1       	ldd	r19, Y+37	; 0x25
    48e4:	4e a1       	ldd	r20, Y+38	; 0x26
    48e6:	5f a1       	ldd	r21, Y+39	; 0x27
    48e8:	0e 94 3c 34 	call	0x6878	; 0x6878 <__mulsf3>
    48ec:	9b 01       	movw	r18, r22
    48ee:	ac 01       	movw	r20, r24
    48f0:	c7 01       	movw	r24, r14
    48f2:	b6 01       	movw	r22, r12
    48f4:	0e 94 8e 32 	call	0x651c	; 0x651c <__divsf3>
    48f8:	9f 93       	push	r25
    48fa:	8f 93       	push	r24
    48fc:	7f 93       	push	r23
    48fe:	6f 93       	push	r22
    4900:	68 a5       	ldd	r22, Y+40	; 0x28
    4902:	79 a5       	ldd	r23, Y+41	; 0x29
    4904:	8a a5       	ldd	r24, Y+42	; 0x2a
    4906:	9b a5       	ldd	r25, Y+43	; 0x2b
    4908:	0e 94 3e 33 	call	0x667c	; 0x667c <__floatsisf>
    490c:	6b 01       	movw	r12, r22
    490e:	7c 01       	movw	r14, r24
    4910:	20 e0       	ldi	r18, 0x00	; 0
    4912:	30 e0       	ldi	r19, 0x00	; 0
    4914:	40 e8       	ldi	r20, 0x80	; 128
    4916:	53 e4       	ldi	r21, 0x43	; 67
    4918:	6c a5       	ldd	r22, Y+44	; 0x2c
    491a:	7d a5       	ldd	r23, Y+45	; 0x2d
    491c:	8e a5       	ldd	r24, Y+46	; 0x2e
    491e:	9f a5       	ldd	r25, Y+47	; 0x2f
    4920:	0e 94 3c 34 	call	0x6878	; 0x6878 <__mulsf3>
    4924:	28 a9       	ldd	r18, Y+48	; 0x30
    4926:	39 a9       	ldd	r19, Y+49	; 0x31
    4928:	4a a9       	ldd	r20, Y+50	; 0x32
    492a:	5b a9       	ldd	r21, Y+51	; 0x33
    492c:	0e 94 3c 34 	call	0x6878	; 0x6878 <__mulsf3>
    4930:	9b 01       	movw	r18, r22
    4932:	ac 01       	movw	r20, r24
    4934:	c7 01       	movw	r24, r14
    4936:	b6 01       	movw	r22, r12
    4938:	0e 94 8e 32 	call	0x651c	; 0x651c <__divsf3>
    493c:	9f 93       	push	r25
    493e:	8f 93       	push	r24
    4940:	7f 93       	push	r23
    4942:	6f 93       	push	r22
    4944:	6c a9       	ldd	r22, Y+52	; 0x34
    4946:	7d a9       	ldd	r23, Y+53	; 0x35
    4948:	8e a9       	ldd	r24, Y+54	; 0x36
    494a:	9f a9       	ldd	r25, Y+55	; 0x37
    494c:	0e 94 3e 33 	call	0x667c	; 0x667c <__floatsisf>
    4950:	6b 01       	movw	r12, r22
    4952:	7c 01       	movw	r14, r24
    4954:	20 e0       	ldi	r18, 0x00	; 0
    4956:	30 e0       	ldi	r19, 0x00	; 0
    4958:	40 e8       	ldi	r20, 0x80	; 128
    495a:	57 e4       	ldi	r21, 0x47	; 71
    495c:	68 ad       	ldd	r22, Y+56	; 0x38
    495e:	79 ad       	ldd	r23, Y+57	; 0x39
    4960:	8a ad       	ldd	r24, Y+58	; 0x3a
    4962:	9b ad       	ldd	r25, Y+59	; 0x3b
    4964:	0e 94 3c 34 	call	0x6878	; 0x6878 <__mulsf3>
    4968:	9b 01       	movw	r18, r22
    496a:	ac 01       	movw	r20, r24
    496c:	c7 01       	movw	r24, r14
    496e:	b6 01       	movw	r22, r12
    4970:	0e 94 8e 32 	call	0x651c	; 0x651c <__divsf3>
    4974:	9f 93       	push	r25
    4976:	8f 93       	push	r24
    4978:	7f 93       	push	r23
    497a:	6f 93       	push	r22
    497c:	6c ad       	ldd	r22, Y+60	; 0x3c
    497e:	7d ad       	ldd	r23, Y+61	; 0x3d
    4980:	8e ad       	ldd	r24, Y+62	; 0x3e
    4982:	9f ad       	ldd	r25, Y+63	; 0x3f
    4984:	0e 94 3e 33 	call	0x667c	; 0x667c <__floatsisf>
    4988:	6b 01       	movw	r12, r22
    498a:	7c 01       	movw	r14, r24
    498c:	20 e0       	ldi	r18, 0x00	; 0
    498e:	30 e0       	ldi	r19, 0x00	; 0
    4990:	40 e8       	ldi	r20, 0x80	; 128
    4992:	57 e4       	ldi	r21, 0x47	; 71
    4994:	24 96       	adiw	r28, 0x04	; 4
    4996:	6c ad       	ldd	r22, Y+60	; 0x3c
    4998:	7d ad       	ldd	r23, Y+61	; 0x3d
    499a:	8e ad       	ldd	r24, Y+62	; 0x3e
    499c:	9f ad       	ldd	r25, Y+63	; 0x3f
    499e:	24 97       	sbiw	r28, 0x04	; 4
    49a0:	0e 94 3c 34 	call	0x6878	; 0x6878 <__mulsf3>
    49a4:	9b 01       	movw	r18, r22
    49a6:	ac 01       	movw	r20, r24
    49a8:	c7 01       	movw	r24, r14
    49aa:	b6 01       	movw	r22, r12
    49ac:	0e 94 8e 32 	call	0x651c	; 0x651c <__divsf3>
    49b0:	9f 93       	push	r25
    49b2:	8f 93       	push	r24
    49b4:	7f 93       	push	r23
    49b6:	6f 93       	push	r22
    49b8:	28 96       	adiw	r28, 0x08	; 8
    49ba:	6c ad       	ldd	r22, Y+60	; 0x3c
    49bc:	7d ad       	ldd	r23, Y+61	; 0x3d
    49be:	8e ad       	ldd	r24, Y+62	; 0x3e
    49c0:	9f ad       	ldd	r25, Y+63	; 0x3f
    49c2:	28 97       	sbiw	r28, 0x08	; 8
    49c4:	0e 94 3e 33 	call	0x667c	; 0x667c <__floatsisf>
    49c8:	25 e5       	ldi	r18, 0x55	; 85
    49ca:	35 e5       	ldi	r19, 0x55	; 85
    49cc:	45 e8       	ldi	r20, 0x85	; 133
    49ce:	59 e4       	ldi	r21, 0x49	; 73
    49d0:	0e 94 8e 32 	call	0x651c	; 0x651c <__divsf3>
    49d4:	9f 93       	push	r25
    49d6:	8f 93       	push	r24
    49d8:	7f 93       	push	r23
    49da:	6f 93       	push	r22
    49dc:	2c 96       	adiw	r28, 0x0c	; 12
    49de:	6c ad       	ldd	r22, Y+60	; 0x3c
    49e0:	7d ad       	ldd	r23, Y+61	; 0x3d
    49e2:	8e ad       	ldd	r24, Y+62	; 0x3e
    49e4:	9f ad       	ldd	r25, Y+63	; 0x3f
    49e6:	2c 97       	sbiw	r28, 0x0c	; 12
    49e8:	0e 94 3e 33 	call	0x667c	; 0x667c <__floatsisf>
    49ec:	25 e5       	ldi	r18, 0x55	; 85
    49ee:	35 e5       	ldi	r19, 0x55	; 85
    49f0:	45 e8       	ldi	r20, 0x85	; 133
    49f2:	59 e4       	ldi	r21, 0x49	; 73
    49f4:	0e 94 8e 32 	call	0x651c	; 0x651c <__divsf3>
    49f8:	9f 93       	push	r25
    49fa:	8f 93       	push	r24
    49fc:	7f 93       	push	r23
    49fe:	6f 93       	push	r22
    4a00:	60 96       	adiw	r28, 0x10	; 16
    4a02:	6c ad       	ldd	r22, Y+60	; 0x3c
    4a04:	7d ad       	ldd	r23, Y+61	; 0x3d
    4a06:	8e ad       	ldd	r24, Y+62	; 0x3e
    4a08:	9f ad       	ldd	r25, Y+63	; 0x3f
    4a0a:	60 97       	sbiw	r28, 0x10	; 16
    4a0c:	0e 94 3e 33 	call	0x667c	; 0x667c <__floatsisf>
    4a10:	20 e0       	ldi	r18, 0x00	; 0
    4a12:	30 e0       	ldi	r19, 0x00	; 0
    4a14:	40 e8       	ldi	r20, 0x80	; 128
    4a16:	57 e3       	ldi	r21, 0x37	; 55
    4a18:	0e 94 3c 34 	call	0x6878	; 0x6878 <__mulsf3>
    4a1c:	9f 93       	push	r25
    4a1e:	8f 93       	push	r24
    4a20:	7f 93       	push	r23
    4a22:	6f 93       	push	r22
    4a24:	64 96       	adiw	r28, 0x14	; 20
    4a26:	6c ad       	ldd	r22, Y+60	; 0x3c
    4a28:	7d ad       	ldd	r23, Y+61	; 0x3d
    4a2a:	8e ad       	ldd	r24, Y+62	; 0x3e
    4a2c:	9f ad       	ldd	r25, Y+63	; 0x3f
    4a2e:	64 97       	sbiw	r28, 0x14	; 20
    4a30:	0e 94 3e 33 	call	0x667c	; 0x667c <__floatsisf>
    4a34:	20 e0       	ldi	r18, 0x00	; 0
    4a36:	30 e0       	ldi	r19, 0x00	; 0
    4a38:	40 e8       	ldi	r20, 0x80	; 128
    4a3a:	57 e3       	ldi	r21, 0x37	; 55
    4a3c:	0e 94 3c 34 	call	0x6878	; 0x6878 <__mulsf3>
    4a40:	9f 93       	push	r25
    4a42:	8f 93       	push	r24
    4a44:	7f 93       	push	r23
    4a46:	6f 93       	push	r22
    4a48:	68 96       	adiw	r28, 0x18	; 24
    4a4a:	6c ad       	ldd	r22, Y+60	; 0x3c
    4a4c:	7d ad       	ldd	r23, Y+61	; 0x3d
    4a4e:	8e ad       	ldd	r24, Y+62	; 0x3e
    4a50:	9f ad       	ldd	r25, Y+63	; 0x3f
    4a52:	68 97       	sbiw	r28, 0x18	; 24
    4a54:	0e 94 3c 33 	call	0x6678	; 0x6678 <__floatunsisf>
    4a58:	20 e0       	ldi	r18, 0x00	; 0
    4a5a:	30 e4       	ldi	r19, 0x40	; 64
    4a5c:	4c e9       	ldi	r20, 0x9C	; 156
    4a5e:	55 e4       	ldi	r21, 0x45	; 69
    4a60:	0e 94 8e 32 	call	0x651c	; 0x651c <__divsf3>
    4a64:	9f 93       	push	r25
    4a66:	8f 93       	push	r24
    4a68:	7f 93       	push	r23
    4a6a:	6f 93       	push	r22
    4a6c:	8c e6       	ldi	r24, 0x6C	; 108
    4a6e:	96 e2       	ldi	r25, 0x26	; 38
    4a70:	9f 93       	push	r25
    4a72:	8f 93       	push	r24
    4a74:	af 96       	adiw	r28, 0x2f	; 47
    4a76:	ff ad       	ldd	r31, Y+63	; 0x3f
    4a78:	af 97       	sbiw	r28, 0x2f	; 47
    4a7a:	ff 93       	push	r31
    4a7c:	ae 96       	adiw	r28, 0x2e	; 46
    4a7e:	2f ad       	ldd	r18, Y+63	; 0x3f
    4a80:	ae 97       	sbiw	r28, 0x2e	; 46
    4a82:	2f 93       	push	r18
    4a84:	0e 94 1a 3d 	call	0x7a34	; 0x7a34 <fprintf>
		(int16_t)sSensorDataSnapshot.ccPower,
		sSensorDataSnapshot.ccTargetSpeed ? (EVA_WHEEL_METER_PER_PULSE * WHEEL_MS_TO_KMH * CYCLES_PER_SECOND / (sSensorDataSnapshot.ccTargetSpeed  / 65536.0f)) : 0.0f,
		(int16_t)!sSensorDataSnapshot.selCC2State,
		((float) sSensorDataSnapshot.selCC2Timestamp / CYCLES_PER_SECOND));
	
} /* PrintCSV_EVA */
    4a88:	cd bf       	out	0x3d, r28	; 61
    4a8a:	de bf       	out	0x3e, r29	; 62
    4a8c:	cd 57       	subi	r28, 0x7D	; 125
    4a8e:	df 4f       	sbci	r29, 0xFF	; 255
    4a90:	cd bf       	out	0x3d, r28	; 61
    4a92:	de bf       	out	0x3e, r29	; 62
    4a94:	df 91       	pop	r29
    4a96:	cf 91       	pop	r28
    4a98:	1f 91       	pop	r17
    4a9a:	0f 91       	pop	r16
    4a9c:	ff 90       	pop	r15
    4a9e:	ef 90       	pop	r14
    4aa0:	df 90       	pop	r13
    4aa2:	cf 90       	pop	r12
    4aa4:	bf 90       	pop	r11
    4aa6:	af 90       	pop	r10
    4aa8:	9f 90       	pop	r9
    4aaa:	8f 90       	pop	r8
    4aac:	7f 90       	pop	r7
    4aae:	6f 90       	pop	r6
    4ab0:	5f 90       	pop	r5
    4ab2:	4f 90       	pop	r4
    4ab4:	3f 90       	pop	r3
    4ab6:	2f 90       	pop	r2
    4ab8:	08 95       	ret

00004aba <PrintResetHeader>:


void PrintResetHeader(FILE *fp) {
    4aba:	cf 93       	push	r28
    4abc:	df 93       	push	r29
    4abe:	d8 2f       	mov	r29, r24
    4ac0:	c9 2f       	mov	r28, r25
	
	fprintf(fp, "# HvA SECOM Motor driver board ");
    4ac2:	28 2f       	mov	r18, r24
    4ac4:	39 2f       	mov	r19, r25
    4ac6:	4f e1       	ldi	r20, 0x1F	; 31
    4ac8:	50 e0       	ldi	r21, 0x00	; 0
    4aca:	61 e0       	ldi	r22, 0x01	; 1
    4acc:	70 e0       	ldi	r23, 0x00	; 0
    4ace:	8e ee       	ldi	r24, 0xEE	; 238
    4ad0:	96 e2       	ldi	r25, 0x26	; 38
    4ad2:	0e 94 66 3d 	call	0x7acc	; 0x7acc <fwrite>
	PrintBoardType(fp);
    4ad6:	8d 2f       	mov	r24, r29
    4ad8:	9c 2f       	mov	r25, r28
    4ada:	0e 94 ab 30 	call	0x6156	; 0x6156 <PrintBoardType>
	fprintf(fp, "busID %d cpu ", GetBusID());
    4ade:	0e 94 99 30 	call	0x6132	; 0x6132 <GetBusID>
    4ae2:	1f 92       	push	r1
    4ae4:	8f 93       	push	r24
    4ae6:	8e e0       	ldi	r24, 0x0E	; 14
    4ae8:	97 e2       	ldi	r25, 0x27	; 39
    4aea:	9f 93       	push	r25
    4aec:	8f 93       	push	r24
    4aee:	cf 93       	push	r28
    4af0:	df 93       	push	r29
    4af2:	0e 94 1a 3d 	call	0x7a34	; 0x7a34 <fprintf>
	PrintProcessorID(fp);
    4af6:	8d 2f       	mov	r24, r29
    4af8:	9c 2f       	mov	r25, r28
    4afa:	0e 94 e7 30 	call	0x61ce	; 0x61ce <PrintProcessorID>
	fprintf(fp, "# code " __DATE__ " " __TIME__ "\r\n");
    4afe:	2d 2f       	mov	r18, r29
    4b00:	3c 2f       	mov	r19, r28
    4b02:	4d e1       	ldi	r20, 0x1D	; 29
    4b04:	50 e0       	ldi	r21, 0x00	; 0
    4b06:	61 e0       	ldi	r22, 0x01	; 1
    4b08:	70 e0       	ldi	r23, 0x00	; 0
    4b0a:	8c e1       	ldi	r24, 0x1C	; 28
    4b0c:	97 e2       	ldi	r25, 0x27	; 39
    4b0e:	0e 94 66 3d 	call	0x7acc	; 0x7acc <fwrite>
	
} /* PrintResetHeader */
    4b12:	0f 90       	pop	r0
    4b14:	0f 90       	pop	r0
    4b16:	0f 90       	pop	r0
    4b18:	0f 90       	pop	r0
    4b1a:	0f 90       	pop	r0
    4b1c:	0f 90       	pop	r0
    4b1e:	df 91       	pop	r29
    4b20:	cf 91       	pop	r28
    4b22:	08 95       	ret

00004b24 <__vector_71>:
 	}
	
} /* ISRReadADC_EVA */


ISR(ADCA_CH0_vect) {
    4b24:	1f 92       	push	r1
    4b26:	0f 92       	push	r0
    4b28:	0f b6       	in	r0, 0x3f	; 63
    4b2a:	0f 92       	push	r0
    4b2c:	11 24       	eor	r1, r1
    4b2e:	0b b6       	in	r0, 0x3b	; 59
    4b30:	0f 92       	push	r0
    4b32:	2f 92       	push	r2
    4b34:	3f 92       	push	r3
    4b36:	4f 92       	push	r4
    4b38:	5f 92       	push	r5
    4b3a:	6f 92       	push	r6
    4b3c:	7f 92       	push	r7
    4b3e:	8f 92       	push	r8
    4b40:	9f 92       	push	r9
    4b42:	af 92       	push	r10
    4b44:	bf 92       	push	r11
    4b46:	cf 92       	push	r12
    4b48:	df 92       	push	r13
    4b4a:	ef 92       	push	r14
    4b4c:	ff 92       	push	r15
    4b4e:	0f 93       	push	r16
    4b50:	1f 93       	push	r17
    4b52:	2f 93       	push	r18
    4b54:	3f 93       	push	r19
    4b56:	4f 93       	push	r20
    4b58:	5f 93       	push	r21
    4b5a:	6f 93       	push	r22
    4b5c:	7f 93       	push	r23
    4b5e:	8f 93       	push	r24
    4b60:	9f 93       	push	r25
    4b62:	af 93       	push	r26
    4b64:	bf 93       	push	r27
    4b66:	cf 93       	push	r28
    4b68:	df 93       	push	r29
    4b6a:	ef 93       	push	r30
    4b6c:	ff 93       	push	r31

	static int32_t sCCPrevPulseInterval;

	int16_t spRawSample, driverTempSample, motorVoltageSample, motorCurrentSample, inVoltageSample, inCurrentSample;
	int32_t inPower, motorPower;
	uint8_t selCCPin = PORTC.IN & PIN2_bm, selCC2Pin = PORTC.IN & PIN5_bm, selFPPin = PORTC.IN & PIN4_bm, pwmEn = !(PORTC.IN & PIN1_bm), pwm = PORTC.IN & PIN6_bm;
    4b6e:	e0 e4       	ldi	r30, 0x40	; 64
    4b70:	f6 e0       	ldi	r31, 0x06	; 6
    4b72:	d0 85       	ldd	r29, Z+8	; 0x08
    4b74:	d4 70       	andi	r29, 0x04	; 4
    4b76:	c0 85       	ldd	r28, Z+8	; 0x08
    4b78:	c0 72       	andi	r28, 0x20	; 32
    4b7a:	80 85       	ldd	r24, Z+8	; 0x08
    4b7c:	80 71       	andi	r24, 0x10	; 16
    4b7e:	58 2e       	mov	r5, r24
    4b80:	80 85       	ldd	r24, Z+8	; 0x08
    4b82:	82 70       	andi	r24, 0x02	; 2
    4b84:	38 2e       	mov	r3, r24
    4b86:	20 84       	ldd	r2, Z+8	; 0x08
	uint8_t curPWMCycles = TCC1.CNTL;
    4b88:	40 90 60 08 	lds	r4, 0x0860	; 0x800860 <__TEXT_REGION_LENGTH__+0x700860>
	
	if(I_AM_EVA_L || I_AM_EVA_R)
    4b8c:	80 91 68 06 	lds	r24, 0x0668	; 0x800668 <__TEXT_REGION_LENGTH__+0x700668>
    4b90:	80 73       	andi	r24, 0x30	; 48
    4b92:	80 31       	cpi	r24, 0x10	; 16
    4b94:	31 f0       	breq	.+12     	; 0x4ba2 <__vector_71+0x7e>
    4b96:	80 91 68 06 	lds	r24, 0x0668	; 0x800668 <__TEXT_REGION_LENGTH__+0x700668>
    4b9a:	80 73       	andi	r24, 0x30	; 48
    4b9c:	80 32       	cpi	r24, 0x20	; 32
    4b9e:	09 f0       	breq	.+2      	; 0x4ba2 <__vector_71+0x7e>
    4ba0:	e8 c0       	rjmp	.+464    	; 0x4d72 <__vector_71+0x24e>
} /* ISRReadADC_H2A */


static inline void ISRReadADC_EVA(void) {
	
	int16_t motorTempFront = ADCA.CH0RES, motorTempRear, angSample, angFSSample;
    4ba2:	80 91 10 02 	lds	r24, 0x0210	; 0x800210 <__TEXT_REGION_LENGTH__+0x700210>
    4ba6:	90 91 11 02 	lds	r25, 0x0211	; 0x800211 <__TEXT_REGION_LENGTH__+0x700211>

	uint8_t selRegenPin = !(PORTC.IN & PIN5_bm);
    4baa:	20 91 48 06 	lds	r18, 0x0648	; 0x800648 <__TEXT_REGION_LENGTH__+0x700648>
    4bae:	25 fb       	bst	r18, 5
    4bb0:	22 27       	eor	r18, r18
    4bb2:	20 f9       	bld	r18, 0
    4bb4:	31 e0       	ldi	r19, 0x01	; 1
    4bb6:	23 27       	eor	r18, r19
	
	FILTER32(motorTempFront, sSensorData.adc.eva.motorTempFrontFiltered);
    4bb8:	e0 e6       	ldi	r30, 0x60	; 96
    4bba:	f8 e2       	ldi	r31, 0x28	; 40
    4bbc:	40 81       	ld	r20, Z
    4bbe:	51 81       	ldd	r21, Z+1	; 0x01
    4bc0:	62 81       	ldd	r22, Z+2	; 0x02
    4bc2:	73 81       	ldd	r23, Z+3	; 0x03
    4bc4:	c5 2e       	mov	r12, r21
    4bc6:	d6 2e       	mov	r13, r22
    4bc8:	e7 2e       	mov	r14, r23
    4bca:	ff 24       	eor	r15, r15
    4bcc:	e7 fc       	sbrc	r14, 7
    4bce:	fa 94       	dec	r15
    4bd0:	4c 19       	sub	r20, r12
    4bd2:	5d 09       	sbc	r21, r13
    4bd4:	6e 09       	sbc	r22, r14
    4bd6:	7f 09       	sbc	r23, r15
    4bd8:	09 2e       	mov	r0, r25
    4bda:	00 0c       	add	r0, r0
    4bdc:	aa 0b       	sbc	r26, r26
    4bde:	bb 0b       	sbc	r27, r27
    4be0:	ba 2f       	mov	r27, r26
    4be2:	a9 2f       	mov	r26, r25
    4be4:	98 2f       	mov	r25, r24
    4be6:	88 27       	eor	r24, r24
    4be8:	84 0f       	add	r24, r20
    4bea:	95 1f       	adc	r25, r21
    4bec:	a6 1f       	adc	r26, r22
    4bee:	b7 1f       	adc	r27, r23
    4bf0:	80 83       	st	Z, r24
    4bf2:	91 83       	std	Z+1, r25	; 0x01
    4bf4:	a2 83       	std	Z+2, r26	; 0x02
    4bf6:	b3 83       	std	Z+3, r27	; 0x03
	
	while(!(ADCB.CH0.INTFLAGS & 0x01)) ; /* Should not be necessary, as ADCB.CH0 is expected to be done simultaneously with ADCA.CH0 */
    4bf8:	e0 e4       	ldi	r30, 0x40	; 64
    4bfa:	f2 e0       	ldi	r31, 0x02	; 2
    4bfc:	83 a1       	ldd	r24, Z+35	; 0x23
    4bfe:	80 ff       	sbrs	r24, 0
    4c00:	fd cf       	rjmp	.-6      	; 0x4bfc <__vector_71+0xd8>
	ADCB.CH0.INTFLAGS = 0x01;
    4c02:	e0 e4       	ldi	r30, 0x40	; 64
    4c04:	f2 e0       	ldi	r31, 0x02	; 2
    4c06:	81 e0       	ldi	r24, 0x01	; 1
    4c08:	83 a3       	std	Z+35, r24	; 0x23
	motorTempRear = ADCB.CH0RES;
    4c0a:	80 89       	ldd	r24, Z+16	; 0x10
    4c0c:	91 89       	ldd	r25, Z+17	; 0x11
	FILTER32(motorTempRear, sSensorData.adc.eva.motorTempRearFiltered);
    4c0e:	e0 e6       	ldi	r30, 0x60	; 96
    4c10:	f8 e2       	ldi	r31, 0x28	; 40
    4c12:	44 81       	ldd	r20, Z+4	; 0x04
    4c14:	55 81       	ldd	r21, Z+5	; 0x05
    4c16:	66 81       	ldd	r22, Z+6	; 0x06
    4c18:	77 81       	ldd	r23, Z+7	; 0x07
    4c1a:	c5 2e       	mov	r12, r21
    4c1c:	d6 2e       	mov	r13, r22
    4c1e:	e7 2e       	mov	r14, r23
    4c20:	ff 24       	eor	r15, r15
    4c22:	e7 fc       	sbrc	r14, 7
    4c24:	fa 94       	dec	r15
    4c26:	4c 19       	sub	r20, r12
    4c28:	5d 09       	sbc	r21, r13
    4c2a:	6e 09       	sbc	r22, r14
    4c2c:	7f 09       	sbc	r23, r15
    4c2e:	09 2e       	mov	r0, r25
    4c30:	00 0c       	add	r0, r0
    4c32:	aa 0b       	sbc	r26, r26
    4c34:	bb 0b       	sbc	r27, r27
    4c36:	ba 2f       	mov	r27, r26
    4c38:	a9 2f       	mov	r26, r25
    4c3a:	98 2f       	mov	r25, r24
    4c3c:	88 27       	eor	r24, r24
    4c3e:	84 0f       	add	r24, r20
    4c40:	95 1f       	adc	r25, r21
    4c42:	a6 1f       	adc	r26, r22
    4c44:	b7 1f       	adc	r27, r23
    4c46:	84 83       	std	Z+4, r24	; 0x04
    4c48:	95 83       	std	Z+5, r25	; 0x05
    4c4a:	a6 83       	std	Z+6, r26	; 0x06
    4c4c:	b7 83       	std	Z+7, r27	; 0x07
	
	while(!(ADCA.CH1.INTFLAGS & 0x01)) ;
    4c4e:	e0 e0       	ldi	r30, 0x00	; 0
    4c50:	f2 e0       	ldi	r31, 0x02	; 2
    4c52:	83 a5       	ldd	r24, Z+43	; 0x2b
    4c54:	80 ff       	sbrs	r24, 0
    4c56:	fd cf       	rjmp	.-6      	; 0x4c52 <__vector_71+0x12e>
	ADCA.CH1.INTFLAGS = 0x01;
    4c58:	e0 e0       	ldi	r30, 0x00	; 0
    4c5a:	f2 e0       	ldi	r31, 0x02	; 2
    4c5c:	81 e0       	ldi	r24, 0x01	; 1
    4c5e:	83 a7       	std	Z+43, r24	; 0x2b
	angSample = ADCA.CH1RES;
    4c60:	82 89       	ldd	r24, Z+18	; 0x12
    4c62:	93 89       	ldd	r25, Z+19	; 0x13
	FILTER32(angSample, sSensorData.adc.eva.angSenseFiltered);
    4c64:	e0 e6       	ldi	r30, 0x60	; 96
    4c66:	f8 e2       	ldi	r31, 0x28	; 40
    4c68:	40 85       	ldd	r20, Z+8	; 0x08
    4c6a:	51 85       	ldd	r21, Z+9	; 0x09
    4c6c:	62 85       	ldd	r22, Z+10	; 0x0a
    4c6e:	73 85       	ldd	r23, Z+11	; 0x0b
    4c70:	c5 2e       	mov	r12, r21
    4c72:	d6 2e       	mov	r13, r22
    4c74:	e7 2e       	mov	r14, r23
    4c76:	ff 24       	eor	r15, r15
    4c78:	e7 fc       	sbrc	r14, 7
    4c7a:	fa 94       	dec	r15
    4c7c:	4c 19       	sub	r20, r12
    4c7e:	5d 09       	sbc	r21, r13
    4c80:	6e 09       	sbc	r22, r14
    4c82:	7f 09       	sbc	r23, r15
    4c84:	09 2e       	mov	r0, r25
    4c86:	00 0c       	add	r0, r0
    4c88:	aa 0b       	sbc	r26, r26
    4c8a:	bb 0b       	sbc	r27, r27
    4c8c:	ba 2f       	mov	r27, r26
    4c8e:	a9 2f       	mov	r26, r25
    4c90:	98 2f       	mov	r25, r24
    4c92:	88 27       	eor	r24, r24
    4c94:	84 0f       	add	r24, r20
    4c96:	95 1f       	adc	r25, r21
    4c98:	a6 1f       	adc	r26, r22
    4c9a:	b7 1f       	adc	r27, r23
    4c9c:	80 87       	std	Z+8, r24	; 0x08
    4c9e:	91 87       	std	Z+9, r25	; 0x09
    4ca0:	a2 87       	std	Z+10, r26	; 0x0a
    4ca2:	b3 87       	std	Z+11, r27	; 0x0b
	
	while(!(ADCB.CH1.INTFLAGS & 0x01)) ;
    4ca4:	e0 e4       	ldi	r30, 0x40	; 64
    4ca6:	f2 e0       	ldi	r31, 0x02	; 2
    4ca8:	83 a5       	ldd	r24, Z+43	; 0x2b
    4caa:	80 ff       	sbrs	r24, 0
    4cac:	fd cf       	rjmp	.-6      	; 0x4ca8 <__vector_71+0x184>
	ADCB.CH1.INTFLAGS = 0x01;
    4cae:	e0 e4       	ldi	r30, 0x40	; 64
    4cb0:	f2 e0       	ldi	r31, 0x02	; 2
    4cb2:	81 e0       	ldi	r24, 0x01	; 1
    4cb4:	83 a7       	std	Z+43, r24	; 0x2b
	angFSSample = ADCB.CH1RES;
    4cb6:	82 89       	ldd	r24, Z+18	; 0x12
    4cb8:	93 89       	ldd	r25, Z+19	; 0x13
	FILTER32(angFSSample, sSensorData.adc.eva.angFSFiltered);
    4cba:	e0 e6       	ldi	r30, 0x60	; 96
    4cbc:	f8 e2       	ldi	r31, 0x28	; 40
    4cbe:	44 85       	ldd	r20, Z+12	; 0x0c
    4cc0:	55 85       	ldd	r21, Z+13	; 0x0d
    4cc2:	66 85       	ldd	r22, Z+14	; 0x0e
    4cc4:	77 85       	ldd	r23, Z+15	; 0x0f
    4cc6:	c5 2e       	mov	r12, r21
    4cc8:	d6 2e       	mov	r13, r22
    4cca:	e7 2e       	mov	r14, r23
    4ccc:	ff 24       	eor	r15, r15
    4cce:	e7 fc       	sbrc	r14, 7
    4cd0:	fa 94       	dec	r15
    4cd2:	4c 19       	sub	r20, r12
    4cd4:	5d 09       	sbc	r21, r13
    4cd6:	6e 09       	sbc	r22, r14
    4cd8:	7f 09       	sbc	r23, r15
    4cda:	09 2e       	mov	r0, r25
    4cdc:	00 0c       	add	r0, r0
    4cde:	aa 0b       	sbc	r26, r26
    4ce0:	bb 0b       	sbc	r27, r27
    4ce2:	ba 2f       	mov	r27, r26
    4ce4:	a9 2f       	mov	r26, r25
    4ce6:	98 2f       	mov	r25, r24
    4ce8:	88 27       	eor	r24, r24
    4cea:	84 0f       	add	r24, r20
    4cec:	95 1f       	adc	r25, r21
    4cee:	a6 1f       	adc	r26, r22
    4cf0:	b7 1f       	adc	r27, r23
    4cf2:	84 87       	std	Z+12, r24	; 0x0c
    4cf4:	95 87       	std	Z+13, r25	; 0x0d
    4cf6:	a6 87       	std	Z+14, r26	; 0x0e
    4cf8:	b7 87       	std	Z+15, r27	; 0x0f


 	if(sSensorData.adc.eva.regBrakeState != selRegenPin) {
    4cfa:	42 2f       	mov	r20, r18
    4cfc:	50 e0       	ldi	r21, 0x00	; 0
    4cfe:	60 e0       	ldi	r22, 0x00	; 0
    4d00:	70 e0       	ldi	r23, 0x00	; 0
    4d02:	80 89       	ldd	r24, Z+16	; 0x10
    4d04:	91 89       	ldd	r25, Z+17	; 0x11
    4d06:	a2 89       	ldd	r26, Z+18	; 0x12
    4d08:	b3 89       	ldd	r27, Z+19	; 0x13
    4d0a:	84 17       	cp	r24, r20
    4d0c:	95 07       	cpc	r25, r21
    4d0e:	a6 07       	cpc	r26, r22
    4d10:	b7 07       	cpc	r27, r23
    4d12:	09 f4       	brne	.+2      	; 0x4d16 <__vector_71+0x1f2>
    4d14:	97 c1       	rjmp	.+814    	; 0x5044 <__vector_71+0x520>
 		SET_CC_DRIVE(REGBRAKE_LEVEL);
    4d16:	80 91 68 06 	lds	r24, 0x0668	; 0x800668 <__TEXT_REGION_LENGTH__+0x700668>
    4d1a:	80 73       	andi	r24, 0x30	; 48
    4d1c:	39 f4       	brne	.+14     	; 0x4d2c <__vector_71+0x208>
    4d1e:	e0 e8       	ldi	r30, 0x80	; 128
    4d20:	f6 e0       	ldi	r31, 0x06	; 6
    4d22:	87 e0       	ldi	r24, 0x07	; 7
    4d24:	85 83       	std	Z+5, r24	; 0x05
    4d26:	88 e0       	ldi	r24, 0x08	; 8
    4d28:	86 83       	std	Z+6, r24	; 0x06
    4d2a:	0d c0       	rjmp	.+26     	; 0x4d46 <__vector_71+0x222>
    4d2c:	80 91 68 06 	lds	r24, 0x0668	; 0x800668 <__TEXT_REGION_LENGTH__+0x700668>
    4d30:	80 73       	andi	r24, 0x30	; 48
    4d32:	80 31       	cpi	r24, 0x10	; 16
    4d34:	29 f0       	breq	.+10     	; 0x4d40 <__vector_71+0x21c>
    4d36:	80 91 68 06 	lds	r24, 0x0668	; 0x800668 <__TEXT_REGION_LENGTH__+0x700668>
    4d3a:	80 73       	andi	r24, 0x30	; 48
    4d3c:	80 32       	cpi	r24, 0x20	; 32
    4d3e:	19 f4       	brne	.+6      	; 0x4d46 <__vector_71+0x222>
    4d40:	87 e0       	ldi	r24, 0x07	; 7
    4d42:	80 93 85 06 	sts	0x0685, r24	; 0x800685 <__TEXT_REGION_LENGTH__+0x700685>
 		PORTE.OUTSET = PIN3_bm;
    4d46:	88 e0       	ldi	r24, 0x08	; 8
    4d48:	80 93 85 06 	sts	0x0685, r24	; 0x800685 <__TEXT_REGION_LENGTH__+0x700685>
 		sSensorData.adc.eva.regBrakeState = selRegenPin;
    4d4c:	e0 e6       	ldi	r30, 0x60	; 96
    4d4e:	f8 e2       	ldi	r31, 0x28	; 40
    4d50:	40 8b       	std	Z+16, r20	; 0x10
    4d52:	51 8b       	std	Z+17, r21	; 0x11
    4d54:	62 8b       	std	Z+18, r22	; 0x12
    4d56:	73 8b       	std	Z+19, r23	; 0x13
 		sSensorData.adc.eva.regBrakeTimestamp = sSessionCycleCount;
    4d58:	80 91 e3 28 	lds	r24, 0x28E3	; 0x8028e3 <sSessionCycleCount>
    4d5c:	90 91 e4 28 	lds	r25, 0x28E4	; 0x8028e4 <sSessionCycleCount+0x1>
    4d60:	a0 91 e5 28 	lds	r26, 0x28E5	; 0x8028e5 <sSessionCycleCount+0x2>
    4d64:	b0 91 e6 28 	lds	r27, 0x28E6	; 0x8028e6 <sSessionCycleCount+0x3>
    4d68:	84 8b       	std	Z+20, r24	; 0x14
    4d6a:	95 8b       	std	Z+21, r25	; 0x15
    4d6c:	a6 8b       	std	Z+22, r26	; 0x16
    4d6e:	b7 8b       	std	Z+23, r27	; 0x17
    4d70:	69 c1       	rjmp	.+722    	; 0x5044 <__vector_71+0x520>
	} \
} while(0)

static inline void ISRReadADC_H2A(void) {

	int16_t fcVoltageSample = ADCA.CH0RES - sCal.fcVoltageOffset, fcCurrentSample, scVoltageSample, scCurrentSample;
    4d72:	20 91 10 02 	lds	r18, 0x0210	; 0x800210 <__TEXT_REGION_LENGTH__+0x700210>
    4d76:	30 91 11 02 	lds	r19, 0x0211	; 0x800211 <__TEXT_REGION_LENGTH__+0x700211>
    4d7a:	80 91 e5 29 	lds	r24, 0x29E5	; 0x8029e5 <sCal>
    4d7e:	90 91 e6 29 	lds	r25, 0x29E6	; 0x8029e6 <sCal+0x1>
	int32_t fcPower, scPower;

	uint8_t idealDiodePin = PORTE.IN & PIN4_bm;
    4d82:	40 91 88 06 	lds	r20, 0x0688	; 0x800688 <__TEXT_REGION_LENGTH__+0x700688>
    4d86:	40 71       	andi	r20, 0x10	; 16
    4d88:	64 2e       	mov	r6, r20
	
	uint8_t selRegenPin = !(PORTC.IN & PIN5_bm);
    4d8a:	80 90 48 06 	lds	r8, 0x0648	; 0x800648 <__TEXT_REGION_LENGTH__+0x700648>
    4d8e:	85 fa       	bst	r8, 5
    4d90:	44 27       	eor	r20, r20
    4d92:	40 f9       	bld	r20, 0
    4d94:	51 e0       	ldi	r21, 0x01	; 1
    4d96:	74 2e       	mov	r7, r20
    4d98:	75 26       	eor	r7, r21
	
	FILTER32(fcVoltageSample, sSensorData.adc.h2a.fcVoltageFiltered);
    4d9a:	e0 e6       	ldi	r30, 0x60	; 96
    4d9c:	f8 e2       	ldi	r31, 0x28	; 40
    4d9e:	c0 80       	ld	r12, Z
    4da0:	d1 80       	ldd	r13, Z+1	; 0x01
    4da2:	e2 80       	ldd	r14, Z+2	; 0x02
    4da4:	f3 80       	ldd	r15, Z+3	; 0x03
    4da6:	28 1b       	sub	r18, r24
    4da8:	39 0b       	sbc	r19, r25
    4daa:	03 2e       	mov	r0, r19
    4dac:	00 0c       	add	r0, r0
    4dae:	44 0b       	sbc	r20, r20
    4db0:	55 0b       	sbc	r21, r21
    4db2:	bb 27       	eor	r27, r27
    4db4:	f7 fc       	sbrc	r15, 7
    4db6:	ba 95       	dec	r27
    4db8:	af 2d       	mov	r26, r15
    4dba:	9e 2d       	mov	r25, r14
    4dbc:	8d 2d       	mov	r24, r13
    4dbe:	c8 1a       	sub	r12, r24
    4dc0:	d9 0a       	sbc	r13, r25
    4dc2:	ea 0a       	sbc	r14, r26
    4dc4:	fb 0a       	sbc	r15, r27
    4dc6:	b4 2f       	mov	r27, r20
    4dc8:	a3 2f       	mov	r26, r19
    4dca:	92 2f       	mov	r25, r18
    4dcc:	88 27       	eor	r24, r24
    4dce:	c8 0e       	add	r12, r24
    4dd0:	d9 1e       	adc	r13, r25
    4dd2:	ea 1e       	adc	r14, r26
    4dd4:	fb 1e       	adc	r15, r27
    4dd6:	c0 82       	st	Z, r12
    4dd8:	d1 82       	std	Z+1, r13	; 0x01
    4dda:	e2 82       	std	Z+2, r14	; 0x02
    4ddc:	f3 82       	std	Z+3, r15	; 0x03
	
	while(!(ADCB.CH0.INTFLAGS & 0x01)) ; /* Should not be necessary, as ADCB.CH0 is expected to be done simultaneously with ADCA.CH0 */
    4dde:	e0 e4       	ldi	r30, 0x40	; 64
    4de0:	f2 e0       	ldi	r31, 0x02	; 2
    4de2:	83 a1       	ldd	r24, Z+35	; 0x23
    4de4:	80 ff       	sbrs	r24, 0
    4de6:	fd cf       	rjmp	.-6      	; 0x4de2 <__vector_71+0x2be>
	ADCB.CH0.INTFLAGS = 0x01;
    4de8:	e0 e4       	ldi	r30, 0x40	; 64
    4dea:	f2 e0       	ldi	r31, 0x02	; 2
    4dec:	81 e0       	ldi	r24, 0x01	; 1
    4dee:	83 a3       	std	Z+35, r24	; 0x23
	fcCurrentSample = ADCB.CH0RES - sCal.fcCurrentOffset;
    4df0:	60 89       	ldd	r22, Z+16	; 0x10
    4df2:	71 89       	ldd	r23, Z+17	; 0x11
    4df4:	80 91 e7 29 	lds	r24, 0x29E7	; 0x8029e7 <sCal+0x2>
    4df8:	90 91 e8 29 	lds	r25, 0x29E8	; 0x8029e8 <sCal+0x3>
	FILTER32(fcCurrentSample, sSensorData.adc.h2a.fcCurrentFiltered);
    4dfc:	e0 e6       	ldi	r30, 0x60	; 96
    4dfe:	f8 e2       	ldi	r31, 0x28	; 40
    4e00:	c4 80       	ldd	r12, Z+4	; 0x04
    4e02:	d5 80       	ldd	r13, Z+5	; 0x05
    4e04:	e6 80       	ldd	r14, Z+6	; 0x06
    4e06:	f7 80       	ldd	r15, Z+7	; 0x07
    4e08:	68 1b       	sub	r22, r24
    4e0a:	79 0b       	sbc	r23, r25
    4e0c:	07 2e       	mov	r0, r23
    4e0e:	00 0c       	add	r0, r0
    4e10:	88 0b       	sbc	r24, r24
    4e12:	99 0b       	sbc	r25, r25
    4e14:	8d 2c       	mov	r8, r13
    4e16:	9e 2c       	mov	r9, r14
    4e18:	af 2c       	mov	r10, r15
    4e1a:	bb 24       	eor	r11, r11
    4e1c:	a7 fc       	sbrc	r10, 7
    4e1e:	ba 94       	dec	r11
    4e20:	c8 18       	sub	r12, r8
    4e22:	d9 08       	sbc	r13, r9
    4e24:	ea 08       	sbc	r14, r10
    4e26:	fb 08       	sbc	r15, r11
    4e28:	88 24       	eor	r8, r8
    4e2a:	96 2e       	mov	r9, r22
    4e2c:	a7 2e       	mov	r10, r23
    4e2e:	b8 2e       	mov	r11, r24
    4e30:	c8 0c       	add	r12, r8
    4e32:	d9 1c       	adc	r13, r9
    4e34:	ea 1c       	adc	r14, r10
    4e36:	fb 1c       	adc	r15, r11
    4e38:	c4 82       	std	Z+4, r12	; 0x04
    4e3a:	d5 82       	std	Z+5, r13	; 0x05
    4e3c:	e6 82       	std	Z+6, r14	; 0x06
    4e3e:	f7 82       	std	Z+7, r15	; 0x07
	
	fcPower = ((int32_t) fcVoltageSample) * ((int32_t) fcCurrentSample);
    4e40:	0e 94 96 38 	call	0x712c	; 0x712c <__mulsi3>
	FILTER32PWR(fcPower, sSensorData.adc.h2a.fcPowerFiltered);
    4e44:	c0 88       	ldd	r12, Z+16	; 0x10
    4e46:	d1 88       	ldd	r13, Z+17	; 0x11
    4e48:	e2 88       	ldd	r14, Z+18	; 0x12
    4e4a:	f3 88       	ldd	r15, Z+19	; 0x13
    4e4c:	33 27       	eor	r19, r19
    4e4e:	f7 fc       	sbrc	r15, 7
    4e50:	3a 95       	dec	r19
    4e52:	2f 2d       	mov	r18, r15
    4e54:	1e 2d       	mov	r17, r14
    4e56:	0d 2d       	mov	r16, r13
    4e58:	c0 1a       	sub	r12, r16
    4e5a:	d1 0a       	sbc	r13, r17
    4e5c:	e2 0a       	sbc	r14, r18
    4e5e:	f3 0a       	sbc	r15, r19
    4e60:	c6 0e       	add	r12, r22
    4e62:	d7 1e       	adc	r13, r23
    4e64:	e8 1e       	adc	r14, r24
    4e66:	f9 1e       	adc	r15, r25
    4e68:	c0 8a       	std	Z+16, r12	; 0x10
    4e6a:	d1 8a       	std	Z+17, r13	; 0x11
    4e6c:	e2 8a       	std	Z+18, r14	; 0x12
    4e6e:	f3 8a       	std	Z+19, r15	; 0x13
	sSensorData.adc.h2a.fcEnergy += fcPower;
    4e70:	6b 01       	movw	r12, r22
    4e72:	7c 01       	movw	r14, r24
    4e74:	ff 0c       	add	r15, r15
    4e76:	cc 08       	sbc	r12, r12
    4e78:	dc 2c       	mov	r13, r12
    4e7a:	76 01       	movw	r14, r12
    4e7c:	26 2f       	mov	r18, r22
    4e7e:	37 2f       	mov	r19, r23
    4e80:	48 2f       	mov	r20, r24
    4e82:	59 2f       	mov	r21, r25
    4e84:	6c 2d       	mov	r22, r12
    4e86:	7c 2d       	mov	r23, r12
    4e88:	8c 2d       	mov	r24, r12
    4e8a:	9c 2d       	mov	r25, r12
    4e8c:	a0 8c       	ldd	r10, Z+24	; 0x18
    4e8e:	b1 8c       	ldd	r11, Z+25	; 0x19
    4e90:	c2 8c       	ldd	r12, Z+26	; 0x1a
    4e92:	d3 8c       	ldd	r13, Z+27	; 0x1b
    4e94:	e4 8c       	ldd	r14, Z+28	; 0x1c
    4e96:	f5 8c       	ldd	r15, Z+29	; 0x1d
    4e98:	06 8d       	ldd	r16, Z+30	; 0x1e
    4e9a:	17 8d       	ldd	r17, Z+31	; 0x1f
    4e9c:	0e 94 b1 38 	call	0x7162	; 0x7162 <__adddi3>
    4ea0:	20 8f       	std	Z+24, r18	; 0x18
    4ea2:	31 8f       	std	Z+25, r19	; 0x19
    4ea4:	42 8f       	std	Z+26, r20	; 0x1a
    4ea6:	53 8f       	std	Z+27, r21	; 0x1b
    4ea8:	64 8f       	std	Z+28, r22	; 0x1c
    4eaa:	75 8f       	std	Z+29, r23	; 0x1d
    4eac:	86 8f       	std	Z+30, r24	; 0x1e
    4eae:	97 8f       	std	Z+31, r25	; 0x1f
	
	while(!(ADCA.CH1.INTFLAGS & 0x01)) ; /* Should also not be necessary, by this time the conversion should be long over */
    4eb0:	e0 e0       	ldi	r30, 0x00	; 0
    4eb2:	f2 e0       	ldi	r31, 0x02	; 2
    4eb4:	83 a5       	ldd	r24, Z+43	; 0x2b
    4eb6:	80 ff       	sbrs	r24, 0
    4eb8:	fd cf       	rjmp	.-6      	; 0x4eb4 <__vector_71+0x390>
	ADCA.CH1.INTFLAGS = 0x01;
    4eba:	e0 e0       	ldi	r30, 0x00	; 0
    4ebc:	f2 e0       	ldi	r31, 0x02	; 2
    4ebe:	81 e0       	ldi	r24, 0x01	; 1
    4ec0:	83 a7       	std	Z+43, r24	; 0x2b
	scVoltageSample = ADCA.CH1RES - sCal.scVoltageOffset;
    4ec2:	22 89       	ldd	r18, Z+18	; 0x12
    4ec4:	33 89       	ldd	r19, Z+19	; 0x13
    4ec6:	80 91 e9 29 	lds	r24, 0x29E9	; 0x8029e9 <sCal+0x4>
    4eca:	90 91 ea 29 	lds	r25, 0x29EA	; 0x8029ea <sCal+0x5>
	FILTER32(scVoltageSample, sSensorData.adc.h2a.scVoltageFiltered);
    4ece:	e0 e6       	ldi	r30, 0x60	; 96
    4ed0:	f8 e2       	ldi	r31, 0x28	; 40
    4ed2:	c0 84       	ldd	r12, Z+8	; 0x08
    4ed4:	d1 84       	ldd	r13, Z+9	; 0x09
    4ed6:	e2 84       	ldd	r14, Z+10	; 0x0a
    4ed8:	f3 84       	ldd	r15, Z+11	; 0x0b
    4eda:	28 1b       	sub	r18, r24
    4edc:	39 0b       	sbc	r19, r25
    4ede:	03 2e       	mov	r0, r19
    4ee0:	00 0c       	add	r0, r0
    4ee2:	44 0b       	sbc	r20, r20
    4ee4:	55 0b       	sbc	r21, r21
    4ee6:	bb 27       	eor	r27, r27
    4ee8:	f7 fc       	sbrc	r15, 7
    4eea:	ba 95       	dec	r27
    4eec:	af 2d       	mov	r26, r15
    4eee:	9e 2d       	mov	r25, r14
    4ef0:	8d 2d       	mov	r24, r13
    4ef2:	c8 1a       	sub	r12, r24
    4ef4:	d9 0a       	sbc	r13, r25
    4ef6:	ea 0a       	sbc	r14, r26
    4ef8:	fb 0a       	sbc	r15, r27
    4efa:	b4 2f       	mov	r27, r20
    4efc:	a3 2f       	mov	r26, r19
    4efe:	92 2f       	mov	r25, r18
    4f00:	88 27       	eor	r24, r24
    4f02:	c8 0e       	add	r12, r24
    4f04:	d9 1e       	adc	r13, r25
    4f06:	ea 1e       	adc	r14, r26
    4f08:	fb 1e       	adc	r15, r27
    4f0a:	c0 86       	std	Z+8, r12	; 0x08
    4f0c:	d1 86       	std	Z+9, r13	; 0x09
    4f0e:	e2 86       	std	Z+10, r14	; 0x0a
    4f10:	f3 86       	std	Z+11, r15	; 0x0b
	
	while(!(ADCB.CH1.INTFLAGS & 0x01)) ;
    4f12:	e0 e4       	ldi	r30, 0x40	; 64
    4f14:	f2 e0       	ldi	r31, 0x02	; 2
    4f16:	83 a5       	ldd	r24, Z+43	; 0x2b
    4f18:	80 ff       	sbrs	r24, 0
    4f1a:	fd cf       	rjmp	.-6      	; 0x4f16 <__vector_71+0x3f2>
	ADCB.CH1.INTFLAGS = 0x01;
    4f1c:	e0 e4       	ldi	r30, 0x40	; 64
    4f1e:	f2 e0       	ldi	r31, 0x02	; 2
    4f20:	81 e0       	ldi	r24, 0x01	; 1
    4f22:	83 a7       	std	Z+43, r24	; 0x2b
	scCurrentSample = ADCB.CH1RES - sCal.scCurrentOffset;
    4f24:	62 89       	ldd	r22, Z+18	; 0x12
    4f26:	73 89       	ldd	r23, Z+19	; 0x13
    4f28:	80 91 eb 29 	lds	r24, 0x29EB	; 0x8029eb <sCal+0x6>
    4f2c:	90 91 ec 29 	lds	r25, 0x29EC	; 0x8029ec <sCal+0x7>
	FILTER32(scCurrentSample, sSensorData.adc.h2a.scCurrentFiltered);
    4f30:	e0 e6       	ldi	r30, 0x60	; 96
    4f32:	f8 e2       	ldi	r31, 0x28	; 40
    4f34:	c4 84       	ldd	r12, Z+12	; 0x0c
    4f36:	d5 84       	ldd	r13, Z+13	; 0x0d
    4f38:	e6 84       	ldd	r14, Z+14	; 0x0e
    4f3a:	f7 84       	ldd	r15, Z+15	; 0x0f
    4f3c:	68 1b       	sub	r22, r24
    4f3e:	79 0b       	sbc	r23, r25
    4f40:	07 2e       	mov	r0, r23
    4f42:	00 0c       	add	r0, r0
    4f44:	88 0b       	sbc	r24, r24
    4f46:	99 0b       	sbc	r25, r25
    4f48:	8d 2c       	mov	r8, r13
    4f4a:	9e 2c       	mov	r9, r14
    4f4c:	af 2c       	mov	r10, r15
    4f4e:	bb 24       	eor	r11, r11
    4f50:	a7 fc       	sbrc	r10, 7
    4f52:	ba 94       	dec	r11
    4f54:	c8 18       	sub	r12, r8
    4f56:	d9 08       	sbc	r13, r9
    4f58:	ea 08       	sbc	r14, r10
    4f5a:	fb 08       	sbc	r15, r11
    4f5c:	88 24       	eor	r8, r8
    4f5e:	96 2e       	mov	r9, r22
    4f60:	a7 2e       	mov	r10, r23
    4f62:	b8 2e       	mov	r11, r24
    4f64:	c8 0c       	add	r12, r8
    4f66:	d9 1c       	adc	r13, r9
    4f68:	ea 1c       	adc	r14, r10
    4f6a:	fb 1c       	adc	r15, r11
    4f6c:	c4 86       	std	Z+12, r12	; 0x0c
    4f6e:	d5 86       	std	Z+13, r13	; 0x0d
    4f70:	e6 86       	std	Z+14, r14	; 0x0e
    4f72:	f7 86       	std	Z+15, r15	; 0x0f
	
	if(sSensorData.adc.h2a.booststate != selRegenPin) {
    4f74:	e0 a5       	ldd	r30, Z+40	; 0x28
    4f76:	7e 16       	cp	r7, r30
    4f78:	d9 f0       	breq	.+54     	; 0x4fb0 <__vector_71+0x48c>
		SET_CC_DRIVE(BOOST_LEVEL);
    4f7a:	e0 91 68 06 	lds	r30, 0x0668	; 0x800668 <__TEXT_REGION_LENGTH__+0x700668>
    4f7e:	e0 73       	andi	r30, 0x30	; 48
    4f80:	39 f4       	brne	.+14     	; 0x4f90 <__vector_71+0x46c>
    4f82:	e0 e8       	ldi	r30, 0x80	; 128
    4f84:	f6 e0       	ldi	r31, 0x06	; 6
    4f86:	a7 e0       	ldi	r26, 0x07	; 7
    4f88:	a5 83       	std	Z+5, r26	; 0x05
    4f8a:	a8 e0       	ldi	r26, 0x08	; 8
    4f8c:	a6 83       	std	Z+6, r26	; 0x06
    4f8e:	0d c0       	rjmp	.+26     	; 0x4faa <__vector_71+0x486>
    4f90:	e0 91 68 06 	lds	r30, 0x0668	; 0x800668 <__TEXT_REGION_LENGTH__+0x700668>
    4f94:	e0 73       	andi	r30, 0x30	; 48
    4f96:	e0 31       	cpi	r30, 0x10	; 16
    4f98:	29 f0       	breq	.+10     	; 0x4fa4 <__vector_71+0x480>
    4f9a:	e0 91 68 06 	lds	r30, 0x0668	; 0x800668 <__TEXT_REGION_LENGTH__+0x700668>
    4f9e:	e0 73       	andi	r30, 0x30	; 48
    4fa0:	e0 32       	cpi	r30, 0x20	; 32
    4fa2:	19 f4       	brne	.+6      	; 0x4faa <__vector_71+0x486>
    4fa4:	e7 e0       	ldi	r30, 0x07	; 7
    4fa6:	e0 93 85 06 	sts	0x0685, r30	; 0x800685 <__TEXT_REGION_LENGTH__+0x700685>
		PORTE.OUTSET = PIN3_bm;
    4faa:	e8 e0       	ldi	r30, 0x08	; 8
    4fac:	e0 93 85 06 	sts	0x0685, r30	; 0x800685 <__TEXT_REGION_LENGTH__+0x700685>
	}

	scPower = ((int32_t) scVoltageSample) * ((int32_t) scCurrentSample);
    4fb0:	0e 94 96 38 	call	0x712c	; 0x712c <__mulsi3>
	FILTER32PWR(scPower, sSensorData.adc.h2a.scPowerFiltered);
    4fb4:	e0 e6       	ldi	r30, 0x60	; 96
    4fb6:	f8 e2       	ldi	r31, 0x28	; 40
    4fb8:	c4 88       	ldd	r12, Z+20	; 0x14
    4fba:	d5 88       	ldd	r13, Z+21	; 0x15
    4fbc:	e6 88       	ldd	r14, Z+22	; 0x16
    4fbe:	f7 88       	ldd	r15, Z+23	; 0x17
    4fc0:	33 27       	eor	r19, r19
    4fc2:	f7 fc       	sbrc	r15, 7
    4fc4:	3a 95       	dec	r19
    4fc6:	2f 2d       	mov	r18, r15
    4fc8:	1e 2d       	mov	r17, r14
    4fca:	0d 2d       	mov	r16, r13
    4fcc:	c0 1a       	sub	r12, r16
    4fce:	d1 0a       	sbc	r13, r17
    4fd0:	e2 0a       	sbc	r14, r18
    4fd2:	f3 0a       	sbc	r15, r19
    4fd4:	c6 0e       	add	r12, r22
    4fd6:	d7 1e       	adc	r13, r23
    4fd8:	e8 1e       	adc	r14, r24
    4fda:	f9 1e       	adc	r15, r25
    4fdc:	c4 8a       	std	Z+20, r12	; 0x14
    4fde:	d5 8a       	std	Z+21, r13	; 0x15
    4fe0:	e6 8a       	std	Z+22, r14	; 0x16
    4fe2:	f7 8a       	std	Z+23, r15	; 0x17
	sSensorData.adc.h2a.scEnergy += scPower;
    4fe4:	6b 01       	movw	r12, r22
    4fe6:	7c 01       	movw	r14, r24
    4fe8:	ff 0c       	add	r15, r15
    4fea:	cc 08       	sbc	r12, r12
    4fec:	dc 2c       	mov	r13, r12
    4fee:	76 01       	movw	r14, r12
    4ff0:	26 2f       	mov	r18, r22
    4ff2:	37 2f       	mov	r19, r23
    4ff4:	48 2f       	mov	r20, r24
    4ff6:	59 2f       	mov	r21, r25
    4ff8:	6c 2d       	mov	r22, r12
    4ffa:	7c 2d       	mov	r23, r12
    4ffc:	8c 2d       	mov	r24, r12
    4ffe:	9c 2d       	mov	r25, r12
    5000:	a0 a0       	ldd	r10, Z+32	; 0x20
    5002:	b1 a0       	ldd	r11, Z+33	; 0x21
    5004:	c2 a0       	ldd	r12, Z+34	; 0x22
    5006:	d3 a0       	ldd	r13, Z+35	; 0x23
    5008:	e4 a0       	ldd	r14, Z+36	; 0x24
    500a:	f5 a0       	ldd	r15, Z+37	; 0x25
    500c:	06 a1       	ldd	r16, Z+38	; 0x26
    500e:	17 a1       	ldd	r17, Z+39	; 0x27
    5010:	0e 94 b1 38 	call	0x7162	; 0x7162 <__adddi3>
    5014:	20 a3       	std	Z+32, r18	; 0x20
    5016:	31 a3       	std	Z+33, r19	; 0x21
    5018:	42 a3       	std	Z+34, r20	; 0x22
    501a:	53 a3       	std	Z+35, r21	; 0x23
    501c:	64 a3       	std	Z+36, r22	; 0x24
    501e:	75 a3       	std	Z+37, r23	; 0x25
    5020:	86 a3       	std	Z+38, r24	; 0x26
    5022:	97 a3       	std	Z+39, r25	; 0x27
	
	if(sSensorData.adc.h2a.idealDiodeState != idealDiodePin) {
    5024:	81 a5       	ldd	r24, Z+41	; 0x29
    5026:	68 16       	cp	r6, r24
    5028:	69 f0       	breq	.+26     	; 0x5044 <__vector_71+0x520>
		sSensorData.adc.h2a.idealDiodeState = idealDiodePin;
    502a:	61 a6       	std	Z+41, r6	; 0x29
		sSensorData.adc.h2a.idealDiodeTimestamp = sSessionCycleCount;
    502c:	80 91 e3 28 	lds	r24, 0x28E3	; 0x8028e3 <sSessionCycleCount>
    5030:	90 91 e4 28 	lds	r25, 0x28E4	; 0x8028e4 <sSessionCycleCount+0x1>
    5034:	a0 91 e5 28 	lds	r26, 0x28E5	; 0x8028e5 <sSessionCycleCount+0x2>
    5038:	b0 91 e6 28 	lds	r27, 0x28E6	; 0x8028e6 <sSessionCycleCount+0x3>
    503c:	82 a7       	std	Z+42, r24	; 0x2a
    503e:	93 a7       	std	Z+43, r25	; 0x2b
    5040:	a4 a7       	std	Z+44, r26	; 0x2c
    5042:	b5 a7       	std	Z+45, r27	; 0x2d
	if(I_AM_EVA_L || I_AM_EVA_R)
		ISRReadADC_EVA();
	else
		ISRReadADC_H2A();
	
	while(!(ADCA.CH2.INTFLAGS & 0x01)) ;
    5044:	e0 e0       	ldi	r30, 0x00	; 0
    5046:	f2 e0       	ldi	r31, 0x02	; 2
    5048:	83 a9       	ldd	r24, Z+51	; 0x33
    504a:	80 ff       	sbrs	r24, 0
    504c:	fd cf       	rjmp	.-6      	; 0x5048 <__vector_71+0x524>
	ADCA.CH2.INTFLAGS = 0x01;
    504e:	e0 e0       	ldi	r30, 0x00	; 0
    5050:	f2 e0       	ldi	r31, 0x02	; 2
    5052:	81 e0       	ldi	r24, 0x01	; 1
    5054:	83 ab       	std	Z+51, r24	; 0x33
	spRawSample = ADCA.CH2RES;
    5056:	84 89       	ldd	r24, Z+20	; 0x14
    5058:	95 89       	ldd	r25, Z+21	; 0x15
	if(spRawSample < SPEEDSENSOR_MIDWAY_VAL) {
    505a:	87 3d       	cpi	r24, 0xD7	; 215
    505c:	92 40       	sbci	r25, 0x02	; 2
    505e:	94 f4       	brge	.+36     	; 0x5084 <__vector_71+0x560>
		sSpeedSensorPosDeglitchCounter = 0;
    5060:	10 92 5f 28 	sts	0x285F, r1	; 0x80285f <sSpeedSensorPosDeglitchCounter.4885>
		if(sSpeedSensorPreviousState && ++sSpeedSensorNegDeglitchCounter >= SPEEDSENSOR_DEGLITCH)
    5064:	80 91 5e 28 	lds	r24, 0x285E	; 0x80285e <sSpeedSensorPreviousState.4884>
    5068:	88 23       	and	r24, r24
    506a:	09 f4       	brne	.+2      	; 0x506e <__vector_71+0x54a>
    506c:	67 c0       	rjmp	.+206    	; 0x513c <__vector_71+0x618>
    506e:	80 91 5d 28 	lds	r24, 0x285D	; 0x80285d <sSpeedSensorNegDeglitchCounter.4886>
    5072:	8f 5f       	subi	r24, 0xFF	; 255
    5074:	80 93 5d 28 	sts	0x285D, r24	; 0x80285d <sSpeedSensorNegDeglitchCounter.4886>
    5078:	85 30       	cpi	r24, 0x05	; 5
    507a:	08 f4       	brcc	.+2      	; 0x507e <__vector_71+0x55a>
    507c:	5f c0       	rjmp	.+190    	; 0x513c <__vector_71+0x618>
			sSpeedSensorPreviousState = 0;
    507e:	10 92 5e 28 	sts	0x285E, r1	; 0x80285e <sSpeedSensorPreviousState.4884>
    5082:	5c c0       	rjmp	.+184    	; 0x513c <__vector_71+0x618>
	}
	else {
		sSpeedSensorNegDeglitchCounter = 0;
    5084:	10 92 5d 28 	sts	0x285D, r1	; 0x80285d <sSpeedSensorNegDeglitchCounter.4886>
		if(!sSpeedSensorPreviousState && ++sSpeedSensorPosDeglitchCounter >= SPEEDSENSOR_DEGLITCH) {
    5088:	80 91 5e 28 	lds	r24, 0x285E	; 0x80285e <sSpeedSensorPreviousState.4884>
    508c:	81 11       	cpse	r24, r1
    508e:	56 c0       	rjmp	.+172    	; 0x513c <__vector_71+0x618>
    5090:	80 91 5f 28 	lds	r24, 0x285F	; 0x80285f <sSpeedSensorPosDeglitchCounter.4885>
    5094:	8f 5f       	subi	r24, 0xFF	; 255
    5096:	80 93 5f 28 	sts	0x285F, r24	; 0x80285f <sSpeedSensorPosDeglitchCounter.4885>
    509a:	85 30       	cpi	r24, 0x05	; 5
    509c:	08 f4       	brcc	.+2      	; 0x50a0 <__vector_71+0x57c>
    509e:	4e c0       	rjmp	.+156    	; 0x513c <__vector_71+0x618>
			sSpeedSensorPreviousState = 1;
    50a0:	81 e0       	ldi	r24, 0x01	; 1
    50a2:	80 93 5e 28 	sts	0x285E, r24	; 0x80285e <sSpeedSensorPreviousState.4884>
			sSensorData.speedSensorPositivePulsesSeen++;
    50a6:	ee eb       	ldi	r30, 0xBE	; 190
    50a8:	f8 e2       	ldi	r31, 0x28	; 40
    50aa:	80 81       	ld	r24, Z
    50ac:	91 81       	ldd	r25, Z+1	; 0x01
    50ae:	a2 81       	ldd	r26, Z+2	; 0x02
    50b0:	b3 81       	ldd	r27, Z+3	; 0x03
    50b2:	01 96       	adiw	r24, 0x01	; 1
    50b4:	a1 1d       	adc	r26, r1
    50b6:	b1 1d       	adc	r27, r1
    50b8:	80 83       	st	Z, r24
    50ba:	91 83       	std	Z+1, r25	; 0x01
    50bc:	a2 83       	std	Z+2, r26	; 0x02
    50be:	b3 83       	std	Z+3, r27	; 0x03
			if(sSessionCycleCount - sSpeedSensorPreviousValidEdgeTimestamp < SPEEDSENSOR_MAX_INTERVAL)
    50c0:	80 91 e3 28 	lds	r24, 0x28E3	; 0x8028e3 <sSessionCycleCount>
    50c4:	90 91 e4 28 	lds	r25, 0x28E4	; 0x8028e4 <sSessionCycleCount+0x1>
    50c8:	a0 91 e5 28 	lds	r26, 0x28E5	; 0x8028e5 <sSessionCycleCount+0x2>
    50cc:	b0 91 e6 28 	lds	r27, 0x28E6	; 0x8028e6 <sSessionCycleCount+0x3>
    50d0:	40 91 59 28 	lds	r20, 0x2859	; 0x802859 <sSpeedSensorPreviousValidEdgeTimestamp.4883>
    50d4:	50 91 5a 28 	lds	r21, 0x285A	; 0x80285a <sSpeedSensorPreviousValidEdgeTimestamp.4883+0x1>
    50d8:	60 91 5b 28 	lds	r22, 0x285B	; 0x80285b <sSpeedSensorPreviousValidEdgeTimestamp.4883+0x2>
    50dc:	70 91 5c 28 	lds	r23, 0x285C	; 0x80285c <sSpeedSensorPreviousValidEdgeTimestamp.4883+0x3>
    50e0:	84 1b       	sub	r24, r20
    50e2:	95 0b       	sbc	r25, r21
    50e4:	a6 0b       	sbc	r26, r22
    50e6:	b7 0b       	sbc	r27, r23
    50e8:	82 38       	cpi	r24, 0x82	; 130
    50ea:	96 40       	sbci	r25, 0x06	; 6
    50ec:	a1 05       	cpc	r26, r1
    50ee:	b1 05       	cpc	r27, r1
    50f0:	78 f4       	brcc	.+30     	; 0x5110 <__vector_71+0x5ec>
				sSpeedSensorLastValidInterval = sSessionCycleCount - sSpeedSensorPreviousValidEdgeTimestamp;
    50f2:	80 91 e3 28 	lds	r24, 0x28E3	; 0x8028e3 <sSessionCycleCount>
    50f6:	90 91 e4 28 	lds	r25, 0x28E4	; 0x8028e4 <sSessionCycleCount+0x1>
    50fa:	a0 91 e5 28 	lds	r26, 0x28E5	; 0x8028e5 <sSessionCycleCount+0x2>
    50fe:	b0 91 e6 28 	lds	r27, 0x28E6	; 0x8028e6 <sSessionCycleCount+0x3>
    5102:	84 1b       	sub	r24, r20
    5104:	95 0b       	sbc	r25, r21
    5106:	80 93 06 20 	sts	0x2006, r24	; 0x802006 <sSpeedSensorLastValidInterval.4882>
    510a:	90 93 07 20 	sts	0x2007, r25	; 0x802007 <sSpeedSensorLastValidInterval.4882+0x1>
    510e:	06 c0       	rjmp	.+12     	; 0x511c <__vector_71+0x5f8>
			else
				sSpeedSensorLastValidInterval = SPEEDSENSOR_MAX_INTERVAL;
    5110:	82 e8       	ldi	r24, 0x82	; 130
    5112:	96 e0       	ldi	r25, 0x06	; 6
    5114:	80 93 06 20 	sts	0x2006, r24	; 0x802006 <sSpeedSensorLastValidInterval.4882>
    5118:	90 93 07 20 	sts	0x2007, r25	; 0x802007 <sSpeedSensorLastValidInterval.4882+0x1>
			sSpeedSensorPreviousValidEdgeTimestamp = sSessionCycleCount;
    511c:	80 91 e3 28 	lds	r24, 0x28E3	; 0x8028e3 <sSessionCycleCount>
    5120:	90 91 e4 28 	lds	r25, 0x28E4	; 0x8028e4 <sSessionCycleCount+0x1>
    5124:	a0 91 e5 28 	lds	r26, 0x28E5	; 0x8028e5 <sSessionCycleCount+0x2>
    5128:	b0 91 e6 28 	lds	r27, 0x28E6	; 0x8028e6 <sSessionCycleCount+0x3>
    512c:	80 93 59 28 	sts	0x2859, r24	; 0x802859 <sSpeedSensorPreviousValidEdgeTimestamp.4883>
    5130:	90 93 5a 28 	sts	0x285A, r25	; 0x80285a <sSpeedSensorPreviousValidEdgeTimestamp.4883+0x1>
    5134:	a0 93 5b 28 	sts	0x285B, r26	; 0x80285b <sSpeedSensorPreviousValidEdgeTimestamp.4883+0x2>
    5138:	b0 93 5c 28 	sts	0x285C, r27	; 0x80285c <sSpeedSensorPreviousValidEdgeTimestamp.4883+0x3>
		}
	}
	
	if(sSessionCycleCount - sSpeedSensorPreviousValidEdgeTimestamp > (uint32_t) SPEEDSENSOR_MAX_INTERVAL)
    513c:	80 91 e3 28 	lds	r24, 0x28E3	; 0x8028e3 <sSessionCycleCount>
    5140:	90 91 e4 28 	lds	r25, 0x28E4	; 0x8028e4 <sSessionCycleCount+0x1>
    5144:	a0 91 e5 28 	lds	r26, 0x28E5	; 0x8028e5 <sSessionCycleCount+0x2>
    5148:	b0 91 e6 28 	lds	r27, 0x28E6	; 0x8028e6 <sSessionCycleCount+0x3>
    514c:	40 91 59 28 	lds	r20, 0x2859	; 0x802859 <sSpeedSensorPreviousValidEdgeTimestamp.4883>
    5150:	50 91 5a 28 	lds	r21, 0x285A	; 0x80285a <sSpeedSensorPreviousValidEdgeTimestamp.4883+0x1>
    5154:	60 91 5b 28 	lds	r22, 0x285B	; 0x80285b <sSpeedSensorPreviousValidEdgeTimestamp.4883+0x2>
    5158:	70 91 5c 28 	lds	r23, 0x285C	; 0x80285c <sSpeedSensorPreviousValidEdgeTimestamp.4883+0x3>
    515c:	84 1b       	sub	r24, r20
    515e:	95 0b       	sbc	r25, r21
    5160:	a6 0b       	sbc	r26, r22
    5162:	b7 0b       	sbc	r27, r23
    5164:	83 38       	cpi	r24, 0x83	; 131
    5166:	96 40       	sbci	r25, 0x06	; 6
    5168:	a1 05       	cpc	r26, r1
    516a:	b1 05       	cpc	r27, r1
    516c:	38 f0       	brcs	.+14     	; 0x517c <__vector_71+0x658>
		sSpeedSensorLastValidInterval = SPEEDSENSOR_MAX_INTERVAL;
    516e:	82 e8       	ldi	r24, 0x82	; 130
    5170:	96 e0       	ldi	r25, 0x06	; 6
    5172:	80 93 06 20 	sts	0x2006, r24	; 0x802006 <sSpeedSensorLastValidInterval.4882>
    5176:	90 93 07 20 	sts	0x2007, r25	; 0x802007 <sSpeedSensorLastValidInterval.4882+0x1>
    517a:	27 c0       	rjmp	.+78     	; 0x51ca <__vector_71+0x6a6>
	else if(sSessionCycleCount - sSpeedSensorPreviousValidEdgeTimestamp > (uint32_t) sSpeedSensorLastValidInterval)
    517c:	c0 90 e3 28 	lds	r12, 0x28E3	; 0x8028e3 <sSessionCycleCount>
    5180:	d0 90 e4 28 	lds	r13, 0x28E4	; 0x8028e4 <sSessionCycleCount+0x1>
    5184:	e0 90 e5 28 	lds	r14, 0x28E5	; 0x8028e5 <sSessionCycleCount+0x2>
    5188:	f0 90 e6 28 	lds	r15, 0x28E6	; 0x8028e6 <sSessionCycleCount+0x3>
    518c:	c4 1a       	sub	r12, r20
    518e:	d5 0a       	sbc	r13, r21
    5190:	e6 0a       	sbc	r14, r22
    5192:	f7 0a       	sbc	r15, r23
    5194:	80 91 06 20 	lds	r24, 0x2006	; 0x802006 <sSpeedSensorLastValidInterval.4882>
    5198:	90 91 07 20 	lds	r25, 0x2007	; 0x802007 <sSpeedSensorLastValidInterval.4882+0x1>
    519c:	09 2e       	mov	r0, r25
    519e:	00 0c       	add	r0, r0
    51a0:	aa 0b       	sbc	r26, r26
    51a2:	bb 0b       	sbc	r27, r27
    51a4:	8c 15       	cp	r24, r12
    51a6:	9d 05       	cpc	r25, r13
    51a8:	ae 05       	cpc	r26, r14
    51aa:	bf 05       	cpc	r27, r15
    51ac:	70 f4       	brcc	.+28     	; 0x51ca <__vector_71+0x6a6>
		sSpeedSensorLastValidInterval = sSessionCycleCount - sSpeedSensorPreviousValidEdgeTimestamp;
    51ae:	80 91 e3 28 	lds	r24, 0x28E3	; 0x8028e3 <sSessionCycleCount>
    51b2:	90 91 e4 28 	lds	r25, 0x28E4	; 0x8028e4 <sSessionCycleCount+0x1>
    51b6:	a0 91 e5 28 	lds	r26, 0x28E5	; 0x8028e5 <sSessionCycleCount+0x2>
    51ba:	b0 91 e6 28 	lds	r27, 0x28E6	; 0x8028e6 <sSessionCycleCount+0x3>
    51be:	84 1b       	sub	r24, r20
    51c0:	95 0b       	sbc	r25, r21
    51c2:	80 93 06 20 	sts	0x2006, r24	; 0x802006 <sSpeedSensorLastValidInterval.4882>
    51c6:	90 93 07 20 	sts	0x2007, r25	; 0x802007 <sSpeedSensorLastValidInterval.4882+0x1>
		
	FILTER32(sSpeedSensorLastValidInterval, sSensorData.speedSensorPulseInterval);
    51ca:	ea eb       	ldi	r30, 0xBA	; 186
    51cc:	f8 e2       	ldi	r31, 0x28	; 40
    51ce:	80 81       	ld	r24, Z
    51d0:	91 81       	ldd	r25, Z+1	; 0x01
    51d2:	a2 81       	ldd	r26, Z+2	; 0x02
    51d4:	b3 81       	ldd	r27, Z+3	; 0x03
    51d6:	49 2f       	mov	r20, r25
    51d8:	5a 2f       	mov	r21, r26
    51da:	6b 2f       	mov	r22, r27
    51dc:	77 27       	eor	r23, r23
    51de:	67 fd       	sbrc	r22, 7
    51e0:	7a 95       	dec	r23
    51e2:	8c 01       	movw	r16, r24
    51e4:	9d 01       	movw	r18, r26
    51e6:	04 1b       	sub	r16, r20
    51e8:	15 0b       	sbc	r17, r21
    51ea:	26 0b       	sbc	r18, r22
    51ec:	37 0b       	sbc	r19, r23
    51ee:	80 91 06 20 	lds	r24, 0x2006	; 0x802006 <sSpeedSensorLastValidInterval.4882>
    51f2:	90 91 07 20 	lds	r25, 0x2007	; 0x802007 <sSpeedSensorLastValidInterval.4882+0x1>
    51f6:	09 2e       	mov	r0, r25
    51f8:	00 0c       	add	r0, r0
    51fa:	aa 0b       	sbc	r26, r26
    51fc:	bb 0b       	sbc	r27, r27
    51fe:	ba 2f       	mov	r27, r26
    5200:	a9 2f       	mov	r26, r25
    5202:	98 2f       	mov	r25, r24
    5204:	88 27       	eor	r24, r24
    5206:	80 0f       	add	r24, r16
    5208:	91 1f       	adc	r25, r17
    520a:	a2 1f       	adc	r26, r18
    520c:	b3 1f       	adc	r27, r19
    520e:	80 83       	st	Z, r24
    5210:	91 83       	std	Z+1, r25	; 0x01
    5212:	a2 83       	std	Z+2, r26	; 0x02
    5214:	b3 83       	std	Z+3, r27	; 0x03

	while(!(ADCB.CH2.INTFLAGS & 0x01)) ;
    5216:	e0 e4       	ldi	r30, 0x40	; 64
    5218:	f2 e0       	ldi	r31, 0x02	; 2
    521a:	83 a9       	ldd	r24, Z+51	; 0x33
    521c:	80 ff       	sbrs	r24, 0
    521e:	fd cf       	rjmp	.-6      	; 0x521a <__vector_71+0x6f6>
	ADCB.CH2.INTFLAGS = 0x01;
    5220:	e0 e4       	ldi	r30, 0x40	; 64
    5222:	f2 e0       	ldi	r31, 0x02	; 2
    5224:	81 e0       	ldi	r24, 0x01	; 1
    5226:	83 ab       	std	Z+51, r24	; 0x33
	driverTempSample = ADCB.CH2RES;
    5228:	84 89       	ldd	r24, Z+20	; 0x14
    522a:	95 89       	ldd	r25, Z+21	; 0x15
	FILTER32(driverTempSample, sSensorData.driverTempFiltered);
    522c:	e0 e6       	ldi	r30, 0x60	; 96
    522e:	f8 e2       	ldi	r31, 0x28	; 40
    5230:	46 a5       	ldd	r20, Z+46	; 0x2e
    5232:	57 a5       	ldd	r21, Z+47	; 0x2f
    5234:	60 a9       	ldd	r22, Z+48	; 0x30
    5236:	71 a9       	ldd	r23, Z+49	; 0x31
    5238:	c5 2e       	mov	r12, r21
    523a:	d6 2e       	mov	r13, r22
    523c:	e7 2e       	mov	r14, r23
    523e:	ff 24       	eor	r15, r15
    5240:	e7 fc       	sbrc	r14, 7
    5242:	fa 94       	dec	r15
    5244:	4c 19       	sub	r20, r12
    5246:	5d 09       	sbc	r21, r13
    5248:	6e 09       	sbc	r22, r14
    524a:	7f 09       	sbc	r23, r15
    524c:	09 2e       	mov	r0, r25
    524e:	00 0c       	add	r0, r0
    5250:	aa 0b       	sbc	r26, r26
    5252:	bb 0b       	sbc	r27, r27
    5254:	ba 2f       	mov	r27, r26
    5256:	a9 2f       	mov	r26, r25
    5258:	98 2f       	mov	r25, r24
    525a:	88 27       	eor	r24, r24
    525c:	84 0f       	add	r24, r20
    525e:	95 1f       	adc	r25, r21
    5260:	a6 1f       	adc	r26, r22
    5262:	b7 1f       	adc	r27, r23
    5264:	86 a7       	std	Z+46, r24	; 0x2e
    5266:	97 a7       	std	Z+47, r25	; 0x2f
    5268:	a0 ab       	std	Z+48, r26	; 0x30
    526a:	b1 ab       	std	Z+49, r27	; 0x31
	
	while(!(ADCA.CH3.INTFLAGS & 0x01)) ;
    526c:	e0 e0       	ldi	r30, 0x00	; 0
    526e:	f2 e0       	ldi	r31, 0x02	; 2
    5270:	83 ad       	ldd	r24, Z+59	; 0x3b
    5272:	80 ff       	sbrs	r24, 0
    5274:	fd cf       	rjmp	.-6      	; 0x5270 <__vector_71+0x74c>
	ADCA.CH3.INTFLAGS = 0x01;
    5276:	81 e0       	ldi	r24, 0x01	; 1
    5278:	80 93 3b 02 	sts	0x023B, r24	; 0x80023b <__TEXT_REGION_LENGTH__+0x70023b>
	while(!(ADCB.CH3.INTFLAGS & 0x01)) ;
    527c:	e0 e4       	ldi	r30, 0x40	; 64
    527e:	f2 e0       	ldi	r31, 0x02	; 2
    5280:	83 ad       	ldd	r24, Z+59	; 0x3b
    5282:	80 ff       	sbrs	r24, 0
    5284:	fd cf       	rjmp	.-6      	; 0x5280 <__vector_71+0x75c>
	ADCB.CH3.INTFLAGS = 0x01;
    5286:	81 e0       	ldi	r24, 0x01	; 1
    5288:	80 93 7b 02 	sts	0x027B, r24	; 0x80027b <__TEXT_REGION_LENGTH__+0x70027b>
	if(sSamplingVin) {
    528c:	80 91 58 28 	lds	r24, 0x2858	; 0x802858 <sSamplingVin.4878>
    5290:	88 23       	and	r24, r24
    5292:	09 f4       	brne	.+2      	; 0x5296 <__vector_71+0x772>
    5294:	c1 c0       	rjmp	.+386    	; 0x5418 <__vector_71+0x8f4>
		inVoltageSample = ADCA.CH3RES - sCal.inVoltageOffset;
    5296:	61 2c       	mov	r6, r1
    5298:	68 94       	set
    529a:	77 24       	eor	r7, r7
    529c:	71 f8       	bld	r7, 1
    529e:	d3 01       	movw	r26, r6
    52a0:	56 96       	adiw	r26, 0x16	; 22
    52a2:	2d 91       	ld	r18, X+
    52a4:	3c 91       	ld	r19, X
    52a6:	57 97       	sbiw	r26, 0x17	; 23
    52a8:	a5 ee       	ldi	r26, 0xE5	; 229
    52aa:	b9 e2       	ldi	r27, 0x29	; 41
    52ac:	5c 96       	adiw	r26, 0x1c	; 28
    52ae:	8d 91       	ld	r24, X+
    52b0:	9c 91       	ld	r25, X
    52b2:	5d 97       	sbiw	r26, 0x1d	; 29
		FILTER32(inVoltageSample, sSensorData.inVoltageFiltered);
    52b4:	e0 e6       	ldi	r30, 0x60	; 96
    52b6:	f8 e2       	ldi	r31, 0x28	; 40
    52b8:	c2 ac       	ldd	r12, Z+58	; 0x3a
    52ba:	d3 ac       	ldd	r13, Z+59	; 0x3b
    52bc:	e4 ac       	ldd	r14, Z+60	; 0x3c
    52be:	f5 ac       	ldd	r15, Z+61	; 0x3d
    52c0:	28 1b       	sub	r18, r24
    52c2:	39 0b       	sbc	r19, r25
    52c4:	03 2e       	mov	r0, r19
    52c6:	00 0c       	add	r0, r0
    52c8:	44 0b       	sbc	r20, r20
    52ca:	55 0b       	sbc	r21, r21
    52cc:	8d 2c       	mov	r8, r13
    52ce:	9e 2c       	mov	r9, r14
    52d0:	af 2c       	mov	r10, r15
    52d2:	bb 24       	eor	r11, r11
    52d4:	a7 fc       	sbrc	r10, 7
    52d6:	ba 94       	dec	r11
    52d8:	c8 18       	sub	r12, r8
    52da:	d9 08       	sbc	r13, r9
    52dc:	ea 08       	sbc	r14, r10
    52de:	fb 08       	sbc	r15, r11
    52e0:	88 24       	eor	r8, r8
    52e2:	92 2e       	mov	r9, r18
    52e4:	a3 2e       	mov	r10, r19
    52e6:	b4 2e       	mov	r11, r20
    52e8:	c8 0c       	add	r12, r8
    52ea:	d9 1c       	adc	r13, r9
    52ec:	ea 1c       	adc	r14, r10
    52ee:	fb 1c       	adc	r15, r11
    52f0:	c2 ae       	std	Z+58, r12	; 0x3a
    52f2:	d3 ae       	std	Z+59, r13	; 0x3b
    52f4:	e4 ae       	std	Z+60, r14	; 0x3c
    52f6:	f5 ae       	std	Z+61, r15	; 0x3d
		inCurrentSample = ADCB.CH3RES - sCal.inCurrentOffset;
    52f8:	e0 e4       	ldi	r30, 0x40	; 64
    52fa:	f2 e0       	ldi	r31, 0x02	; 2
    52fc:	66 89       	ldd	r22, Z+22	; 0x16
    52fe:	77 89       	ldd	r23, Z+23	; 0x17
    5300:	5e 96       	adiw	r26, 0x1e	; 30
    5302:	8d 91       	ld	r24, X+
    5304:	9c 91       	ld	r25, X
    5306:	5f 97       	sbiw	r26, 0x1f	; 31
		FILTER32(inCurrentSample, sSensorData.inCurrentFiltered);
    5308:	ae e9       	ldi	r26, 0x9E	; 158
    530a:	b8 e2       	ldi	r27, 0x28	; 40
    530c:	cd 90       	ld	r12, X+
    530e:	dd 90       	ld	r13, X+
    5310:	ed 90       	ld	r14, X+
    5312:	fc 90       	ld	r15, X
    5314:	13 97       	sbiw	r26, 0x03	; 3
    5316:	68 1b       	sub	r22, r24
    5318:	79 0b       	sbc	r23, r25
    531a:	07 2e       	mov	r0, r23
    531c:	00 0c       	add	r0, r0
    531e:	88 0b       	sbc	r24, r24
    5320:	99 0b       	sbc	r25, r25
    5322:	8d 2c       	mov	r8, r13
    5324:	9e 2c       	mov	r9, r14
    5326:	af 2c       	mov	r10, r15
    5328:	bb 24       	eor	r11, r11
    532a:	a7 fc       	sbrc	r10, 7
    532c:	ba 94       	dec	r11
    532e:	c8 18       	sub	r12, r8
    5330:	d9 08       	sbc	r13, r9
    5332:	ea 08       	sbc	r14, r10
    5334:	fb 08       	sbc	r15, r11
    5336:	88 24       	eor	r8, r8
    5338:	96 2e       	mov	r9, r22
    533a:	a7 2e       	mov	r10, r23
    533c:	b8 2e       	mov	r11, r24
    533e:	c8 0c       	add	r12, r8
    5340:	d9 1c       	adc	r13, r9
    5342:	ea 1c       	adc	r14, r10
    5344:	fb 1c       	adc	r15, r11
    5346:	cd 92       	st	X+, r12
    5348:	dd 92       	st	X+, r13
    534a:	ed 92       	st	X+, r14
    534c:	fc 92       	st	X, r15
    534e:	13 97       	sbiw	r26, 0x03	; 3
		inPower = ((int32_t) inVoltageSample) * ((int32_t) inCurrentSample);
    5350:	0e 94 96 38 	call	0x712c	; 0x712c <__mulsi3>
		FILTER32PWR(inPower, sSensorData.inPowerFiltered);
    5354:	a6 ea       	ldi	r26, 0xA6	; 166
    5356:	b8 e2       	ldi	r27, 0x28	; 40
    5358:	cd 90       	ld	r12, X+
    535a:	dd 90       	ld	r13, X+
    535c:	ed 90       	ld	r14, X+
    535e:	fc 90       	ld	r15, X
    5360:	13 97       	sbiw	r26, 0x03	; 3
    5362:	33 27       	eor	r19, r19
    5364:	f7 fc       	sbrc	r15, 7
    5366:	3a 95       	dec	r19
    5368:	2f 2d       	mov	r18, r15
    536a:	1e 2d       	mov	r17, r14
    536c:	0d 2d       	mov	r16, r13
    536e:	c0 1a       	sub	r12, r16
    5370:	d1 0a       	sbc	r13, r17
    5372:	e2 0a       	sbc	r14, r18
    5374:	f3 0a       	sbc	r15, r19
    5376:	c6 0e       	add	r12, r22
    5378:	d7 1e       	adc	r13, r23
    537a:	e8 1e       	adc	r14, r24
    537c:	f9 1e       	adc	r15, r25
    537e:	cd 92       	st	X+, r12
    5380:	dd 92       	st	X+, r13
    5382:	ed 92       	st	X+, r14
    5384:	fc 92       	st	X, r15
    5386:	13 97       	sbiw	r26, 0x03	; 3
		sSensorData.inEnergy +=  2 * inPower;
    5388:	a2 eb       	ldi	r26, 0xB2	; 178
    538a:	b8 e2       	ldi	r27, 0x28	; 40
    538c:	66 0f       	add	r22, r22
    538e:	77 1f       	adc	r23, r23
    5390:	88 1f       	adc	r24, r24
    5392:	99 1f       	adc	r25, r25
    5394:	6b 01       	movw	r12, r22
    5396:	7c 01       	movw	r14, r24
    5398:	ff 0c       	add	r15, r15
    539a:	cc 08       	sbc	r12, r12
    539c:	dc 2c       	mov	r13, r12
    539e:	76 01       	movw	r14, r12
    53a0:	26 2f       	mov	r18, r22
    53a2:	37 2f       	mov	r19, r23
    53a4:	48 2f       	mov	r20, r24
    53a6:	59 2f       	mov	r21, r25
    53a8:	6c 2d       	mov	r22, r12
    53aa:	7c 2d       	mov	r23, r12
    53ac:	8c 2d       	mov	r24, r12
    53ae:	9c 2d       	mov	r25, r12
    53b0:	ac 90       	ld	r10, X
    53b2:	11 96       	adiw	r26, 0x01	; 1
    53b4:	bc 90       	ld	r11, X
    53b6:	11 97       	sbiw	r26, 0x01	; 1
    53b8:	12 96       	adiw	r26, 0x02	; 2
    53ba:	cc 90       	ld	r12, X
    53bc:	12 97       	sbiw	r26, 0x02	; 2
    53be:	13 96       	adiw	r26, 0x03	; 3
    53c0:	dc 90       	ld	r13, X
    53c2:	13 97       	sbiw	r26, 0x03	; 3
    53c4:	14 96       	adiw	r26, 0x04	; 4
    53c6:	ec 90       	ld	r14, X
    53c8:	14 97       	sbiw	r26, 0x04	; 4
    53ca:	15 96       	adiw	r26, 0x05	; 5
    53cc:	fc 90       	ld	r15, X
    53ce:	15 97       	sbiw	r26, 0x05	; 5
    53d0:	16 96       	adiw	r26, 0x06	; 6
    53d2:	0c 91       	ld	r16, X
    53d4:	16 97       	sbiw	r26, 0x06	; 6
    53d6:	17 96       	adiw	r26, 0x07	; 7
    53d8:	1c 91       	ld	r17, X
    53da:	17 97       	sbiw	r26, 0x07	; 7
    53dc:	0e 94 b1 38 	call	0x7162	; 0x7162 <__adddi3>
    53e0:	2c 93       	st	X, r18
    53e2:	11 96       	adiw	r26, 0x01	; 1
    53e4:	3c 93       	st	X, r19
    53e6:	11 97       	sbiw	r26, 0x01	; 1
    53e8:	12 96       	adiw	r26, 0x02	; 2
    53ea:	4c 93       	st	X, r20
    53ec:	12 97       	sbiw	r26, 0x02	; 2
    53ee:	13 96       	adiw	r26, 0x03	; 3
    53f0:	5c 93       	st	X, r21
    53f2:	13 97       	sbiw	r26, 0x03	; 3
    53f4:	14 96       	adiw	r26, 0x04	; 4
    53f6:	6c 93       	st	X, r22
    53f8:	14 97       	sbiw	r26, 0x04	; 4
    53fa:	15 96       	adiw	r26, 0x05	; 5
    53fc:	7c 93       	st	X, r23
    53fe:	15 97       	sbiw	r26, 0x05	; 5
    5400:	16 96       	adiw	r26, 0x06	; 6
    5402:	8c 93       	st	X, r24
    5404:	16 97       	sbiw	r26, 0x06	; 6
    5406:	17 96       	adiw	r26, 0x07	; 7
    5408:	9c 93       	st	X, r25
		ADCA.CH3.MUXCTRL = ADC_CH_MUXPOS_PIN12_gc | ADC_CH_MUXNEG_PIN1_gc; /* Next cycle, measure ADC_VMOTOR on PB4 vs V33/2 on PA1 */
    540a:	81 e6       	ldi	r24, 0x61	; 97
    540c:	d3 01       	movw	r26, r6
    540e:	d9 96       	adiw	r26, 0x39	; 57
    5410:	8c 93       	st	X, r24
		ADCB.CH3.MUXCTRL = ADC_CH_MUXPOS_PIN5_gc | ADC_CH_MUXNEG_PIN1_gc; /* Next cycle, measure ADC_IMOTOR on PB5 vs V33/2 on PB1 */
    5412:	89 e2       	ldi	r24, 0x29	; 41
    5414:	81 af       	std	Z+57, r24	; 0x39
    5416:	a0 c0       	rjmp	.+320    	; 0x5558 <__vector_71+0xa34>
	}
	else {
		motorVoltageSample = ADCA.CH3RES - sCal.motorVoltageOffset;
    5418:	61 2c       	mov	r6, r1
    541a:	68 94       	set
    541c:	77 24       	eor	r7, r7
    541e:	71 f8       	bld	r7, 1
    5420:	f3 01       	movw	r30, r6
    5422:	26 89       	ldd	r18, Z+22	; 0x16
    5424:	37 89       	ldd	r19, Z+23	; 0x17
    5426:	a5 ee       	ldi	r26, 0xE5	; 229
    5428:	b9 e2       	ldi	r27, 0x29	; 41
    542a:	58 96       	adiw	r26, 0x18	; 24
    542c:	8d 91       	ld	r24, X+
    542e:	9c 91       	ld	r25, X
    5430:	59 97       	sbiw	r26, 0x19	; 25
		FILTER32(motorVoltageSample, sSensorData.motorVoltageFiltered);	
    5432:	e0 e6       	ldi	r30, 0x60	; 96
    5434:	f8 e2       	ldi	r31, 0x28	; 40
    5436:	c2 a8       	ldd	r12, Z+50	; 0x32
    5438:	d3 a8       	ldd	r13, Z+51	; 0x33
    543a:	e4 a8       	ldd	r14, Z+52	; 0x34
    543c:	f5 a8       	ldd	r15, Z+53	; 0x35
    543e:	28 1b       	sub	r18, r24
    5440:	39 0b       	sbc	r19, r25
    5442:	03 2e       	mov	r0, r19
    5444:	00 0c       	add	r0, r0
    5446:	44 0b       	sbc	r20, r20
    5448:	55 0b       	sbc	r21, r21
    544a:	8d 2c       	mov	r8, r13
    544c:	9e 2c       	mov	r9, r14
    544e:	af 2c       	mov	r10, r15
    5450:	bb 24       	eor	r11, r11
    5452:	a7 fc       	sbrc	r10, 7
    5454:	ba 94       	dec	r11
    5456:	c8 18       	sub	r12, r8
    5458:	d9 08       	sbc	r13, r9
    545a:	ea 08       	sbc	r14, r10
    545c:	fb 08       	sbc	r15, r11
    545e:	88 24       	eor	r8, r8
    5460:	92 2e       	mov	r9, r18
    5462:	a3 2e       	mov	r10, r19
    5464:	b4 2e       	mov	r11, r20
    5466:	c8 0c       	add	r12, r8
    5468:	d9 1c       	adc	r13, r9
    546a:	ea 1c       	adc	r14, r10
    546c:	fb 1c       	adc	r15, r11
    546e:	c2 aa       	std	Z+50, r12	; 0x32
    5470:	d3 aa       	std	Z+51, r13	; 0x33
    5472:	e4 aa       	std	Z+52, r14	; 0x34
    5474:	f5 aa       	std	Z+53, r15	; 0x35
		motorCurrentSample = ADCB.CH3RES - sCal.motorCurrentOffset;
    5476:	60 91 56 02 	lds	r22, 0x0256	; 0x800256 <__TEXT_REGION_LENGTH__+0x700256>
    547a:	70 91 57 02 	lds	r23, 0x0257	; 0x800257 <__TEXT_REGION_LENGTH__+0x700257>
    547e:	5a 96       	adiw	r26, 0x1a	; 26
    5480:	8d 91       	ld	r24, X+
    5482:	9c 91       	ld	r25, X
    5484:	5b 97       	sbiw	r26, 0x1b	; 27
		FILTER32(motorCurrentSample, sSensorData.motorCurrentFiltered);
    5486:	c6 a8       	ldd	r12, Z+54	; 0x36
    5488:	d7 a8       	ldd	r13, Z+55	; 0x37
    548a:	e0 ac       	ldd	r14, Z+56	; 0x38
    548c:	f1 ac       	ldd	r15, Z+57	; 0x39
    548e:	68 1b       	sub	r22, r24
    5490:	79 0b       	sbc	r23, r25
    5492:	07 2e       	mov	r0, r23
    5494:	00 0c       	add	r0, r0
    5496:	88 0b       	sbc	r24, r24
    5498:	99 0b       	sbc	r25, r25
    549a:	8d 2c       	mov	r8, r13
    549c:	9e 2c       	mov	r9, r14
    549e:	af 2c       	mov	r10, r15
    54a0:	bb 24       	eor	r11, r11
    54a2:	a7 fc       	sbrc	r10, 7
    54a4:	ba 94       	dec	r11
    54a6:	c8 18       	sub	r12, r8
    54a8:	d9 08       	sbc	r13, r9
    54aa:	ea 08       	sbc	r14, r10
    54ac:	fb 08       	sbc	r15, r11
    54ae:	88 24       	eor	r8, r8
    54b0:	96 2e       	mov	r9, r22
    54b2:	a7 2e       	mov	r10, r23
    54b4:	b8 2e       	mov	r11, r24
    54b6:	c8 0c       	add	r12, r8
    54b8:	d9 1c       	adc	r13, r9
    54ba:	ea 1c       	adc	r14, r10
    54bc:	fb 1c       	adc	r15, r11
    54be:	c6 aa       	std	Z+54, r12	; 0x36
    54c0:	d7 aa       	std	Z+55, r13	; 0x37
    54c2:	e0 ae       	std	Z+56, r14	; 0x38
    54c4:	f1 ae       	std	Z+57, r15	; 0x39
		motorPower = ((int32_t) motorVoltageSample) * ((int32_t) motorCurrentSample);
    54c6:	0e 94 96 38 	call	0x712c	; 0x712c <__mulsi3>
		FILTER32PWR(motorPower, sSensorData.motorPowerFiltered);
    54ca:	e2 ea       	ldi	r30, 0xA2	; 162
    54cc:	f8 e2       	ldi	r31, 0x28	; 40
    54ce:	c0 80       	ld	r12, Z
    54d0:	d1 80       	ldd	r13, Z+1	; 0x01
    54d2:	e2 80       	ldd	r14, Z+2	; 0x02
    54d4:	f3 80       	ldd	r15, Z+3	; 0x03
    54d6:	33 27       	eor	r19, r19
    54d8:	f7 fc       	sbrc	r15, 7
    54da:	3a 95       	dec	r19
    54dc:	2f 2d       	mov	r18, r15
    54de:	1e 2d       	mov	r17, r14
    54e0:	0d 2d       	mov	r16, r13
    54e2:	c0 1a       	sub	r12, r16
    54e4:	d1 0a       	sbc	r13, r17
    54e6:	e2 0a       	sbc	r14, r18
    54e8:	f3 0a       	sbc	r15, r19
    54ea:	c6 0e       	add	r12, r22
    54ec:	d7 1e       	adc	r13, r23
    54ee:	e8 1e       	adc	r14, r24
    54f0:	f9 1e       	adc	r15, r25
    54f2:	c0 82       	st	Z, r12
    54f4:	d1 82       	std	Z+1, r13	; 0x01
    54f6:	e2 82       	std	Z+2, r14	; 0x02
    54f8:	f3 82       	std	Z+3, r15	; 0x03
		sSensorData.motorEnergy += 2 * motorPower;
    54fa:	ea ea       	ldi	r30, 0xAA	; 170
    54fc:	f8 e2       	ldi	r31, 0x28	; 40
    54fe:	dc 01       	movw	r26, r24
    5500:	cb 01       	movw	r24, r22
    5502:	88 0f       	add	r24, r24
    5504:	99 1f       	adc	r25, r25
    5506:	aa 1f       	adc	r26, r26
    5508:	bb 1f       	adc	r27, r27
    550a:	6c 01       	movw	r12, r24
    550c:	7d 01       	movw	r14, r26
    550e:	ff 0c       	add	r15, r15
    5510:	cc 08       	sbc	r12, r12
    5512:	dc 2c       	mov	r13, r12
    5514:	76 01       	movw	r14, r12
    5516:	28 2f       	mov	r18, r24
    5518:	39 2f       	mov	r19, r25
    551a:	4a 2f       	mov	r20, r26
    551c:	5b 2f       	mov	r21, r27
    551e:	6c 2d       	mov	r22, r12
    5520:	7c 2d       	mov	r23, r12
    5522:	8c 2d       	mov	r24, r12
    5524:	9c 2d       	mov	r25, r12
    5526:	a0 80       	ld	r10, Z
    5528:	b1 80       	ldd	r11, Z+1	; 0x01
    552a:	c2 80       	ldd	r12, Z+2	; 0x02
    552c:	d3 80       	ldd	r13, Z+3	; 0x03
    552e:	e4 80       	ldd	r14, Z+4	; 0x04
    5530:	f5 80       	ldd	r15, Z+5	; 0x05
    5532:	06 81       	ldd	r16, Z+6	; 0x06
    5534:	17 81       	ldd	r17, Z+7	; 0x07
    5536:	0e 94 b1 38 	call	0x7162	; 0x7162 <__adddi3>
    553a:	20 83       	st	Z, r18
    553c:	31 83       	std	Z+1, r19	; 0x01
    553e:	42 83       	std	Z+2, r20	; 0x02
    5540:	53 83       	std	Z+3, r21	; 0x03
    5542:	64 83       	std	Z+4, r22	; 0x04
    5544:	75 83       	std	Z+5, r23	; 0x05
    5546:	86 83       	std	Z+6, r24	; 0x06
    5548:	97 83       	std	Z+7, r25	; 0x07
		ADCA.CH3.MUXCTRL = ADC_CH_MUXPOS_PIN11_gc | ADC_CH_MUXNEG_PIN1_gc; /* Next cycle, measure ADC_Vin on PB3 vs V33/2 on PA1 */
    554a:	89 e5       	ldi	r24, 0x59	; 89
    554c:	d3 01       	movw	r26, r6
    554e:	d9 96       	adiw	r26, 0x39	; 57
    5550:	8c 93       	st	X, r24
		ADCB.CH3.MUXCTRL = ADC_CH_MUXPOS_PIN7_gc | ADC_CH_MUXNEG_PIN1_gc; /* Next cycle, measure Iin on PB7 vs V33/2 on PB1 */
    5552:	89 e3       	ldi	r24, 0x39	; 57
    5554:	80 93 79 02 	sts	0x0279, r24	; 0x800279 <__TEXT_REGION_LENGTH__+0x700279>
	}
	sSamplingVin = !sSamplingVin;
    5558:	81 e0       	ldi	r24, 0x01	; 1
    555a:	90 91 58 28 	lds	r25, 0x2858	; 0x802858 <sSamplingVin.4878>
    555e:	91 11       	cpse	r25, r1
    5560:	80 e0       	ldi	r24, 0x00	; 0
    5562:	80 93 58 28 	sts	0x2858, r24	; 0x802858 <sSamplingVin.4878>

	/* PWM frequency and duty cycle */
	if(pwmEn) {
    5566:	31 10       	cpse	r3, r1
    5568:	2e c0       	rjmp	.+92     	; 0x55c6 <__vector_71+0xaa2>
		sSensorData.pwmDutyCycle -= sSensorData.pwmDutyCycle >> 8;
    556a:	80 91 d3 28 	lds	r24, 0x28D3	; 0x8028d3 <sSensorData+0x73>
    556e:	90 91 d4 28 	lds	r25, 0x28D4	; 0x8028d4 <sSensorData+0x74>
    5572:	29 2f       	mov	r18, r25
    5574:	33 27       	eor	r19, r19
    5576:	82 1b       	sub	r24, r18
    5578:	93 0b       	sbc	r25, r19
		if(pwm)
    557a:	26 fc       	sbrc	r2, 6
    557c:	05 c0       	rjmp	.+10     	; 0x5588 <__vector_71+0xa64>
	}
	sSamplingVin = !sSamplingVin;

	/* PWM frequency and duty cycle */
	if(pwmEn) {
		sSensorData.pwmDutyCycle -= sSensorData.pwmDutyCycle >> 8;
    557e:	80 93 d3 28 	sts	0x28D3, r24	; 0x8028d3 <sSensorData+0x73>
    5582:	90 93 d4 28 	sts	0x28D4, r25	; 0x8028d4 <sSensorData+0x74>
    5586:	06 c0       	rjmp	.+12     	; 0x5594 <__vector_71+0xa70>
		if(pwm)
			sSensorData.pwmDutyCycle += PWM_DC_FS;
    5588:	81 50       	subi	r24, 0x01	; 1
    558a:	9f 4f       	sbci	r25, 0xFF	; 255
    558c:	80 93 d3 28 	sts	0x28D3, r24	; 0x8028d3 <sSensorData+0x73>
    5590:	90 93 d4 28 	sts	0x28D4, r25	; 0x8028d4 <sSensorData+0x74>
		sSensorData.pwmFrequency -= sSensorData.pwmFrequency >> 8;
    5594:	e1 ed       	ldi	r30, 0xD1	; 209
    5596:	f8 e2       	ldi	r31, 0x28	; 40
    5598:	20 81       	ld	r18, Z
    559a:	31 81       	ldd	r19, Z+1	; 0x01
		sSensorData.pwmFrequency += (curPWMCycles - sPrevPWMCycles) << PWM_FREQ_FILTER_SHIFT;
    559c:	84 2d       	mov	r24, r4
    559e:	90 e0       	ldi	r25, 0x00	; 0
    55a0:	40 91 57 28 	lds	r20, 0x2857	; 0x802857 <sPrevPWMCycles.4879>
    55a4:	84 1b       	sub	r24, r20
    55a6:	91 09       	sbc	r25, r1
    55a8:	88 0f       	add	r24, r24
    55aa:	99 1f       	adc	r25, r25
    55ac:	88 0f       	add	r24, r24
    55ae:	99 1f       	adc	r25, r25
    55b0:	88 0f       	add	r24, r24
    55b2:	99 1f       	adc	r25, r25
    55b4:	43 2f       	mov	r20, r19
    55b6:	55 27       	eor	r21, r21
    55b8:	24 1b       	sub	r18, r20
    55ba:	35 0b       	sbc	r19, r21
    55bc:	82 0f       	add	r24, r18
    55be:	93 1f       	adc	r25, r19
    55c0:	80 83       	st	Z, r24
    55c2:	91 83       	std	Z+1, r25	; 0x01
    55c4:	08 c0       	rjmp	.+16     	; 0x55d6 <__vector_71+0xab2>
	}
	else {
		sSensorData.pwmDutyCycle = 0;
    55c6:	10 92 d3 28 	sts	0x28D3, r1	; 0x8028d3 <sSensorData+0x73>
    55ca:	10 92 d4 28 	sts	0x28D4, r1	; 0x8028d4 <sSensorData+0x74>
		sSensorData.pwmFrequency = 0;
    55ce:	10 92 d1 28 	sts	0x28D1, r1	; 0x8028d1 <sSensorData+0x71>
    55d2:	10 92 d2 28 	sts	0x28D2, r1	; 0x8028d2 <sSensorData+0x72>
	}
	sPrevPWMCycles = curPWMCycles;
    55d6:	40 92 57 28 	sts	0x2857, r4	; 0x802857 <sPrevPWMCycles.4879>
	
	/* Pin states */
	if(sSensorData.selFPState != selFPPin) {
    55da:	80 91 c2 28 	lds	r24, 0x28C2	; 0x8028c2 <sSensorData+0x62>
    55de:	58 16       	cp	r5, r24
    55e0:	91 f0       	breq	.+36     	; 0x5606 <__vector_71+0xae2>
		sSensorData.selFPState = selFPPin;
    55e2:	50 92 c2 28 	sts	0x28C2, r5	; 0x8028c2 <sSensorData+0x62>
		sSensorData.selFPTimestamp = sSessionCycleCount;
    55e6:	80 91 e3 28 	lds	r24, 0x28E3	; 0x8028e3 <sSessionCycleCount>
    55ea:	90 91 e4 28 	lds	r25, 0x28E4	; 0x8028e4 <sSessionCycleCount+0x1>
    55ee:	a0 91 e5 28 	lds	r26, 0x28E5	; 0x8028e5 <sSessionCycleCount+0x2>
    55f2:	b0 91 e6 28 	lds	r27, 0x28E6	; 0x8028e6 <sSessionCycleCount+0x3>
    55f6:	80 93 c5 28 	sts	0x28C5, r24	; 0x8028c5 <sSensorData+0x65>
    55fa:	90 93 c6 28 	sts	0x28C6, r25	; 0x8028c6 <sSensorData+0x66>
    55fe:	a0 93 c7 28 	sts	0x28C7, r26	; 0x8028c7 <sSensorData+0x67>
    5602:	b0 93 c8 28 	sts	0x28C8, r27	; 0x8028c8 <sSensorData+0x68>
	}
	
	if(sSensorData.selCCState != selCCPin) {
    5606:	80 91 c3 28 	lds	r24, 0x28C3	; 0x8028c3 <sSensorData+0x63>
    560a:	d8 17       	cp	r29, r24
    560c:	09 f4       	brne	.+2      	; 0x5610 <__vector_71+0xaec>
    560e:	67 c0       	rjmp	.+206    	; 0x56de <__vector_71+0xbba>
		sSensorData.selCCState = selCCPin;
    5610:	d0 93 c3 28 	sts	0x28C3, r29	; 0x8028c3 <sSensorData+0x63>
		sSensorData.selCCTimestamp = sSessionCycleCount;
    5614:	80 91 e3 28 	lds	r24, 0x28E3	; 0x8028e3 <sSessionCycleCount>
    5618:	90 91 e4 28 	lds	r25, 0x28E4	; 0x8028e4 <sSessionCycleCount+0x1>
    561c:	a0 91 e5 28 	lds	r26, 0x28E5	; 0x8028e5 <sSessionCycleCount+0x2>
    5620:	b0 91 e6 28 	lds	r27, 0x28E6	; 0x8028e6 <sSessionCycleCount+0x3>
    5624:	80 93 c9 28 	sts	0x28C9, r24	; 0x8028c9 <sSensorData+0x69>
    5628:	90 93 ca 28 	sts	0x28CA, r25	; 0x8028ca <sSensorData+0x6a>
    562c:	a0 93 cb 28 	sts	0x28CB, r26	; 0x8028cb <sSensorData+0x6b>
    5630:	b0 93 cc 28 	sts	0x28CC, r27	; 0x8028cc <sSensorData+0x6c>
		/* Did CC just get enabled? */
		if(!selCCPin && sSensorData.speedSensorPulseInterval < (((int32_t) CC_MAX_INTERVAL) << 16)) {
    5634:	d1 11       	cpse	r29, r1
    5636:	4c c0       	rjmp	.+152    	; 0x56d0 <__vector_71+0xbac>
    5638:	80 91 ba 28 	lds	r24, 0x28BA	; 0x8028ba <sSensorData+0x5a>
    563c:	90 91 bb 28 	lds	r25, 0x28BB	; 0x8028bb <sSensorData+0x5b>
    5640:	a0 91 bc 28 	lds	r26, 0x28BC	; 0x8028bc <sSensorData+0x5c>
    5644:	b0 91 bd 28 	lds	r27, 0x28BD	; 0x8028bd <sSensorData+0x5d>
    5648:	00 97       	sbiw	r24, 0x00	; 0
    564a:	e0 ed       	ldi	r30, 0xD0	; 208
    564c:	ae 07       	cpc	r26, r30
    564e:	b1 05       	cpc	r27, r1
    5650:	0c f0       	brlt	.+2      	; 0x5654 <__vector_71+0xb30>
    5652:	3e c0       	rjmp	.+124    	; 0x56d0 <__vector_71+0xbac>
			sCCIsOn = 1;
    5654:	21 e0       	ldi	r18, 0x01	; 1
    5656:	20 93 56 28 	sts	0x2856, r18	; 0x802856 <sCCIsOn.4880>
			sSensorData.ccPower = CC_DEFAULT_POWER;
    565a:	22 e0       	ldi	r18, 0x02	; 2
    565c:	20 93 d9 28 	sts	0x28D9, r18	; 0x8028d9 <sSensorData+0x79>
			sCCPrevPulseInterval = sSensorData.ccTargetSpeed = sSensorData.speedSensorPulseInterval;
    5660:	80 93 d5 28 	sts	0x28D5, r24	; 0x8028d5 <sSensorData+0x75>
    5664:	90 93 d6 28 	sts	0x28D6, r25	; 0x8028d6 <sSensorData+0x76>
    5668:	a0 93 d7 28 	sts	0x28D7, r26	; 0x8028d7 <sSensorData+0x77>
    566c:	b0 93 d8 28 	sts	0x28D8, r27	; 0x8028d8 <sSensorData+0x78>
    5670:	80 93 52 28 	sts	0x2852, r24	; 0x802852 <sCCPrevPulseInterval.4887>
    5674:	90 93 53 28 	sts	0x2853, r25	; 0x802853 <sCCPrevPulseInterval.4887+0x1>
    5678:	a0 93 54 28 	sts	0x2854, r26	; 0x802854 <sCCPrevPulseInterval.4887+0x2>
    567c:	b0 93 55 28 	sts	0x2855, r27	; 0x802855 <sCCPrevPulseInterval.4887+0x3>
			sCCRunTimer = CC_REG_CYCLES;
    5680:	88 e8       	ldi	r24, 0x88	; 136
    5682:	93 e1       	ldi	r25, 0x13	; 19
    5684:	80 93 50 28 	sts	0x2850, r24	; 0x802850 <sCCRunTimer.4881>
    5688:	90 93 51 28 	sts	0x2851, r25	; 0x802851 <sCCRunTimer.4881+0x1>
			SET_CC_DRIVE(sSensorData.ccPower);
    568c:	80 91 68 06 	lds	r24, 0x0668	; 0x800668 <__TEXT_REGION_LENGTH__+0x700668>
    5690:	80 73       	andi	r24, 0x30	; 48
    5692:	51 f4       	brne	.+20     	; 0x56a8 <__vector_71+0xb84>
    5694:	e0 e8       	ldi	r30, 0x80	; 128
    5696:	f6 e0       	ldi	r31, 0x06	; 6
    5698:	85 e0       	ldi	r24, 0x05	; 5
    569a:	85 83       	std	Z+5, r24	; 0x05
    569c:	80 91 d9 28 	lds	r24, 0x28D9	; 0x8028d9 <sSensorData+0x79>
    56a0:	87 70       	andi	r24, 0x07	; 7
    56a2:	88 60       	ori	r24, 0x08	; 8
    56a4:	86 83       	std	Z+6, r24	; 0x06
    56a6:	dd c1       	rjmp	.+954    	; 0x5a62 <__vector_71+0xf3e>
    56a8:	80 91 68 06 	lds	r24, 0x0668	; 0x800668 <__TEXT_REGION_LENGTH__+0x700668>
    56ac:	80 73       	andi	r24, 0x30	; 48
    56ae:	80 31       	cpi	r24, 0x10	; 16
    56b0:	31 f0       	breq	.+12     	; 0x56be <__vector_71+0xb9a>
    56b2:	80 91 68 06 	lds	r24, 0x0668	; 0x800668 <__TEXT_REGION_LENGTH__+0x700668>
    56b6:	80 73       	andi	r24, 0x30	; 48
    56b8:	80 32       	cpi	r24, 0x20	; 32
    56ba:	09 f0       	breq	.+2      	; 0x56be <__vector_71+0xb9a>
    56bc:	d2 c1       	rjmp	.+932    	; 0x5a62 <__vector_71+0xf3e>
    56be:	e0 e8       	ldi	r30, 0x80	; 128
    56c0:	f6 e0       	ldi	r31, 0x06	; 6
    56c2:	85 e0       	ldi	r24, 0x05	; 5
    56c4:	85 83       	std	Z+5, r24	; 0x05
    56c6:	80 91 d9 28 	lds	r24, 0x28D9	; 0x8028d9 <sSensorData+0x79>
    56ca:	87 70       	andi	r24, 0x07	; 7
    56cc:	86 83       	std	Z+6, r24	; 0x06
    56ce:	c9 c1       	rjmp	.+914    	; 0x5a62 <__vector_71+0xf3e>
		}
		else
			sCCIsOn = 0;
    56d0:	10 92 56 28 	sts	0x2856, r1	; 0x802856 <sCCIsOn.4880>
	}

	if(sSensorData.selCC2State != selCC2Pin) {
    56d4:	80 91 c4 28 	lds	r24, 0x28C4	; 0x8028c4 <sSensorData+0x64>
    56d8:	c8 13       	cpse	r28, r24
    56da:	06 c0       	rjmp	.+12     	; 0x56e8 <__vector_71+0xbc4>
    56dc:	6f c1       	rjmp	.+734    	; 0x59bc <__vector_71+0xe98>
    56de:	80 91 c4 28 	lds	r24, 0x28C4	; 0x8028c4 <sSensorData+0x64>
    56e2:	c8 17       	cp	r28, r24
    56e4:	09 f4       	brne	.+2      	; 0x56e8 <__vector_71+0xbc4>
    56e6:	a2 c0       	rjmp	.+324    	; 0x582c <__vector_71+0xd08>
		sSensorData.selCC2State = selCC2Pin;
    56e8:	c0 93 c4 28 	sts	0x28C4, r28	; 0x8028c4 <sSensorData+0x64>
		sSensorData.selCC2Timestamp = sSessionCycleCount;
    56ec:	80 91 e3 28 	lds	r24, 0x28E3	; 0x8028e3 <sSessionCycleCount>
    56f0:	90 91 e4 28 	lds	r25, 0x28E4	; 0x8028e4 <sSessionCycleCount+0x1>
    56f4:	a0 91 e5 28 	lds	r26, 0x28E5	; 0x8028e5 <sSessionCycleCount+0x2>
    56f8:	b0 91 e6 28 	lds	r27, 0x28E6	; 0x8028e6 <sSessionCycleCount+0x3>
    56fc:	80 93 cd 28 	sts	0x28CD, r24	; 0x8028cd <sSensorData+0x6d>
    5700:	90 93 ce 28 	sts	0x28CE, r25	; 0x8028ce <sSensorData+0x6e>
    5704:	a0 93 cf 28 	sts	0x28CF, r26	; 0x8028cf <sSensorData+0x6f>
    5708:	b0 93 d0 28 	sts	0x28D0, r27	; 0x8028d0 <sSensorData+0x70>
		/* Did CC2 just get enabled? */
		if(!selCC2Pin) {
    570c:	c1 11       	cpse	r28, r1
    570e:	8b c0       	rjmp	.+278    	; 0x5826 <__vector_71+0xd02>
			sCCIsOn = 1;
    5710:	81 e0       	ldi	r24, 0x01	; 1
    5712:	80 93 56 28 	sts	0x2856, r24	; 0x802856 <sCCIsOn.4880>
			sCCPrevPulseInterval = sSensorData.speedSensorPulseInterval;
    5716:	80 91 ba 28 	lds	r24, 0x28BA	; 0x8028ba <sSensorData+0x5a>
    571a:	90 91 bb 28 	lds	r25, 0x28BB	; 0x8028bb <sSensorData+0x5b>
    571e:	a0 91 bc 28 	lds	r26, 0x28BC	; 0x8028bc <sSensorData+0x5c>
    5722:	b0 91 bd 28 	lds	r27, 0x28BD	; 0x8028bd <sSensorData+0x5d>
    5726:	80 93 52 28 	sts	0x2852, r24	; 0x802852 <sCCPrevPulseInterval.4887>
    572a:	90 93 53 28 	sts	0x2853, r25	; 0x802853 <sCCPrevPulseInterval.4887+0x1>
    572e:	a0 93 54 28 	sts	0x2854, r26	; 0x802854 <sCCPrevPulseInterval.4887+0x2>
    5732:	b0 93 55 28 	sts	0x2855, r27	; 0x802855 <sCCPrevPulseInterval.4887+0x3>
			if(sSensorData.speedSensorPulseInterval > sCC2MinSpeed) { // Driving below minimum initial CC2 speed limit
    5736:	40 91 de 28 	lds	r20, 0x28DE	; 0x8028de <sCC2MinSpeed>
    573a:	50 91 df 28 	lds	r21, 0x28DF	; 0x8028df <sCC2MinSpeed+0x1>
    573e:	60 91 e0 28 	lds	r22, 0x28E0	; 0x8028e0 <sCC2MinSpeed+0x2>
    5742:	70 91 e1 28 	lds	r23, 0x28E1	; 0x8028e1 <sCC2MinSpeed+0x3>
    5746:	48 17       	cp	r20, r24
    5748:	59 07       	cpc	r21, r25
    574a:	6a 07       	cpc	r22, r26
    574c:	7b 07       	cpc	r23, r27
    574e:	a4 f4       	brge	.+40     	; 0x5778 <__vector_71+0xc54>
				sSensorData.ccTargetSpeed = sCC2MinSpeed;
    5750:	80 91 de 28 	lds	r24, 0x28DE	; 0x8028de <sCC2MinSpeed>
    5754:	90 91 df 28 	lds	r25, 0x28DF	; 0x8028df <sCC2MinSpeed+0x1>
    5758:	a0 91 e0 28 	lds	r26, 0x28E0	; 0x8028e0 <sCC2MinSpeed+0x2>
    575c:	b0 91 e1 28 	lds	r27, 0x28E1	; 0x8028e1 <sCC2MinSpeed+0x3>
    5760:	80 93 d5 28 	sts	0x28D5, r24	; 0x8028d5 <sSensorData+0x75>
    5764:	90 93 d6 28 	sts	0x28D6, r25	; 0x8028d6 <sSensorData+0x76>
    5768:	a0 93 d7 28 	sts	0x28D7, r26	; 0x8028d7 <sSensorData+0x77>
    576c:	b0 93 d8 28 	sts	0x28D8, r27	; 0x8028d8 <sSensorData+0x78>
				sSensorData.ccPower = CC_MAX_POWER;
    5770:	87 e0       	ldi	r24, 0x07	; 7
    5772:	80 93 d9 28 	sts	0x28D9, r24	; 0x8028d9 <sSensorData+0x79>
    5776:	0b c0       	rjmp	.+22     	; 0x578e <__vector_71+0xc6a>
			}
			else {
				sSensorData.ccTargetSpeed = sSensorData.speedSensorPulseInterval;
    5778:	80 93 d5 28 	sts	0x28D5, r24	; 0x8028d5 <sSensorData+0x75>
    577c:	90 93 d6 28 	sts	0x28D6, r25	; 0x8028d6 <sSensorData+0x76>
    5780:	a0 93 d7 28 	sts	0x28D7, r26	; 0x8028d7 <sSensorData+0x77>
    5784:	b0 93 d8 28 	sts	0x28D8, r27	; 0x8028d8 <sSensorData+0x78>
				sSensorData.ccPower = CC_DEFAULT_POWER;
    5788:	82 e0       	ldi	r24, 0x02	; 2
    578a:	80 93 d9 28 	sts	0x28D9, r24	; 0x8028d9 <sSensorData+0x79>
			}
			sCCRunTimer = CC_REG_CYCLES;
    578e:	88 e8       	ldi	r24, 0x88	; 136
    5790:	93 e1       	ldi	r25, 0x13	; 19
    5792:	80 93 50 28 	sts	0x2850, r24	; 0x802850 <sCCRunTimer.4881>
    5796:	90 93 51 28 	sts	0x2851, r25	; 0x802851 <sCCRunTimer.4881+0x1>
			SET_CC_DRIVE(sSensorData.ccPower);
    579a:	80 91 68 06 	lds	r24, 0x0668	; 0x800668 <__TEXT_REGION_LENGTH__+0x700668>
    579e:	80 73       	andi	r24, 0x30	; 48
    57a0:	09 f5       	brne	.+66     	; 0x57e4 <__vector_71+0xcc0>
    57a2:	80 91 d9 28 	lds	r24, 0x28D9	; 0x8028d9 <sSensorData+0x79>
    57a6:	81 11       	cpse	r24, r1
    57a8:	04 c0       	rjmp	.+8      	; 0x57b2 <__vector_71+0xc8e>
    57aa:	8f e0       	ldi	r24, 0x0F	; 15
    57ac:	80 93 86 06 	sts	0x0686, r24	; 0x800686 <__TEXT_REGION_LENGTH__+0x700686>
    57b0:	3d c0       	rjmp	.+122    	; 0x582c <__vector_71+0xd08>
    57b2:	87 30       	cpi	r24, 0x07	; 7
    57b4:	31 f4       	brne	.+12     	; 0x57c2 <__vector_71+0xc9e>
    57b6:	e0 e8       	ldi	r30, 0x80	; 128
    57b8:	f6 e0       	ldi	r31, 0x06	; 6
    57ba:	85 83       	std	Z+5, r24	; 0x05
    57bc:	88 e0       	ldi	r24, 0x08	; 8
    57be:	86 83       	std	Z+6, r24	; 0x06
    57c0:	35 c0       	rjmp	.+106    	; 0x582c <__vector_71+0xd08>
    57c2:	88 30       	cpi	r24, 0x08	; 8
    57c4:	21 f4       	brne	.+8      	; 0x57ce <__vector_71+0xcaa>
    57c6:	8f e0       	ldi	r24, 0x0F	; 15
    57c8:	80 93 85 06 	sts	0x0685, r24	; 0x800685 <__TEXT_REGION_LENGTH__+0x700685>
    57cc:	2f c0       	rjmp	.+94     	; 0x582c <__vector_71+0xd08>
    57ce:	80 95       	com	r24
    57d0:	87 70       	andi	r24, 0x07	; 7
    57d2:	e0 e8       	ldi	r30, 0x80	; 128
    57d4:	f6 e0       	ldi	r31, 0x06	; 6
    57d6:	85 83       	std	Z+5, r24	; 0x05
    57d8:	80 91 d9 28 	lds	r24, 0x28D9	; 0x8028d9 <sSensorData+0x79>
    57dc:	87 70       	andi	r24, 0x07	; 7
    57de:	88 60       	ori	r24, 0x08	; 8
    57e0:	86 83       	std	Z+6, r24	; 0x06
    57e2:	24 c0       	rjmp	.+72     	; 0x582c <__vector_71+0xd08>
    57e4:	80 91 68 06 	lds	r24, 0x0668	; 0x800668 <__TEXT_REGION_LENGTH__+0x700668>
    57e8:	80 73       	andi	r24, 0x30	; 48
    57ea:	80 31       	cpi	r24, 0x10	; 16
    57ec:	29 f0       	breq	.+10     	; 0x57f8 <__vector_71+0xcd4>
    57ee:	80 91 68 06 	lds	r24, 0x0668	; 0x800668 <__TEXT_REGION_LENGTH__+0x700668>
    57f2:	80 73       	andi	r24, 0x30	; 48
    57f4:	80 32       	cpi	r24, 0x20	; 32
    57f6:	d1 f4       	brne	.+52     	; 0x582c <__vector_71+0xd08>
    57f8:	80 91 d9 28 	lds	r24, 0x28D9	; 0x8028d9 <sSensorData+0x79>
    57fc:	81 11       	cpse	r24, r1
    57fe:	04 c0       	rjmp	.+8      	; 0x5808 <__vector_71+0xce4>
    5800:	87 e0       	ldi	r24, 0x07	; 7
    5802:	80 93 86 06 	sts	0x0686, r24	; 0x800686 <__TEXT_REGION_LENGTH__+0x700686>
    5806:	12 c0       	rjmp	.+36     	; 0x582c <__vector_71+0xd08>
    5808:	87 30       	cpi	r24, 0x07	; 7
    580a:	19 f4       	brne	.+6      	; 0x5812 <__vector_71+0xcee>
    580c:	80 93 85 06 	sts	0x0685, r24	; 0x800685 <__TEXT_REGION_LENGTH__+0x700685>
    5810:	0d c0       	rjmp	.+26     	; 0x582c <__vector_71+0xd08>
    5812:	80 95       	com	r24
    5814:	87 70       	andi	r24, 0x07	; 7
    5816:	e0 e8       	ldi	r30, 0x80	; 128
    5818:	f6 e0       	ldi	r31, 0x06	; 6
    581a:	85 83       	std	Z+5, r24	; 0x05
    581c:	80 91 d9 28 	lds	r24, 0x28D9	; 0x8028d9 <sSensorData+0x79>
    5820:	87 70       	andi	r24, 0x07	; 7
    5822:	86 83       	std	Z+6, r24	; 0x06
    5824:	03 c0       	rjmp	.+6      	; 0x582c <__vector_71+0xd08>
		}
		else
			sCCIsOn = 0;
    5826:	10 92 56 28 	sts	0x2856, r1	; 0x802856 <sCCIsOn.4880>
    582a:	c8 c0       	rjmp	.+400    	; 0x59bc <__vector_71+0xe98>
	}
	
	if(sCCIsOn && !--sCCRunTimer) {
    582c:	80 91 56 28 	lds	r24, 0x2856	; 0x802856 <sCCIsOn.4880>
    5830:	88 23       	and	r24, r24
    5832:	09 f4       	brne	.+2      	; 0x5836 <__vector_71+0xd12>
    5834:	c3 c0       	rjmp	.+390    	; 0x59bc <__vector_71+0xe98>
    5836:	80 91 50 28 	lds	r24, 0x2850	; 0x802850 <sCCRunTimer.4881>
    583a:	90 91 51 28 	lds	r25, 0x2851	; 0x802851 <sCCRunTimer.4881+0x1>
    583e:	01 97       	sbiw	r24, 0x01	; 1
    5840:	80 93 50 28 	sts	0x2850, r24	; 0x802850 <sCCRunTimer.4881>
    5844:	90 93 51 28 	sts	0x2851, r25	; 0x802851 <sCCRunTimer.4881+0x1>
    5848:	89 2b       	or	r24, r25
    584a:	09 f0       	breq	.+2      	; 0x584e <__vector_71+0xd2a>
    584c:	b7 c0       	rjmp	.+366    	; 0x59bc <__vector_71+0xe98>
		if(!selCC2Pin && sCC2TargetSpeedUpdate) {
    584e:	c1 11       	cpse	r28, r1
    5850:	16 c0       	rjmp	.+44     	; 0x587e <__vector_71+0xd5a>
    5852:	80 91 e2 28 	lds	r24, 0x28E2	; 0x8028e2 <sCC2TargetSpeedUpdate>
    5856:	88 23       	and	r24, r24
    5858:	91 f0       	breq	.+36     	; 0x587e <__vector_71+0xd5a>
			sSensorData.ccTargetSpeed = sCC2TargetSpeed;
    585a:	80 91 da 28 	lds	r24, 0x28DA	; 0x8028da <sCC2TargetSpeed>
    585e:	90 91 db 28 	lds	r25, 0x28DB	; 0x8028db <sCC2TargetSpeed+0x1>
    5862:	a0 91 dc 28 	lds	r26, 0x28DC	; 0x8028dc <sCC2TargetSpeed+0x2>
    5866:	b0 91 dd 28 	lds	r27, 0x28DD	; 0x8028dd <sCC2TargetSpeed+0x3>
    586a:	80 93 d5 28 	sts	0x28D5, r24	; 0x8028d5 <sSensorData+0x75>
    586e:	90 93 d6 28 	sts	0x28D6, r25	; 0x8028d6 <sSensorData+0x76>
    5872:	a0 93 d7 28 	sts	0x28D7, r26	; 0x8028d7 <sSensorData+0x77>
    5876:	b0 93 d8 28 	sts	0x28D8, r27	; 0x8028d8 <sSensorData+0x78>
			// Possibly adjust power levels here too, for faster convergence?
			sCC2TargetSpeedUpdate = 0;
    587a:	10 92 e2 28 	sts	0x28E2, r1	; 0x8028e2 <sCC2TargetSpeedUpdate>
		}
		if((sSensorData.speedSensorPulseInterval > sSensorData.ccTargetSpeed)
    587e:	80 91 ba 28 	lds	r24, 0x28BA	; 0x8028ba <sSensorData+0x5a>
    5882:	90 91 bb 28 	lds	r25, 0x28BB	; 0x8028bb <sSensorData+0x5b>
    5886:	a0 91 bc 28 	lds	r26, 0x28BC	; 0x8028bc <sSensorData+0x5c>
    588a:	b0 91 bd 28 	lds	r27, 0x28BD	; 0x8028bd <sSensorData+0x5d>
    588e:	40 91 d5 28 	lds	r20, 0x28D5	; 0x8028d5 <sSensorData+0x75>
    5892:	50 91 d6 28 	lds	r21, 0x28D6	; 0x8028d6 <sSensorData+0x76>
    5896:	60 91 d7 28 	lds	r22, 0x28D7	; 0x8028d7 <sSensorData+0x77>
    589a:	70 91 d8 28 	lds	r23, 0x28D8	; 0x8028d8 <sSensorData+0x78>
    589e:	48 17       	cp	r20, r24
    58a0:	59 07       	cpc	r21, r25
    58a2:	6a 07       	cpc	r22, r26
    58a4:	7b 07       	cpc	r23, r27
    58a6:	ac f4       	brge	.+42     	; 0x58d2 <__vector_71+0xdae>
			&& (sSensorData.speedSensorPulseInterval > sCCPrevPulseInterval)
    58a8:	00 91 52 28 	lds	r16, 0x2852	; 0x802852 <sCCPrevPulseInterval.4887>
    58ac:	10 91 53 28 	lds	r17, 0x2853	; 0x802853 <sCCPrevPulseInterval.4887+0x1>
    58b0:	20 91 54 28 	lds	r18, 0x2854	; 0x802854 <sCCPrevPulseInterval.4887+0x2>
    58b4:	30 91 55 28 	lds	r19, 0x2855	; 0x802855 <sCCPrevPulseInterval.4887+0x3>
    58b8:	08 17       	cp	r16, r24
    58ba:	19 07       	cpc	r17, r25
    58bc:	2a 07       	cpc	r18, r26
    58be:	3b 07       	cpc	r19, r27
    58c0:	44 f4       	brge	.+16     	; 0x58d2 <__vector_71+0xdae>
			&& (sSensorData.ccPower < CC_TURBO_BOOST) 
    58c2:	20 91 d9 28 	lds	r18, 0x28D9	; 0x8028d9 <sSensorData+0x79>
			&& (sSensorData.ccPower < CC_MAX_POWER))
    58c6:	27 30       	cpi	r18, 0x07	; 7
    58c8:	20 f4       	brcc	.+8      	; 0x58d2 <__vector_71+0xdae>
				sSensorData.ccPower++;
    58ca:	2f 5f       	subi	r18, 0xFF	; 255
    58cc:	20 93 d9 28 	sts	0x28D9, r18	; 0x8028d9 <sSensorData+0x79>
    58d0:	1a c0       	rjmp	.+52     	; 0x5906 <__vector_71+0xde2>
		else if((sSensorData.speedSensorPulseInterval < sSensorData.ccTargetSpeed)
    58d2:	84 17       	cp	r24, r20
    58d4:	95 07       	cpc	r25, r21
    58d6:	a6 07       	cpc	r26, r22
    58d8:	b7 07       	cpc	r27, r23
    58da:	ac f4       	brge	.+42     	; 0x5906 <__vector_71+0xde2>
			&& (sSensorData.speedSensorPulseInterval < sCCPrevPulseInterval)
    58dc:	40 91 52 28 	lds	r20, 0x2852	; 0x802852 <sCCPrevPulseInterval.4887>
    58e0:	50 91 53 28 	lds	r21, 0x2853	; 0x802853 <sCCPrevPulseInterval.4887+0x1>
    58e4:	60 91 54 28 	lds	r22, 0x2854	; 0x802854 <sCCPrevPulseInterval.4887+0x2>
    58e8:	70 91 55 28 	lds	r23, 0x2855	; 0x802855 <sCCPrevPulseInterval.4887+0x3>
    58ec:	84 17       	cp	r24, r20
    58ee:	95 07       	cpc	r25, r21
    58f0:	a6 07       	cpc	r26, r22
    58f2:	b7 07       	cpc	r27, r23
    58f4:	44 f4       	brge	.+16     	; 0x5906 <__vector_71+0xde2>
			&& (sSensorData.ccPower > 0))
    58f6:	80 91 d9 28 	lds	r24, 0x28D9	; 0x8028d9 <sSensorData+0x79>
    58fa:	88 23       	and	r24, r24
    58fc:	09 f4       	brne	.+2      	; 0x5900 <__vector_71+0xddc>
    58fe:	b6 c0       	rjmp	.+364    	; 0x5a6c <__vector_71+0xf48>
				sSensorData.ccPower--;
    5900:	81 50       	subi	r24, 0x01	; 1
    5902:	80 93 d9 28 	sts	0x28D9, r24	; 0x8028d9 <sSensorData+0x79>
		SET_CC_DRIVE(sSensorData.ccPower);
    5906:	80 91 68 06 	lds	r24, 0x0668	; 0x800668 <__TEXT_REGION_LENGTH__+0x700668>
    590a:	80 73       	andi	r24, 0x30	; 48
    590c:	09 f5       	brne	.+66     	; 0x5950 <__vector_71+0xe2c>
    590e:	80 91 d9 28 	lds	r24, 0x28D9	; 0x8028d9 <sSensorData+0x79>
    5912:	81 11       	cpse	r24, r1
    5914:	04 c0       	rjmp	.+8      	; 0x591e <__vector_71+0xdfa>
    5916:	8f e0       	ldi	r24, 0x0F	; 15
    5918:	80 93 86 06 	sts	0x0686, r24	; 0x800686 <__TEXT_REGION_LENGTH__+0x700686>
    591c:	39 c0       	rjmp	.+114    	; 0x5990 <__vector_71+0xe6c>
    591e:	87 30       	cpi	r24, 0x07	; 7
    5920:	31 f4       	brne	.+12     	; 0x592e <__vector_71+0xe0a>
    5922:	e0 e8       	ldi	r30, 0x80	; 128
    5924:	f6 e0       	ldi	r31, 0x06	; 6
    5926:	85 83       	std	Z+5, r24	; 0x05
    5928:	88 e0       	ldi	r24, 0x08	; 8
    592a:	86 83       	std	Z+6, r24	; 0x06
    592c:	31 c0       	rjmp	.+98     	; 0x5990 <__vector_71+0xe6c>
    592e:	88 30       	cpi	r24, 0x08	; 8
    5930:	21 f4       	brne	.+8      	; 0x593a <__vector_71+0xe16>
    5932:	8f e0       	ldi	r24, 0x0F	; 15
    5934:	80 93 85 06 	sts	0x0685, r24	; 0x800685 <__TEXT_REGION_LENGTH__+0x700685>
    5938:	2b c0       	rjmp	.+86     	; 0x5990 <__vector_71+0xe6c>
    593a:	80 95       	com	r24
    593c:	87 70       	andi	r24, 0x07	; 7
    593e:	e0 e8       	ldi	r30, 0x80	; 128
    5940:	f6 e0       	ldi	r31, 0x06	; 6
    5942:	85 83       	std	Z+5, r24	; 0x05
    5944:	80 91 d9 28 	lds	r24, 0x28D9	; 0x8028d9 <sSensorData+0x79>
    5948:	87 70       	andi	r24, 0x07	; 7
    594a:	88 60       	ori	r24, 0x08	; 8
    594c:	86 83       	std	Z+6, r24	; 0x06
    594e:	20 c0       	rjmp	.+64     	; 0x5990 <__vector_71+0xe6c>
    5950:	80 91 68 06 	lds	r24, 0x0668	; 0x800668 <__TEXT_REGION_LENGTH__+0x700668>
    5954:	80 73       	andi	r24, 0x30	; 48
    5956:	80 31       	cpi	r24, 0x10	; 16
    5958:	29 f0       	breq	.+10     	; 0x5964 <__vector_71+0xe40>
    595a:	80 91 68 06 	lds	r24, 0x0668	; 0x800668 <__TEXT_REGION_LENGTH__+0x700668>
    595e:	80 73       	andi	r24, 0x30	; 48
    5960:	80 32       	cpi	r24, 0x20	; 32
    5962:	b1 f4       	brne	.+44     	; 0x5990 <__vector_71+0xe6c>
    5964:	80 91 d9 28 	lds	r24, 0x28D9	; 0x8028d9 <sSensorData+0x79>
    5968:	81 11       	cpse	r24, r1
    596a:	04 c0       	rjmp	.+8      	; 0x5974 <__vector_71+0xe50>
    596c:	87 e0       	ldi	r24, 0x07	; 7
    596e:	80 93 86 06 	sts	0x0686, r24	; 0x800686 <__TEXT_REGION_LENGTH__+0x700686>
    5972:	0e c0       	rjmp	.+28     	; 0x5990 <__vector_71+0xe6c>
    5974:	87 30       	cpi	r24, 0x07	; 7
    5976:	19 f4       	brne	.+6      	; 0x597e <__vector_71+0xe5a>
    5978:	80 93 85 06 	sts	0x0685, r24	; 0x800685 <__TEXT_REGION_LENGTH__+0x700685>
    597c:	09 c0       	rjmp	.+18     	; 0x5990 <__vector_71+0xe6c>
    597e:	80 95       	com	r24
    5980:	87 70       	andi	r24, 0x07	; 7
    5982:	e0 e8       	ldi	r30, 0x80	; 128
    5984:	f6 e0       	ldi	r31, 0x06	; 6
    5986:	85 83       	std	Z+5, r24	; 0x05
    5988:	80 91 d9 28 	lds	r24, 0x28D9	; 0x8028d9 <sSensorData+0x79>
    598c:	87 70       	andi	r24, 0x07	; 7
    598e:	86 83       	std	Z+6, r24	; 0x06
		sCCRunTimer = CC_REG_CYCLES;
    5990:	88 e8       	ldi	r24, 0x88	; 136
    5992:	93 e1       	ldi	r25, 0x13	; 19
    5994:	80 93 50 28 	sts	0x2850, r24	; 0x802850 <sCCRunTimer.4881>
    5998:	90 93 51 28 	sts	0x2851, r25	; 0x802851 <sCCRunTimer.4881+0x1>
		sCCPrevPulseInterval = sSensorData.speedSensorPulseInterval;
    599c:	80 91 ba 28 	lds	r24, 0x28BA	; 0x8028ba <sSensorData+0x5a>
    59a0:	90 91 bb 28 	lds	r25, 0x28BB	; 0x8028bb <sSensorData+0x5b>
    59a4:	a0 91 bc 28 	lds	r26, 0x28BC	; 0x8028bc <sSensorData+0x5c>
    59a8:	b0 91 bd 28 	lds	r27, 0x28BD	; 0x8028bd <sSensorData+0x5d>
    59ac:	80 93 52 28 	sts	0x2852, r24	; 0x802852 <sCCPrevPulseInterval.4887>
    59b0:	90 93 53 28 	sts	0x2853, r25	; 0x802853 <sCCPrevPulseInterval.4887+0x1>
    59b4:	a0 93 54 28 	sts	0x2854, r26	; 0x802854 <sCCPrevPulseInterval.4887+0x2>
    59b8:	b0 93 55 28 	sts	0x2855, r27	; 0x802855 <sCCPrevPulseInterval.4887+0x3>
	}
	
	if(sTakeSnapshot485) {
    59bc:	80 91 e7 28 	lds	r24, 0x28E7	; 0x8028e7 <sTakeSnapshot485>
    59c0:	88 23       	and	r24, r24
    59c2:	e1 f0       	breq	.+56     	; 0x59fc <__vector_71+0xed8>
		sSensorDataSnapshot485 = sSensorData;
    59c4:	8a e7       	ldi	r24, 0x7A	; 122
    59c6:	e0 e6       	ldi	r30, 0x60	; 96
    59c8:	f8 e2       	ldi	r31, 0x28	; 40
    59ca:	ac ee       	ldi	r26, 0xEC	; 236
    59cc:	b8 e2       	ldi	r27, 0x28	; 40
    59ce:	01 90       	ld	r0, Z+
    59d0:	0d 92       	st	X+, r0
    59d2:	8a 95       	dec	r24
    59d4:	e1 f7       	brne	.-8      	; 0x59ce <__vector_71+0xeaa>
		sSessionCycleCountSnapshot485 = sSessionCycleCount;
    59d6:	80 91 e3 28 	lds	r24, 0x28E3	; 0x8028e3 <sSessionCycleCount>
    59da:	90 91 e4 28 	lds	r25, 0x28E4	; 0x8028e4 <sSessionCycleCount+0x1>
    59de:	a0 91 e5 28 	lds	r26, 0x28E5	; 0x8028e5 <sSessionCycleCount+0x2>
    59e2:	b0 91 e6 28 	lds	r27, 0x28E6	; 0x8028e6 <sSessionCycleCount+0x3>
    59e6:	80 93 e8 28 	sts	0x28E8, r24	; 0x8028e8 <sSessionCycleCountSnapshot485>
    59ea:	90 93 e9 28 	sts	0x28E9, r25	; 0x8028e9 <sSessionCycleCountSnapshot485+0x1>
    59ee:	a0 93 ea 28 	sts	0x28EA, r26	; 0x8028ea <sSessionCycleCountSnapshot485+0x2>
    59f2:	b0 93 eb 28 	sts	0x28EB, r27	; 0x8028eb <sSessionCycleCountSnapshot485+0x3>
		
		sTakeSnapshot485 = 0;
    59f6:	10 92 e7 28 	sts	0x28E7, r1	; 0x8028e7 <sTakeSnapshot485>
    59fa:	1f c0       	rjmp	.+62     	; 0x5a3a <__vector_71+0xf16>
	}
	else if(sTakeSnapshot) { 
    59fc:	80 91 66 29 	lds	r24, 0x2966	; 0x802966 <sTakeSnapshot>
    5a00:	88 23       	and	r24, r24
    5a02:	d9 f0       	breq	.+54     	; 0x5a3a <__vector_71+0xf16>
		sSensorDataSnapshot = sSensorData;
    5a04:	8a e7       	ldi	r24, 0x7A	; 122
    5a06:	e0 e6       	ldi	r30, 0x60	; 96
    5a08:	f8 e2       	ldi	r31, 0x28	; 40
    5a0a:	ab e6       	ldi	r26, 0x6B	; 107
    5a0c:	b9 e2       	ldi	r27, 0x29	; 41
    5a0e:	01 90       	ld	r0, Z+
    5a10:	0d 92       	st	X+, r0
    5a12:	8a 95       	dec	r24
    5a14:	e1 f7       	brne	.-8      	; 0x5a0e <__vector_71+0xeea>
		sSessionCycleCountSnapshot = sSessionCycleCount;
    5a16:	80 91 e3 28 	lds	r24, 0x28E3	; 0x8028e3 <sSessionCycleCount>
    5a1a:	90 91 e4 28 	lds	r25, 0x28E4	; 0x8028e4 <sSessionCycleCount+0x1>
    5a1e:	a0 91 e5 28 	lds	r26, 0x28E5	; 0x8028e5 <sSessionCycleCount+0x2>
    5a22:	b0 91 e6 28 	lds	r27, 0x28E6	; 0x8028e6 <sSessionCycleCount+0x3>
    5a26:	80 93 67 29 	sts	0x2967, r24	; 0x802967 <sSessionCycleCountSnapshot>
    5a2a:	90 93 68 29 	sts	0x2968, r25	; 0x802968 <sSessionCycleCountSnapshot+0x1>
    5a2e:	a0 93 69 29 	sts	0x2969, r26	; 0x802969 <sSessionCycleCountSnapshot+0x2>
    5a32:	b0 93 6a 29 	sts	0x296A, r27	; 0x80296a <sSessionCycleCountSnapshot+0x3>
		
		sTakeSnapshot = 0;
    5a36:	10 92 66 29 	sts	0x2966, r1	; 0x802966 <sTakeSnapshot>
	}

	sSessionCycleCount++;
    5a3a:	80 91 e3 28 	lds	r24, 0x28E3	; 0x8028e3 <sSessionCycleCount>
    5a3e:	90 91 e4 28 	lds	r25, 0x28E4	; 0x8028e4 <sSessionCycleCount+0x1>
    5a42:	a0 91 e5 28 	lds	r26, 0x28E5	; 0x8028e5 <sSessionCycleCount+0x2>
    5a46:	b0 91 e6 28 	lds	r27, 0x28E6	; 0x8028e6 <sSessionCycleCount+0x3>
    5a4a:	01 96       	adiw	r24, 0x01	; 1
    5a4c:	a1 1d       	adc	r26, r1
    5a4e:	b1 1d       	adc	r27, r1
    5a50:	80 93 e3 28 	sts	0x28E3, r24	; 0x8028e3 <sSessionCycleCount>
    5a54:	90 93 e4 28 	sts	0x28E4, r25	; 0x8028e4 <sSessionCycleCount+0x1>
    5a58:	a0 93 e5 28 	sts	0x28E5, r26	; 0x8028e5 <sSessionCycleCount+0x2>
    5a5c:	b0 93 e6 28 	sts	0x28E6, r27	; 0x8028e6 <sSessionCycleCount+0x3>
		
} /* ISR(ADCA_CH0_vect) */
    5a60:	1c c0       	rjmp	.+56     	; 0x5a9a <__vector_71+0xf76>
		}
		else
			sCCIsOn = 0;
	}

	if(sSensorData.selCC2State != selCC2Pin) {
    5a62:	80 91 c4 28 	lds	r24, 0x28C4	; 0x8028c4 <sSensorData+0x64>
    5a66:	c8 13       	cpse	r28, r24
    5a68:	3f ce       	rjmp	.-898    	; 0x56e8 <__vector_71+0xbc4>
    5a6a:	06 c0       	rjmp	.+12     	; 0x5a78 <__vector_71+0xf54>
				sSensorData.ccPower++;
		else if((sSensorData.speedSensorPulseInterval < sSensorData.ccTargetSpeed)
			&& (sSensorData.speedSensorPulseInterval < sCCPrevPulseInterval)
			&& (sSensorData.ccPower > 0))
				sSensorData.ccPower--;
		SET_CC_DRIVE(sSensorData.ccPower);
    5a6c:	80 91 68 06 	lds	r24, 0x0668	; 0x800668 <__TEXT_REGION_LENGTH__+0x700668>
    5a70:	80 73       	andi	r24, 0x30	; 48
    5a72:	09 f4       	brne	.+2      	; 0x5a76 <__vector_71+0xf52>
    5a74:	50 cf       	rjmp	.-352    	; 0x5916 <__vector_71+0xdf2>
    5a76:	0a c0       	rjmp	.+20     	; 0x5a8c <__vector_71+0xf68>
		}
		else
			sCCIsOn = 0;
	}
	
	if(sCCIsOn && !--sCCRunTimer) {
    5a78:	80 91 50 28 	lds	r24, 0x2850	; 0x802850 <sCCRunTimer.4881>
    5a7c:	90 91 51 28 	lds	r25, 0x2851	; 0x802851 <sCCRunTimer.4881+0x1>
    5a80:	01 97       	sbiw	r24, 0x01	; 1
    5a82:	80 93 50 28 	sts	0x2850, r24	; 0x802850 <sCCRunTimer.4881>
    5a86:	90 93 51 28 	sts	0x2851, r25	; 0x802851 <sCCRunTimer.4881+0x1>
    5a8a:	98 cf       	rjmp	.-208    	; 0x59bc <__vector_71+0xe98>
				sSensorData.ccPower++;
		else if((sSensorData.speedSensorPulseInterval < sSensorData.ccTargetSpeed)
			&& (sSensorData.speedSensorPulseInterval < sCCPrevPulseInterval)
			&& (sSensorData.ccPower > 0))
				sSensorData.ccPower--;
		SET_CC_DRIVE(sSensorData.ccPower);
    5a8c:	80 91 68 06 	lds	r24, 0x0668	; 0x800668 <__TEXT_REGION_LENGTH__+0x700668>
    5a90:	80 73       	andi	r24, 0x30	; 48
    5a92:	80 31       	cpi	r24, 0x10	; 16
    5a94:	09 f0       	breq	.+2      	; 0x5a98 <__vector_71+0xf74>
    5a96:	61 cf       	rjmp	.-318    	; 0x595a <__vector_71+0xe36>
    5a98:	69 cf       	rjmp	.-302    	; 0x596c <__vector_71+0xe48>
		sTakeSnapshot = 0;
	}

	sSessionCycleCount++;
		
} /* ISR(ADCA_CH0_vect) */
    5a9a:	ff 91       	pop	r31
    5a9c:	ef 91       	pop	r30
    5a9e:	df 91       	pop	r29
    5aa0:	cf 91       	pop	r28
    5aa2:	bf 91       	pop	r27
    5aa4:	af 91       	pop	r26
    5aa6:	9f 91       	pop	r25
    5aa8:	8f 91       	pop	r24
    5aaa:	7f 91       	pop	r23
    5aac:	6f 91       	pop	r22
    5aae:	5f 91       	pop	r21
    5ab0:	4f 91       	pop	r20
    5ab2:	3f 91       	pop	r19
    5ab4:	2f 91       	pop	r18
    5ab6:	1f 91       	pop	r17
    5ab8:	0f 91       	pop	r16
    5aba:	ff 90       	pop	r15
    5abc:	ef 90       	pop	r14
    5abe:	df 90       	pop	r13
    5ac0:	cf 90       	pop	r12
    5ac2:	bf 90       	pop	r11
    5ac4:	af 90       	pop	r10
    5ac6:	9f 90       	pop	r9
    5ac8:	8f 90       	pop	r8
    5aca:	7f 90       	pop	r7
    5acc:	6f 90       	pop	r6
    5ace:	5f 90       	pop	r5
    5ad0:	4f 90       	pop	r4
    5ad2:	3f 90       	pop	r3
    5ad4:	2f 90       	pop	r2
    5ad6:	0f 90       	pop	r0
    5ad8:	0b be       	out	0x3b, r0	; 59
    5ada:	0f 90       	pop	r0
    5adc:	0f be       	out	0x3f, r0	; 63
    5ade:	0f 90       	pop	r0
    5ae0:	1f 90       	pop	r1
    5ae2:	18 95       	reti

00005ae4 <CopySensorData>:
	fprintf(fp, "%s,%s,%s,%s,", sGPSPos, sGPSDirection, sGPSSpeed, sGPSTime);
	
} /* PrintBussensors */


static void CopySensorData(char *dest, const char *src) {
    5ae4:	ac 01       	movw	r20, r24
	uint8_t i = 0;
	
	while(i < MAXDATA && src[i] != '\'' && src[i] != '%' && src[i] != '\0') {
    5ae6:	fb 01       	movw	r30, r22
    5ae8:	80 81       	ld	r24, Z
    5aea:	98 2f       	mov	r25, r24
    5aec:	9d 7f       	andi	r25, 0xFD	; 253
    5aee:	95 32       	cpi	r25, 0x25	; 37
    5af0:	81 f0       	breq	.+32     	; 0x5b12 <CopySensorData+0x2e>
    5af2:	81 11       	cpse	r24, r1
    5af4:	19 c0       	rjmp	.+50     	; 0x5b28 <CopySensorData+0x44>
	
} /* PrintBussensors */


static void CopySensorData(char *dest, const char *src) {
	uint8_t i = 0;
    5af6:	20 e0       	ldi	r18, 0x00	; 0
    5af8:	0d c0       	rjmp	.+26     	; 0x5b14 <CopySensorData+0x30>
	
	while(i < MAXDATA && src[i] != '\'' && src[i] != '%' && src[i] != '\0') {
		dest[i] = src[i];
    5afa:	9d 93       	st	X+, r25
		i++;
    5afc:	2f 5f       	subi	r18, 0xFF	; 255


static void CopySensorData(char *dest, const char *src) {
	uint8_t i = 0;
	
	while(i < MAXDATA && src[i] != '\'' && src[i] != '%' && src[i] != '\0') {
    5afe:	2e 34       	cpi	r18, 0x4E	; 78
    5b00:	71 f0       	breq	.+28     	; 0x5b1e <CopySensorData+0x3a>
    5b02:	91 91       	ld	r25, Z+
    5b04:	39 2f       	mov	r19, r25
    5b06:	3d 7f       	andi	r19, 0xFD	; 253
    5b08:	35 32       	cpi	r19, 0x25	; 37
    5b0a:	21 f0       	breq	.+8      	; 0x5b14 <CopySensorData+0x30>
    5b0c:	91 11       	cpse	r25, r1
    5b0e:	f5 cf       	rjmp	.-22     	; 0x5afa <CopySensorData+0x16>
    5b10:	01 c0       	rjmp	.+2      	; 0x5b14 <CopySensorData+0x30>
	
} /* PrintBussensors */


static void CopySensorData(char *dest, const char *src) {
	uint8_t i = 0;
    5b12:	20 e0       	ldi	r18, 0x00	; 0
		dest[i] = src[i];
		i++;
	}		
	
	if(i < MAXDATA)
		dest[i] = '\0';
    5b14:	fa 01       	movw	r30, r20
    5b16:	e2 0f       	add	r30, r18
    5b18:	f1 1d       	adc	r31, r1
    5b1a:	10 82       	st	Z, r1
    5b1c:	08 95       	ret
	else
		dest[MAXDATA - 1] = '\0';
    5b1e:	fa 01       	movw	r30, r20
    5b20:	e3 5b       	subi	r30, 0xB3	; 179
    5b22:	ff 4f       	sbci	r31, 0xFF	; 255
    5b24:	10 82       	st	Z, r1
    5b26:	08 95       	ret

static void CopySensorData(char *dest, const char *src) {
	uint8_t i = 0;
	
	while(i < MAXDATA && src[i] != '\'' && src[i] != '%' && src[i] != '\0') {
		dest[i] = src[i];
    5b28:	da 01       	movw	r26, r20
    5b2a:	8d 93       	st	X+, r24
    5b2c:	fb 01       	movw	r30, r22
    5b2e:	31 96       	adiw	r30, 0x01	; 1
		i++;
    5b30:	21 e0       	ldi	r18, 0x01	; 1
    5b32:	e7 cf       	rjmp	.-50     	; 0x5b02 <CopySensorData+0x1e>

00005b34 <AcceptDataGPSPosition>:
} /* CopySensorData */


static int AcceptDataGPSPosition(const char *adr, char *inData) {
	
	CopySensorData(sGPSPos, inData);
    5b34:	88 e0       	ldi	r24, 0x08	; 8
    5b36:	90 e2       	ldi	r25, 0x20	; 32
    5b38:	0e 94 72 2d 	call	0x5ae4	; 0x5ae4 <CopySensorData>
	return 0;
	
} /* AcceptDataGPSPosition */
    5b3c:	80 e0       	ldi	r24, 0x00	; 0
    5b3e:	90 e0       	ldi	r25, 0x00	; 0
    5b40:	08 95       	ret

00005b42 <AcceptDataGPSDirection>:


static int AcceptDataGPSDirection(const char *adr, char *inData) {
	
	CopySensorData(sGPSDirection, inData);
    5b42:	81 eb       	ldi	r24, 0xB1	; 177
    5b44:	9a e2       	ldi	r25, 0x2A	; 42
    5b46:	0e 94 72 2d 	call	0x5ae4	; 0x5ae4 <CopySensorData>
	return 0;
	
} /* AcceptDataGPSDirection */
    5b4a:	80 e0       	ldi	r24, 0x00	; 0
    5b4c:	90 e0       	ldi	r25, 0x00	; 0
    5b4e:	08 95       	ret

00005b50 <AcceptDataGPSSpeed>:


static int AcceptDataGPSSpeed(const char *adr, char *inData) {
	
	CopySensorData(sGPSSpeed, inData);
    5b50:	83 e6       	ldi	r24, 0x63	; 99
    5b52:	9a e2       	ldi	r25, 0x2A	; 42
    5b54:	0e 94 72 2d 	call	0x5ae4	; 0x5ae4 <CopySensorData>
	return 0;
	
} /* AcceptDataGPSSpeed */
    5b58:	80 e0       	ldi	r24, 0x00	; 0
    5b5a:	90 e0       	ldi	r25, 0x00	; 0
    5b5c:	08 95       	ret

00005b5e <AcceptDataGPSTime>:


static int AcceptDataGPSTime(const char *adr, char *inData) {
	
	CopySensorData(sGPSTime, inData);
    5b5e:	85 e1       	ldi	r24, 0x15	; 21
    5b60:	9a e2       	ldi	r25, 0x2A	; 42
    5b62:	0e 94 72 2d 	call	0x5ae4	; 0x5ae4 <CopySensorData>
	return 0;
		
} /* AcceptDataGPSTime */
    5b66:	80 e0       	ldi	r24, 0x00	; 0
    5b68:	90 e0       	ldi	r25, 0x00	; 0
    5b6a:	08 95       	ret

00005b6c <InitReadBussensors>:
static int AcceptDataGPSTime(const char *adr, char *inData);


void InitReadBussensors(void) {
	
	AddWantedSensor("LL01", AcceptDataGPSPosition);
    5b6c:	6a e9       	ldi	r22, 0x9A	; 154
    5b6e:	7d e2       	ldi	r23, 0x2D	; 45
    5b70:	8a e3       	ldi	r24, 0x3A	; 58
    5b72:	97 e2       	ldi	r25, 0x27	; 39
    5b74:	0e 94 79 02 	call	0x4f2	; 0x4f2 <AddWantedSensor>
	AddWantedSensor("GR01", AcceptDataGPSDirection);
    5b78:	61 ea       	ldi	r22, 0xA1	; 161
    5b7a:	7d e2       	ldi	r23, 0x2D	; 45
    5b7c:	8f e3       	ldi	r24, 0x3F	; 63
    5b7e:	97 e2       	ldi	r25, 0x27	; 39
    5b80:	0e 94 79 02 	call	0x4f2	; 0x4f2 <AddWantedSensor>
	AddWantedSensor("SG01", AcceptDataGPSSpeed);
    5b84:	68 ea       	ldi	r22, 0xA8	; 168
    5b86:	7d e2       	ldi	r23, 0x2D	; 45
    5b88:	84 e4       	ldi	r24, 0x44	; 68
    5b8a:	97 e2       	ldi	r25, 0x27	; 39
    5b8c:	0e 94 79 02 	call	0x4f2	; 0x4f2 <AddWantedSensor>
	AddWantedSensor("GT01", AcceptDataGPSTime);
    5b90:	6f ea       	ldi	r22, 0xAF	; 175
    5b92:	7d e2       	ldi	r23, 0x2D	; 45
    5b94:	89 e4       	ldi	r24, 0x49	; 73
    5b96:	97 e2       	ldi	r25, 0x27	; 39
    5b98:	0e 94 79 02 	call	0x4f2	; 0x4f2 <AddWantedSensor>
    5b9c:	08 95       	ret

00005b9e <PrintBussensors>:
} /* InitReadBussensors */


void PrintBussensors(FILE *fp) {
	
	fprintf(fp, "%s,%s,%s,%s,", sGPSPos, sGPSDirection, sGPSSpeed, sGPSTime);
    5b9e:	25 e1       	ldi	r18, 0x15	; 21
    5ba0:	3a e2       	ldi	r19, 0x2A	; 42
    5ba2:	3f 93       	push	r19
    5ba4:	2f 93       	push	r18
    5ba6:	23 e6       	ldi	r18, 0x63	; 99
    5ba8:	3a e2       	ldi	r19, 0x2A	; 42
    5baa:	3f 93       	push	r19
    5bac:	2f 93       	push	r18
    5bae:	21 eb       	ldi	r18, 0xB1	; 177
    5bb0:	3a e2       	ldi	r19, 0x2A	; 42
    5bb2:	3f 93       	push	r19
    5bb4:	2f 93       	push	r18
    5bb6:	28 e0       	ldi	r18, 0x08	; 8
    5bb8:	30 e2       	ldi	r19, 0x20	; 32
    5bba:	3f 93       	push	r19
    5bbc:	2f 93       	push	r18
    5bbe:	2e e4       	ldi	r18, 0x4E	; 78
    5bc0:	37 e2       	ldi	r19, 0x27	; 39
    5bc2:	3f 93       	push	r19
    5bc4:	2f 93       	push	r18
    5bc6:	9f 93       	push	r25
    5bc8:	8f 93       	push	r24
    5bca:	0e 94 1a 3d 	call	0x7a34	; 0x7a34 <fprintf>
	
} /* PrintBussensors */
    5bce:	8d b7       	in	r24, 0x3d	; 61
    5bd0:	9e b7       	in	r25, 0x3e	; 62
    5bd2:	0c 96       	adiw	r24, 0x0c	; 12
    5bd4:	8d bf       	out	0x3d, r24	; 61
    5bd6:	9e bf       	out	0x3e, r25	; 62
    5bd8:	08 95       	ret

00005bda <InitSerial>:
	PMIC.CTRL = savePMIC & ~PMIC_LOLVLEN_bm;
	tx_fc_wridx = nextSlot;
	USARTF0.CTRLA = USART_RXCINTLVL_MED_gc | USART_TXCINTLVL_OFF_gc | USART_DREINTLVL_LO_gc;
	PMIC.CTRL = savePMIC;

} /* WriteByte_FC */
    5bda:	cf 93       	push	r28
    5bdc:	df 93       	push	r29
    5bde:	f8 94       	cli
    5be0:	10 92 a4 08 	sts	0x08A4, r1	; 0x8008a4 <__TEXT_REGION_LENGTH__+0x7008a4>
    5be4:	10 92 b4 08 	sts	0x08B4, r1	; 0x8008b4 <__TEXT_REGION_LENGTH__+0x7008b4>
    5be8:	20 ea       	ldi	r18, 0xA0	; 160
    5bea:	39 e0       	ldi	r19, 0x09	; 9
    5bec:	d9 01       	movw	r26, r18
    5bee:	14 96       	adiw	r26, 0x04	; 4
    5bf0:	1c 92       	st	X, r1
    5bf2:	c0 eb       	ldi	r28, 0xB0	; 176
    5bf4:	d9 e0       	ldi	r29, 0x09	; 9
    5bf6:	1c 82       	std	Y+4, r1	; 0x04
    5bf8:	10 92 a4 0a 	sts	0x0AA4, r1	; 0x800aa4 <__TEXT_REGION_LENGTH__+0x700aa4>
    5bfc:	10 92 b4 0a 	sts	0x0AB4, r1	; 0x800ab4 <__TEXT_REGION_LENGTH__+0x700ab4>
    5c00:	60 ea       	ldi	r22, 0xA0	; 160
    5c02:	7b e0       	ldi	r23, 0x0B	; 11
    5c04:	fb 01       	movw	r30, r22
    5c06:	14 82       	std	Z+4, r1	; 0x04
    5c08:	e0 e6       	ldi	r30, 0x60	; 96
    5c0a:	f6 e0       	ldi	r31, 0x06	; 6
    5c0c:	88 e1       	ldi	r24, 0x18	; 24
    5c0e:	82 8b       	std	Z+18, r24	; 0x12
    5c10:	86 8b       	std	Z+22, r24	; 0x16
    5c12:	40 ea       	ldi	r20, 0xA0	; 160
    5c14:	56 e0       	ldi	r21, 0x06	; 6
    5c16:	da 01       	movw	r26, r20
    5c18:	52 96       	adiw	r26, 0x12	; 18
    5c1a:	8c 93       	st	X, r24
    5c1c:	52 97       	sbiw	r26, 0x12	; 18
    5c1e:	98 e8       	ldi	r25, 0x88	; 136
    5c20:	95 83       	std	Z+5, r25	; 0x05
    5c22:	92 e0       	ldi	r25, 0x02	; 2
    5c24:	96 83       	std	Z+6, r25	; 0x06
    5c26:	9a e8       	ldi	r25, 0x8A	; 138
    5c28:	91 83       	std	Z+1, r25	; 0x01
    5c2a:	94 e4       	ldi	r25, 0x44	; 68
    5c2c:	92 83       	std	Z+2, r25	; 0x02
    5c2e:	98 e0       	ldi	r25, 0x08	; 8
    5c30:	15 96       	adiw	r26, 0x05	; 5
    5c32:	9c 93       	st	X, r25
    5c34:	15 97       	sbiw	r26, 0x05	; 5
    5c36:	11 96       	adiw	r26, 0x01	; 1
    5c38:	9c 93       	st	X, r25
    5c3a:	11 97       	sbiw	r26, 0x01	; 1
    5c3c:	94 e0       	ldi	r25, 0x04	; 4
    5c3e:	12 96       	adiw	r26, 0x02	; 2
    5c40:	9c 93       	st	X, r25
    5c42:	90 e1       	ldi	r25, 0x10	; 16
    5c44:	90 8b       	std	Z+16, r25	; 0x10
    5c46:	94 8b       	std	Z+20, r25	; 0x14
    5c48:	95 8b       	std	Z+21, r25	; 0x15
    5c4a:	45 ef       	ldi	r20, 0xF5	; 245
    5c4c:	f9 01       	movw	r30, r18
    5c4e:	46 83       	std	Z+6, r20	; 0x06
    5c50:	90 eb       	ldi	r25, 0xB0	; 176
    5c52:	97 83       	std	Z+7, r25	; 0x07
    5c54:	4e 83       	std	Y+6, r20	; 0x06
    5c56:	9f 83       	std	Y+7, r25	; 0x07
    5c58:	9c e0       	ldi	r25, 0x0C	; 12
    5c5a:	db 01       	movw	r26, r22
    5c5c:	16 96       	adiw	r26, 0x06	; 6
    5c5e:	9c 93       	st	X, r25
    5c60:	16 97       	sbiw	r26, 0x06	; 6
    5c62:	92 eb       	ldi	r25, 0xB2	; 178
    5c64:	17 96       	adiw	r26, 0x07	; 7
    5c66:	9c 93       	st	X, r25
    5c68:	17 97       	sbiw	r26, 0x07	; 7
    5c6a:	84 83       	std	Z+4, r24	; 0x04
    5c6c:	8c 83       	std	Y+4, r24	; 0x04
    5c6e:	14 96       	adiw	r26, 0x04	; 4
    5c70:	8c 93       	st	X, r24
    5c72:	14 97       	sbiw	r26, 0x04	; 4
    5c74:	80 e2       	ldi	r24, 0x20	; 32
    5c76:	83 83       	std	Z+3, r24	; 0x03
    5c78:	8b 83       	std	Y+3, r24	; 0x03
    5c7a:	13 96       	adiw	r26, 0x03	; 3
    5c7c:	8c 93       	st	X, r24
    5c7e:	e0 ea       	ldi	r30, 0xA0	; 160
    5c80:	f0 e0       	ldi	r31, 0x00	; 0
    5c82:	82 81       	ldd	r24, Z+2	; 0x02
    5c84:	83 60       	ori	r24, 0x03	; 3
    5c86:	82 83       	std	Z+2, r24	; 0x02
    5c88:	df 91       	pop	r29
    5c8a:	cf 91       	pop	r28
    5c8c:	08 95       	ret

00005c8e <CanRead_Comm485>:
    5c8e:	80 91 cf 2d 	lds	r24, 0x2DCF	; 0x802dcf <rx_485_wridx>
    5c92:	90 91 ce 2d 	lds	r25, 0x2DCE	; 0x802dce <rx_485_rdidx>
    5c96:	89 17       	cp	r24, r25
    5c98:	10 f0       	brcs	.+4      	; 0x5c9e <CanRead_Comm485+0x10>
    5c9a:	89 1b       	sub	r24, r25
    5c9c:	08 95       	ret
    5c9e:	8c 54       	subi	r24, 0x4C	; 76
    5ca0:	89 1b       	sub	r24, r25
    5ca2:	08 95       	ret

00005ca4 <ReadByte_Comm485>:
    5ca4:	cf 93       	push	r28
    5ca6:	c0 91 ce 2d 	lds	r28, 0x2DCE	; 0x802dce <rx_485_rdidx>
    5caa:	0e 94 47 2e 	call	0x5c8e	; 0x5c8e <CanRead_Comm485>
    5cae:	88 23       	and	r24, r24
    5cb0:	e1 f3       	breq	.-8      	; 0x5caa <ReadByte_Comm485+0x6>
    5cb2:	ec 2f       	mov	r30, r28
    5cb4:	f0 e0       	ldi	r31, 0x00	; 0
    5cb6:	e6 5e       	subi	r30, 0xE6	; 230
    5cb8:	f2 4d       	sbci	r31, 0xD2	; 210
    5cba:	80 81       	ld	r24, Z
    5cbc:	91 e0       	ldi	r25, 0x01	; 1
    5cbe:	9c 0f       	add	r25, r28
    5cc0:	94 3b       	cpi	r25, 0xB4	; 180
    5cc2:	08 f0       	brcs	.+2      	; 0x5cc6 <ReadByte_Comm485+0x22>
    5cc4:	90 e0       	ldi	r25, 0x00	; 0
    5cc6:	90 93 ce 2d 	sts	0x2DCE, r25	; 0x802dce <rx_485_rdidx>
    5cca:	cf 91       	pop	r28
    5ccc:	08 95       	ret

00005cce <CanWrite_Comm485>:
    5cce:	20 91 86 2e 	lds	r18, 0x2E86	; 0x802e86 <tx_485_wridx>
    5cd2:	91 e0       	ldi	r25, 0x01	; 1
    5cd4:	92 0f       	add	r25, r18
    5cd6:	80 91 85 2e 	lds	r24, 0x2E85	; 0x802e85 <tx_485_rdidx>
    5cda:	94 3b       	cpi	r25, 0xB4	; 180
    5cdc:	10 f0       	brcs	.+4      	; 0x5ce2 <CanWrite_Comm485+0x14>
    5cde:	9d e4       	ldi	r25, 0x4D	; 77
    5ce0:	92 0f       	add	r25, r18
    5ce2:	89 17       	cp	r24, r25
    5ce4:	10 f0       	brcs	.+4      	; 0x5cea <CanWrite_Comm485+0x1c>
    5ce6:	89 1b       	sub	r24, r25
    5ce8:	08 95       	ret
    5cea:	8c 54       	subi	r24, 0x4C	; 76
    5cec:	89 1b       	sub	r24, r25
    5cee:	08 95       	ret

00005cf0 <WriteByte_Comm485>:
    5cf0:	0f 93       	push	r16
    5cf2:	1f 93       	push	r17
    5cf4:	cf 93       	push	r28
    5cf6:	df 93       	push	r29
    5cf8:	d8 2f       	mov	r29, r24
    5cfa:	00 ea       	ldi	r16, 0xA0	; 160
    5cfc:	19 e0       	ldi	r17, 0x09	; 9
    5cfe:	c1 e2       	ldi	r28, 0x21	; 33
    5d00:	02 c0       	rjmp	.+4      	; 0x5d06 <WriteByte_Comm485+0x16>
    5d02:	f8 01       	movw	r30, r16
    5d04:	c3 83       	std	Z+3, r28	; 0x03
    5d06:	0e 94 67 2e 	call	0x5cce	; 0x5cce <CanWrite_Comm485>
    5d0a:	88 23       	and	r24, r24
    5d0c:	d1 f3       	breq	.-12     	; 0x5d02 <WriteByte_Comm485+0x12>
    5d0e:	c0 91 86 2e 	lds	r28, 0x2E86	; 0x802e86 <tx_485_wridx>
    5d12:	ec 2f       	mov	r30, r28
    5d14:	f0 e0       	ldi	r31, 0x00	; 0
    5d16:	ef 52       	subi	r30, 0x2F	; 47
    5d18:	f2 4d       	sbci	r31, 0xD2	; 210
    5d1a:	d0 83       	st	Z, r29
    5d1c:	cf 5f       	subi	r28, 0xFF	; 255
    5d1e:	c4 3b       	cpi	r28, 0xB4	; 180
    5d20:	08 f0       	brcs	.+2      	; 0x5d24 <WriteByte_Comm485+0x34>
    5d22:	c0 e0       	ldi	r28, 0x00	; 0
    5d24:	e0 ea       	ldi	r30, 0xA0	; 160
    5d26:	f0 e0       	ldi	r31, 0x00	; 0
    5d28:	12 81       	ldd	r17, Z+2	; 0x02
    5d2a:	81 2f       	mov	r24, r17
    5d2c:	8e 7f       	andi	r24, 0xFE	; 254
    5d2e:	82 83       	std	Z+2, r24	; 0x02
    5d30:	80 91 d0 2d 	lds	r24, 0x2DD0	; 0x802dd0 <tx_485_busy>
    5d34:	88 23       	and	r24, r24
    5d36:	29 f0       	breq	.+10     	; 0x5d42 <WriteByte_Comm485+0x52>
    5d38:	c0 93 86 2e 	sts	0x2E86, r28	; 0x802e86 <tx_485_wridx>
    5d3c:	10 93 a2 00 	sts	0x00A2, r17	; 0x8000a2 <__TEXT_REGION_LENGTH__+0x7000a2>
    5d40:	16 c0       	rjmp	.+44     	; 0x5d6e <WriteByte_Comm485+0x7e>
    5d42:	82 e0       	ldi	r24, 0x02	; 2
    5d44:	80 93 65 06 	sts	0x0665, r24	; 0x800665 <__TEXT_REGION_LENGTH__+0x700665>
    5d48:	0e 94 80 30 	call	0x6100	; 0x6100 <GetTicks>
    5d4c:	21 e0       	ldi	r18, 0x01	; 1
    5d4e:	20 93 d0 2d 	sts	0x2DD0, r18	; 0x802dd0 <tx_485_busy>
    5d52:	c0 93 86 2e 	sts	0x2E86, r28	; 0x802e86 <tx_485_wridx>
    5d56:	c0 ea       	ldi	r28, 0xA0	; 160
    5d58:	d9 e0       	ldi	r29, 0x09	; 9
    5d5a:	20 e2       	ldi	r18, 0x20	; 32
    5d5c:	2b 83       	std	Y+3, r18	; 0x03
    5d5e:	10 93 a2 00 	sts	0x00A2, r17	; 0x8000a2 <__TEXT_REGION_LENGTH__+0x7000a2>
    5d62:	63 e0       	ldi	r22, 0x03	; 3
    5d64:	70 e0       	ldi	r23, 0x00	; 0
    5d66:	0e 94 85 30 	call	0x610a	; 0x610a <BusyWaitTillAfter>
    5d6a:	81 e2       	ldi	r24, 0x21	; 33
    5d6c:	8b 83       	std	Y+3, r24	; 0x03
    5d6e:	df 91       	pop	r29
    5d70:	cf 91       	pop	r28
    5d72:	1f 91       	pop	r17
    5d74:	0f 91       	pop	r16
    5d76:	08 95       	ret

00005d78 <CanRead_Ctrl>:
    5d78:	80 91 1d 2c 	lds	r24, 0x2C1D	; 0x802c1d <rx_ctrl_wridx>
    5d7c:	90 91 1c 2c 	lds	r25, 0x2C1C	; 0x802c1c <rx_ctrl_rdidx>
    5d80:	89 17       	cp	r24, r25
    5d82:	10 f0       	brcs	.+4      	; 0x5d88 <CanRead_Ctrl+0x10>
    5d84:	89 1b       	sub	r24, r25
    5d86:	08 95       	ret
    5d88:	80 5b       	subi	r24, 0xB0	; 176
    5d8a:	89 1b       	sub	r24, r25
    5d8c:	08 95       	ret

00005d8e <ReadByte_Ctrl>:
    5d8e:	cf 93       	push	r28
    5d90:	c0 91 1c 2c 	lds	r28, 0x2C1C	; 0x802c1c <rx_ctrl_rdidx>
    5d94:	0e 94 bc 2e 	call	0x5d78	; 0x5d78 <CanRead_Ctrl>
    5d98:	88 23       	and	r24, r24
    5d9a:	e1 f3       	breq	.-8      	; 0x5d94 <ReadByte_Ctrl+0x6>
    5d9c:	ec 2f       	mov	r30, r28
    5d9e:	f0 e0       	ldi	r31, 0x00	; 0
    5da0:	e4 53       	subi	r30, 0x34	; 52
    5da2:	f4 4d       	sbci	r31, 0xD4	; 212
    5da4:	80 81       	ld	r24, Z
    5da6:	91 e0       	ldi	r25, 0x01	; 1
    5da8:	9c 0f       	add	r25, r28
    5daa:	90 35       	cpi	r25, 0x50	; 80
    5dac:	08 f0       	brcs	.+2      	; 0x5db0 <ReadByte_Ctrl+0x22>
    5dae:	90 e0       	ldi	r25, 0x00	; 0
    5db0:	90 93 1c 2c 	sts	0x2C1C, r25	; 0x802c1c <rx_ctrl_rdidx>
    5db4:	cf 91       	pop	r28
    5db6:	08 95       	ret

00005db8 <CanWrite_Ctrl>:
    5db8:	20 91 19 2d 	lds	r18, 0x2D19	; 0x802d19 <tx_ctrl_wridx>
    5dbc:	91 e0       	ldi	r25, 0x01	; 1
    5dbe:	92 0f       	add	r25, r18
    5dc0:	80 91 18 2d 	lds	r24, 0x2D18	; 0x802d18 <tx_ctrl_rdidx>
    5dc4:	9a 3f       	cpi	r25, 0xFA	; 250
    5dc6:	10 f0       	brcs	.+4      	; 0x5dcc <CanWrite_Ctrl+0x14>
    5dc8:	97 e0       	ldi	r25, 0x07	; 7
    5dca:	92 0f       	add	r25, r18
    5dcc:	89 17       	cp	r24, r25
    5dce:	10 f0       	brcs	.+4      	; 0x5dd4 <CanWrite_Ctrl+0x1c>
    5dd0:	89 1b       	sub	r24, r25
    5dd2:	08 95       	ret
    5dd4:	86 50       	subi	r24, 0x06	; 6
    5dd6:	89 1b       	sub	r24, r25
    5dd8:	08 95       	ret

00005dda <WriteByte_Ctrl>:
    5dda:	0f 93       	push	r16
    5ddc:	1f 93       	push	r17
    5dde:	cf 93       	push	r28
    5de0:	df 93       	push	r29
    5de2:	d8 2f       	mov	r29, r24
    5de4:	00 eb       	ldi	r16, 0xB0	; 176
    5de6:	19 e0       	ldi	r17, 0x09	; 9
    5de8:	c1 e2       	ldi	r28, 0x21	; 33
    5dea:	02 c0       	rjmp	.+4      	; 0x5df0 <WriteByte_Ctrl+0x16>
    5dec:	f8 01       	movw	r30, r16
    5dee:	c3 83       	std	Z+3, r28	; 0x03
    5df0:	0e 94 dc 2e 	call	0x5db8	; 0x5db8 <CanWrite_Ctrl>
    5df4:	88 23       	and	r24, r24
    5df6:	d1 f3       	breq	.-12     	; 0x5dec <WriteByte_Ctrl+0x12>
    5df8:	80 91 19 2d 	lds	r24, 0x2D19	; 0x802d19 <tx_ctrl_wridx>
    5dfc:	e8 2f       	mov	r30, r24
    5dfe:	f0 e0       	ldi	r31, 0x00	; 0
    5e00:	e2 5e       	subi	r30, 0xE2	; 226
    5e02:	f3 4d       	sbci	r31, 0xD3	; 211
    5e04:	d0 83       	st	Z, r29
    5e06:	8f 5f       	subi	r24, 0xFF	; 255
    5e08:	8a 3f       	cpi	r24, 0xFA	; 250
    5e0a:	08 f0       	brcs	.+2      	; 0x5e0e <WriteByte_Ctrl+0x34>
    5e0c:	80 e0       	ldi	r24, 0x00	; 0
    5e0e:	e0 ea       	ldi	r30, 0xA0	; 160
    5e10:	f0 e0       	ldi	r31, 0x00	; 0
    5e12:	92 81       	ldd	r25, Z+2	; 0x02
    5e14:	29 2f       	mov	r18, r25
    5e16:	2e 7f       	andi	r18, 0xFE	; 254
    5e18:	22 83       	std	Z+2, r18	; 0x02
    5e1a:	80 93 19 2d 	sts	0x2D19, r24	; 0x802d19 <tx_ctrl_wridx>
    5e1e:	81 e2       	ldi	r24, 0x21	; 33
    5e20:	80 93 b3 09 	sts	0x09B3, r24	; 0x8009b3 <__TEXT_REGION_LENGTH__+0x7009b3>
    5e24:	92 83       	std	Z+2, r25	; 0x02
    5e26:	df 91       	pop	r29
    5e28:	cf 91       	pop	r28
    5e2a:	1f 91       	pop	r17
    5e2c:	0f 91       	pop	r16
    5e2e:	08 95       	ret

00005e30 <Ctrl_putchar>:
    5e30:	cf 93       	push	r28
    5e32:	c8 2f       	mov	r28, r24
    5e34:	0e 94 ed 2e 	call	0x5dda	; 0x5dda <WriteByte_Ctrl>
    5e38:	ce 33       	cpi	r28, 0x3E	; 62
    5e3a:	19 f4       	brne	.+6      	; 0x5e42 <Ctrl_putchar+0x12>
    5e3c:	10 92 ff 2a 	sts	0x2AFF, r1	; 0x802aff <checksum.4265>
    5e40:	23 c0       	rjmp	.+70     	; 0x5e88 <Ctrl_putchar+0x58>
    5e42:	cc 33       	cpi	r28, 0x3C	; 60
    5e44:	e1 f4       	brne	.+56     	; 0x5e7e <Ctrl_putchar+0x4e>
    5e46:	c0 91 ff 2a 	lds	r28, 0x2AFF	; 0x802aff <checksum.4265>
    5e4a:	8c 2f       	mov	r24, r28
    5e4c:	82 95       	swap	r24
    5e4e:	8f 70       	andi	r24, 0x0F	; 15
    5e50:	28 2f       	mov	r18, r24
    5e52:	30 e0       	ldi	r19, 0x00	; 0
    5e54:	2a 30       	cpi	r18, 0x0A	; 10
    5e56:	31 05       	cpc	r19, r1
    5e58:	14 f4       	brge	.+4      	; 0x5e5e <Ctrl_putchar+0x2e>
    5e5a:	80 5d       	subi	r24, 0xD0	; 208
    5e5c:	01 c0       	rjmp	.+2      	; 0x5e60 <Ctrl_putchar+0x30>
    5e5e:	89 5c       	subi	r24, 0xC9	; 201
    5e60:	0e 94 ed 2e 	call	0x5dda	; 0x5dda <WriteByte_Ctrl>
    5e64:	cf 70       	andi	r28, 0x0F	; 15
    5e66:	8c 2f       	mov	r24, r28
    5e68:	90 e0       	ldi	r25, 0x00	; 0
    5e6a:	0a 97       	sbiw	r24, 0x0a	; 10
    5e6c:	1c f4       	brge	.+6      	; 0x5e74 <Ctrl_putchar+0x44>
    5e6e:	80 e3       	ldi	r24, 0x30	; 48
    5e70:	8c 0f       	add	r24, r28
    5e72:	02 c0       	rjmp	.+4      	; 0x5e78 <Ctrl_putchar+0x48>
    5e74:	87 e3       	ldi	r24, 0x37	; 55
    5e76:	8c 0f       	add	r24, r28
    5e78:	0e 94 ed 2e 	call	0x5dda	; 0x5dda <WriteByte_Ctrl>
    5e7c:	05 c0       	rjmp	.+10     	; 0x5e88 <Ctrl_putchar+0x58>
    5e7e:	80 91 ff 2a 	lds	r24, 0x2AFF	; 0x802aff <checksum.4265>
    5e82:	c8 27       	eor	r28, r24
    5e84:	c0 93 ff 2a 	sts	0x2AFF, r28	; 0x802aff <checksum.4265>
    5e88:	80 e0       	ldi	r24, 0x00	; 0
    5e8a:	90 e0       	ldi	r25, 0x00	; 0
    5e8c:	cf 91       	pop	r28
    5e8e:	08 95       	ret

00005e90 <__vector_88>:


ISR(USARTD0_RXC_vect) {
    5e90:	1f 92       	push	r1
    5e92:	0f 92       	push	r0
    5e94:	0f b6       	in	r0, 0x3f	; 63
    5e96:	0f 92       	push	r0
    5e98:	11 24       	eor	r1, r1
    5e9a:	0b b6       	in	r0, 0x3b	; 59
    5e9c:	0f 92       	push	r0
    5e9e:	8f 93       	push	r24
    5ea0:	9f 93       	push	r25
    5ea2:	ef 93       	push	r30
    5ea4:	ff 93       	push	r31
	
	uint8_t curSlot, nextSlot;
	
	curSlot = rx_485_wridx;
    5ea6:	80 91 cf 2d 	lds	r24, 0x2DCF	; 0x802dcf <rx_485_wridx>
	rx_485_buf[curSlot] = USARTD0.DATA;
    5eaa:	e8 2f       	mov	r30, r24
    5eac:	f0 e0       	ldi	r31, 0x00	; 0
    5eae:	90 91 a0 09 	lds	r25, 0x09A0	; 0x8009a0 <__TEXT_REGION_LENGTH__+0x7009a0>
    5eb2:	e6 5e       	subi	r30, 0xE6	; 230
    5eb4:	f2 4d       	sbci	r31, 0xD2	; 210
    5eb6:	90 83       	st	Z, r25
	
	nextSlot = curSlot + 1;
    5eb8:	8f 5f       	subi	r24, 0xFF	; 255
	if(nextSlot >= RXBUF_DEPTH_COMM485)
    5eba:	84 3b       	cpi	r24, 0xB4	; 180
    5ebc:	08 f0       	brcs	.+2      	; 0x5ec0 <__vector_88+0x30>
	nextSlot = 0;
    5ebe:	80 e0       	ldi	r24, 0x00	; 0
	
	if(nextSlot != rx_485_rdidx)
    5ec0:	90 91 ce 2d 	lds	r25, 0x2DCE	; 0x802dce <rx_485_rdidx>
    5ec4:	89 13       	cpse	r24, r25
	rx_485_wridx = nextSlot;
    5ec6:	80 93 cf 2d 	sts	0x2DCF, r24	; 0x802dcf <rx_485_wridx>
	
} /* ISR(USARTD0_RXC_vect) */
    5eca:	ff 91       	pop	r31
    5ecc:	ef 91       	pop	r30
    5ece:	9f 91       	pop	r25
    5ed0:	8f 91       	pop	r24
    5ed2:	0f 90       	pop	r0
    5ed4:	0b be       	out	0x3b, r0	; 59
    5ed6:	0f 90       	pop	r0
    5ed8:	0f be       	out	0x3f, r0	; 63
    5eda:	0f 90       	pop	r0
    5edc:	1f 90       	pop	r1
    5ede:	18 95       	reti

00005ee0 <__vector_89>:


ISR(USARTD0_DRE_vect) {
    5ee0:	1f 92       	push	r1
    5ee2:	0f 92       	push	r0
    5ee4:	0f b6       	in	r0, 0x3f	; 63
    5ee6:	0f 92       	push	r0
    5ee8:	11 24       	eor	r1, r1
    5eea:	0b b6       	in	r0, 0x3b	; 59
    5eec:	0f 92       	push	r0
    5eee:	2f 93       	push	r18
    5ef0:	8f 93       	push	r24
    5ef2:	9f 93       	push	r25
    5ef4:	ef 93       	push	r30
    5ef6:	ff 93       	push	r31
	
	uint8_t curSlot, nextSlot, lastSlot;
	
	nextSlot = curSlot = tx_485_rdidx;
    5ef8:	80 91 85 2e 	lds	r24, 0x2E85	; 0x802e85 <tx_485_rdidx>
	lastSlot = tx_485_wridx;
    5efc:	90 91 86 2e 	lds	r25, 0x2E86	; 0x802e86 <tx_485_wridx>
	
	if(curSlot != lastSlot) {
    5f00:	89 17       	cp	r24, r25
    5f02:	69 f0       	breq	.+26     	; 0x5f1e <__vector_89+0x3e>
		USARTD0.DATA = tx_485_buf[curSlot];
    5f04:	e8 2f       	mov	r30, r24
    5f06:	f0 e0       	ldi	r31, 0x00	; 0
    5f08:	ef 52       	subi	r30, 0x2F	; 47
    5f0a:	f2 4d       	sbci	r31, 0xD2	; 210
    5f0c:	20 81       	ld	r18, Z
    5f0e:	20 93 a0 09 	sts	0x09A0, r18	; 0x8009a0 <__TEXT_REGION_LENGTH__+0x7009a0>
		if(++nextSlot >= TXBUF_DEPTH_COMM485)
    5f12:	8f 5f       	subi	r24, 0xFF	; 255
    5f14:	84 3b       	cpi	r24, 0xB4	; 180
    5f16:	08 f0       	brcs	.+2      	; 0x5f1a <__vector_89+0x3a>
		nextSlot = 0;
    5f18:	80 e0       	ldi	r24, 0x00	; 0
	}
	if(nextSlot == lastSlot)
    5f1a:	89 13       	cpse	r24, r25
    5f1c:	04 c0       	rjmp	.+8      	; 0x5f26 <__vector_89+0x46>
	USARTD0.CTRLA = USART_RXCINTLVL_MED_gc | USART_TXCINTLVL_LO_gc | USART_DREINTLVL_OFF_gc;
    5f1e:	84 e2       	ldi	r24, 0x24	; 36
    5f20:	80 93 a3 09 	sts	0x09A3, r24	; 0x8009a3 <__TEXT_REGION_LENGTH__+0x7009a3>
    5f24:	89 2f       	mov	r24, r25
	
	tx_485_rdidx = nextSlot;
    5f26:	80 93 85 2e 	sts	0x2E85, r24	; 0x802e85 <tx_485_rdidx>
	
} /* ISR(USARTD0_DRE_vect) */
    5f2a:	ff 91       	pop	r31
    5f2c:	ef 91       	pop	r30
    5f2e:	9f 91       	pop	r25
    5f30:	8f 91       	pop	r24
    5f32:	2f 91       	pop	r18
    5f34:	0f 90       	pop	r0
    5f36:	0b be       	out	0x3b, r0	; 59
    5f38:	0f 90       	pop	r0
    5f3a:	0f be       	out	0x3f, r0	; 63
    5f3c:	0f 90       	pop	r0
    5f3e:	1f 90       	pop	r1
    5f40:	18 95       	reti

00005f42 <__vector_90>:


ISR(USARTD0_TXC_vect) {
    5f42:	1f 92       	push	r1
    5f44:	0f 92       	push	r0
    5f46:	0f b6       	in	r0, 0x3f	; 63
    5f48:	0f 92       	push	r0
    5f4a:	11 24       	eor	r1, r1
    5f4c:	8f 93       	push	r24
    5f4e:	9f 93       	push	r25
	
	if(tx_485_rdidx == tx_485_wridx) {/* Still no bytes to tx ? */
    5f50:	90 91 85 2e 	lds	r25, 0x2E85	; 0x802e85 <tx_485_rdidx>
    5f54:	80 91 86 2e 	lds	r24, 0x2E86	; 0x802e86 <tx_485_wridx>
    5f58:	98 13       	cpse	r25, r24
    5f5a:	06 c0       	rjmp	.+12     	; 0x5f68 <__vector_90+0x26>
		PORTD.OUTCLR = PD_DRIVER_ENABLE_COMM485; /* Transmission complete; we can turn off the driver enable line */
    5f5c:	82 e0       	ldi	r24, 0x02	; 2
    5f5e:	80 93 66 06 	sts	0x0666, r24	; 0x800666 <__TEXT_REGION_LENGTH__+0x700666>
		tx_485_busy = 0;
    5f62:	10 92 d0 2d 	sts	0x2DD0, r1	; 0x802dd0 <tx_485_busy>
    5f66:	03 c0       	rjmp	.+6      	; 0x5f6e <__vector_90+0x2c>
	}	
	else /* Re-enable TX ISR */
		USARTD0.CTRLA = USART_RXCINTLVL_MED_gc | USART_TXCINTLVL_OFF_gc | USART_DREINTLVL_LO_gc;
    5f68:	81 e2       	ldi	r24, 0x21	; 33
    5f6a:	80 93 a3 09 	sts	0x09A3, r24	; 0x8009a3 <__TEXT_REGION_LENGTH__+0x7009a3>
	
} /* ISR(USARTD0_TXC_vect) */
    5f6e:	9f 91       	pop	r25
    5f70:	8f 91       	pop	r24
    5f72:	0f 90       	pop	r0
    5f74:	0f be       	out	0x3f, r0	; 63
    5f76:	0f 90       	pop	r0
    5f78:	1f 90       	pop	r1
    5f7a:	18 95       	reti

00005f7c <__vector_91>:


ISR(USARTD1_RXC_vect) {
    5f7c:	1f 92       	push	r1
    5f7e:	0f 92       	push	r0
    5f80:	0f b6       	in	r0, 0x3f	; 63
    5f82:	0f 92       	push	r0
    5f84:	11 24       	eor	r1, r1
    5f86:	0b b6       	in	r0, 0x3b	; 59
    5f88:	0f 92       	push	r0
    5f8a:	8f 93       	push	r24
    5f8c:	9f 93       	push	r25
    5f8e:	ef 93       	push	r30
    5f90:	ff 93       	push	r31
	
	uint8_t curSlot, nextSlot;
	
	curSlot = rx_ctrl_wridx;
    5f92:	80 91 1d 2c 	lds	r24, 0x2C1D	; 0x802c1d <rx_ctrl_wridx>
	rx_ctrl_buf[curSlot] = USARTD1.DATA;
    5f96:	e8 2f       	mov	r30, r24
    5f98:	f0 e0       	ldi	r31, 0x00	; 0
    5f9a:	90 91 b0 09 	lds	r25, 0x09B0	; 0x8009b0 <__TEXT_REGION_LENGTH__+0x7009b0>
    5f9e:	e4 53       	subi	r30, 0x34	; 52
    5fa0:	f4 4d       	sbci	r31, 0xD4	; 212
    5fa2:	90 83       	st	Z, r25
	
	nextSlot = curSlot + 1;
    5fa4:	8f 5f       	subi	r24, 0xFF	; 255
	if(nextSlot >= RXBUF_DEPTH_CTRL)
    5fa6:	80 35       	cpi	r24, 0x50	; 80
    5fa8:	08 f0       	brcs	.+2      	; 0x5fac <__vector_91+0x30>
		nextSlot = 0;
    5faa:	80 e0       	ldi	r24, 0x00	; 0
		
	if(nextSlot != rx_ctrl_rdidx)
    5fac:	90 91 1c 2c 	lds	r25, 0x2C1C	; 0x802c1c <rx_ctrl_rdidx>
    5fb0:	89 13       	cpse	r24, r25
		rx_ctrl_wridx = nextSlot;
    5fb2:	80 93 1d 2c 	sts	0x2C1D, r24	; 0x802c1d <rx_ctrl_wridx>
	
} /* ISR(USARTD1_RXC_vect) */
    5fb6:	ff 91       	pop	r31
    5fb8:	ef 91       	pop	r30
    5fba:	9f 91       	pop	r25
    5fbc:	8f 91       	pop	r24
    5fbe:	0f 90       	pop	r0
    5fc0:	0b be       	out	0x3b, r0	; 59
    5fc2:	0f 90       	pop	r0
    5fc4:	0f be       	out	0x3f, r0	; 63
    5fc6:	0f 90       	pop	r0
    5fc8:	1f 90       	pop	r1
    5fca:	18 95       	reti

00005fcc <__vector_92>:


ISR(USARTD1_DRE_vect) {
    5fcc:	1f 92       	push	r1
    5fce:	0f 92       	push	r0
    5fd0:	0f b6       	in	r0, 0x3f	; 63
    5fd2:	0f 92       	push	r0
    5fd4:	11 24       	eor	r1, r1
    5fd6:	0b b6       	in	r0, 0x3b	; 59
    5fd8:	0f 92       	push	r0
    5fda:	2f 93       	push	r18
    5fdc:	8f 93       	push	r24
    5fde:	9f 93       	push	r25
    5fe0:	ef 93       	push	r30
    5fe2:	ff 93       	push	r31
	
	uint8_t curSlot, nextSlot, lastSlot;
	
	nextSlot = curSlot = tx_ctrl_rdidx;
    5fe4:	80 91 18 2d 	lds	r24, 0x2D18	; 0x802d18 <tx_ctrl_rdidx>
	lastSlot = tx_ctrl_wridx;
    5fe8:	90 91 19 2d 	lds	r25, 0x2D19	; 0x802d19 <tx_ctrl_wridx>
	
	if(curSlot != lastSlot) {
    5fec:	89 17       	cp	r24, r25
    5fee:	69 f0       	breq	.+26     	; 0x600a <__stack+0xb>
		USARTD1.DATA = tx_ctrl_buf[curSlot];
    5ff0:	e8 2f       	mov	r30, r24
    5ff2:	f0 e0       	ldi	r31, 0x00	; 0
    5ff4:	e2 5e       	subi	r30, 0xE2	; 226
    5ff6:	f3 4d       	sbci	r31, 0xD3	; 211
    5ff8:	20 81       	ld	r18, Z
    5ffa:	20 93 b0 09 	sts	0x09B0, r18	; 0x8009b0 <__TEXT_REGION_LENGTH__+0x7009b0>
		nextSlot = curSlot + 1;
    5ffe:	8f 5f       	subi	r24, 0xFF	; 255
		if(nextSlot >= TXBUF_DEPTH_CTRL)
    6000:	8a 3f       	cpi	r24, 0xFA	; 250
    6002:	08 f0       	brcs	.+2      	; 0x6006 <__stack+0x7>
			nextSlot = 0;
    6004:	80 e0       	ldi	r24, 0x00	; 0
	}
	if(nextSlot == lastSlot)
    6006:	89 13       	cpse	r24, r25
    6008:	04 c0       	rjmp	.+8      	; 0x6012 <__stack+0x13>
		USARTD1.CTRLA = USART_RXCINTLVL_MED_gc | USART_TXCINTLVL_OFF_gc | USART_DREINTLVL_OFF_gc;
    600a:	80 e2       	ldi	r24, 0x20	; 32
    600c:	80 93 b3 09 	sts	0x09B3, r24	; 0x8009b3 <__TEXT_REGION_LENGTH__+0x7009b3>
    6010:	89 2f       	mov	r24, r25
	
	tx_ctrl_rdidx = nextSlot;
    6012:	80 93 18 2d 	sts	0x2D18, r24	; 0x802d18 <tx_ctrl_rdidx>
	
} /* ISR(USARTD1_DRE_vect) */
    6016:	ff 91       	pop	r31
    6018:	ef 91       	pop	r30
    601a:	9f 91       	pop	r25
    601c:	8f 91       	pop	r24
    601e:	2f 91       	pop	r18
    6020:	0f 90       	pop	r0
    6022:	0b be       	out	0x3b, r0	; 59
    6024:	0f 90       	pop	r0
    6026:	0f be       	out	0x3f, r0	; 63
    6028:	0f 90       	pop	r0
    602a:	1f 90       	pop	r1
    602c:	18 95       	reti

0000602e <__vector_119>:


ISR(USARTF0_RXC_vect) {
    602e:	1f 92       	push	r1
    6030:	0f 92       	push	r0
    6032:	0f b6       	in	r0, 0x3f	; 63
    6034:	0f 92       	push	r0
    6036:	11 24       	eor	r1, r1
    6038:	0b b6       	in	r0, 0x3b	; 59
    603a:	0f 92       	push	r0
    603c:	8f 93       	push	r24
    603e:	9f 93       	push	r25
    6040:	ef 93       	push	r30
    6042:	ff 93       	push	r31
	
	uint8_t curSlot, nextSlot;
	
	curSlot = rx_fc_wridx;
    6044:	80 91 65 2b 	lds	r24, 0x2B65	; 0x802b65 <rx_fc_wridx>
	rx_fc_buf[curSlot] = USARTF0.DATA;
    6048:	e8 2f       	mov	r30, r24
    604a:	f0 e0       	ldi	r31, 0x00	; 0
    604c:	90 91 a0 0b 	lds	r25, 0x0BA0	; 0x800ba0 <__TEXT_REGION_LENGTH__+0x700ba0>
    6050:	e0 50       	subi	r30, 0x00	; 0
    6052:	f5 4d       	sbci	r31, 0xD5	; 213
    6054:	90 83       	st	Z, r25
	
	nextSlot = curSlot + 1;
    6056:	8f 5f       	subi	r24, 0xFF	; 255
	if(nextSlot >= RXBUF_DEPTH_FC)
    6058:	84 36       	cpi	r24, 0x64	; 100
    605a:	08 f0       	brcs	.+2      	; 0x605e <__vector_119+0x30>
	nextSlot = 0;
    605c:	80 e0       	ldi	r24, 0x00	; 0
	
	if(nextSlot != rx_fc_rdidx)
    605e:	90 91 64 2b 	lds	r25, 0x2B64	; 0x802b64 <rx_fc_rdidx>
    6062:	89 13       	cpse	r24, r25
	rx_fc_wridx = nextSlot;
    6064:	80 93 65 2b 	sts	0x2B65, r24	; 0x802b65 <rx_fc_wridx>
	
} /* ISR(USARTF0_RXC_vect) */
    6068:	ff 91       	pop	r31
    606a:	ef 91       	pop	r30
    606c:	9f 91       	pop	r25
    606e:	8f 91       	pop	r24
    6070:	0f 90       	pop	r0
    6072:	0b be       	out	0x3b, r0	; 59
    6074:	0f 90       	pop	r0
    6076:	0f be       	out	0x3f, r0	; 63
    6078:	0f 90       	pop	r0
    607a:	1f 90       	pop	r1
    607c:	18 95       	reti

0000607e <__vector_120>:


ISR(USARTF0_DRE_vect) {
    607e:	1f 92       	push	r1
    6080:	0f 92       	push	r0
    6082:	0f b6       	in	r0, 0x3f	; 63
    6084:	0f 92       	push	r0
    6086:	11 24       	eor	r1, r1
    6088:	0b b6       	in	r0, 0x3b	; 59
    608a:	0f 92       	push	r0
    608c:	2f 93       	push	r18
    608e:	8f 93       	push	r24
    6090:	9f 93       	push	r25
    6092:	ef 93       	push	r30
    6094:	ff 93       	push	r31
	
	uint8_t curSlot, nextSlot, lastSlot;
	
	nextSlot = curSlot = tx_fc_rdidx;
    6096:	80 91 ca 2b 	lds	r24, 0x2BCA	; 0x802bca <tx_fc_rdidx>
	lastSlot = tx_fc_wridx;
    609a:	90 91 cb 2b 	lds	r25, 0x2BCB	; 0x802bcb <tx_fc_wridx>
	
	if(curSlot != lastSlot) {
    609e:	89 17       	cp	r24, r25
    60a0:	69 f0       	breq	.+26     	; 0x60bc <__vector_120+0x3e>
		USARTF0.DATA = tx_fc_buf[curSlot];
    60a2:	e8 2f       	mov	r30, r24
    60a4:	f0 e0       	ldi	r31, 0x00	; 0
    60a6:	ea 59       	subi	r30, 0x9A	; 154
    60a8:	f4 4d       	sbci	r31, 0xD4	; 212
    60aa:	20 81       	ld	r18, Z
    60ac:	20 93 a0 0b 	sts	0x0BA0, r18	; 0x800ba0 <__TEXT_REGION_LENGTH__+0x700ba0>
		nextSlot = curSlot + 1;
    60b0:	8f 5f       	subi	r24, 0xFF	; 255
		if(nextSlot >= TXBUF_DEPTH_FC)
    60b2:	84 36       	cpi	r24, 0x64	; 100
    60b4:	08 f0       	brcs	.+2      	; 0x60b8 <__vector_120+0x3a>
		nextSlot = 0;
    60b6:	80 e0       	ldi	r24, 0x00	; 0
	}
	if(nextSlot == lastSlot)
    60b8:	89 13       	cpse	r24, r25
    60ba:	04 c0       	rjmp	.+8      	; 0x60c4 <__vector_120+0x46>
	USARTF0.CTRLA = USART_RXCINTLVL_MED_gc | USART_TXCINTLVL_OFF_gc | USART_DREINTLVL_OFF_gc;
    60bc:	80 e2       	ldi	r24, 0x20	; 32
    60be:	80 93 a3 0b 	sts	0x0BA3, r24	; 0x800ba3 <__TEXT_REGION_LENGTH__+0x700ba3>
    60c2:	89 2f       	mov	r24, r25
	
	tx_fc_rdidx = nextSlot;
    60c4:	80 93 ca 2b 	sts	0x2BCA, r24	; 0x802bca <tx_fc_rdidx>
	
} /* ISR(USARTF0_DRE_vect) */
    60c8:	ff 91       	pop	r31
    60ca:	ef 91       	pop	r30
    60cc:	9f 91       	pop	r25
    60ce:	8f 91       	pop	r24
    60d0:	2f 91       	pop	r18
    60d2:	0f 90       	pop	r0
    60d4:	0b be       	out	0x3b, r0	; 59
    60d6:	0f 90       	pop	r0
    60d8:	0f be       	out	0x3f, r0	; 63
    60da:	0f 90       	pop	r0
    60dc:	1f 90       	pop	r1
    60de:	18 95       	reti

000060e0 <InitTimer>:
#include "Timers.h"


void InitTimer(void) {

	TCE0.CTRLA = TC_CLKSEL_DIV8_gc;
    60e0:	e0 e0       	ldi	r30, 0x00	; 0
    60e2:	fa e0       	ldi	r31, 0x0A	; 10
    60e4:	84 e0       	ldi	r24, 0x04	; 4
    60e6:	80 83       	st	Z, r24
	TCE0.CTRLB = 0x00; /* No input capture, normal mode */
    60e8:	11 82       	std	Z+1, r1	; 0x01
	/* CTRLC is of no interest to us */
	TCE0.CTRLD = TC_EVACT_OFF_gc | TC_EVSEL_OFF_gc; /* No events */
    60ea:	13 82       	std	Z+3, r1	; 0x03
	TCE0.CTRLE = 0x00; /* No byte mode */
    60ec:	14 82       	std	Z+4, r1	; 0x04
	TCE0.PER = TICKTIMER_PERIOD;
    60ee:	8f ef       	ldi	r24, 0xFF	; 255
    60f0:	9f ef       	ldi	r25, 0xFF	; 255
    60f2:	86 a3       	std	Z+38, r24	; 0x26
    60f4:	97 a3       	std	Z+39, r25	; 0x27
	TCE0.INTCTRLA = TC_ERRINTLVL_OFF_gc | TC_OVFINTLVL_OFF_gc; /* No interrupts (for now) */
    60f6:	16 82       	std	Z+6, r1	; 0x06
	TCE0.INTCTRLB = 0x00; /* Disable Compare/Capture interrupts */
    60f8:	17 82       	std	Z+7, r1	; 0x07
	TCE0.CNT = 0;
    60fa:	10 a2       	std	Z+32, r1	; 0x20
    60fc:	11 a2       	std	Z+33, r1	; 0x21
    60fe:	08 95       	ret

00006100 <GetTicks>:

} /* InitTimer */

timetick_t GetTicks(void) {
	return TCE0.CNT;
    6100:	80 91 20 0a 	lds	r24, 0x0A20	; 0x800a20 <__TEXT_REGION_LENGTH__+0x700a20>
    6104:	90 91 21 0a 	lds	r25, 0x0A21	; 0x800a21 <__TEXT_REGION_LENGTH__+0x700a21>
} /* GetTicks */
    6108:	08 95       	ret

0000610a <BusyWaitTillAfter>:


timetick_t BusyWaitTillAfter(timetick_t then, int usWait) {
    610a:	9c 01       	movw	r18, r24
	timetick_t tickWait = usWait * US_PER_TICK, delta, now;
    610c:	66 0f       	add	r22, r22
    610e:	77 1f       	adc	r23, r23
    6110:	66 0f       	add	r22, r22
    6112:	77 1f       	adc	r23, r23
	TCE0.CNT = 0;

} /* InitTimer */

timetick_t GetTicks(void) {
	return TCE0.CNT;
    6114:	e0 e0       	ldi	r30, 0x00	; 0
    6116:	fa e0       	ldi	r31, 0x0A	; 10
    6118:	80 a1       	ldd	r24, Z+32	; 0x20
    611a:	91 a1       	ldd	r25, Z+33	; 0x21
timetick_t BusyWaitTillAfter(timetick_t then, int usWait) {
	timetick_t tickWait = usWait * US_PER_TICK, delta, now;
	
	do {
		now = GetTicks();
		if(now < then) // Fix wraparound
    611c:	82 17       	cp	r24, r18
    611e:	93 07       	cpc	r25, r19
    6120:	08 f4       	brcc	.+2      	; 0x6124 <BusyWaitTillAfter+0x1a>
		now += TICKTIMER_PERIOD;
    6122:	01 97       	sbiw	r24, 0x01	; 1
		delta = now - then;
	} while(delta < tickWait);
    6124:	ac 01       	movw	r20, r24
    6126:	42 1b       	sub	r20, r18
    6128:	53 0b       	sbc	r21, r19
    612a:	46 17       	cp	r20, r22
    612c:	57 07       	cpc	r21, r23
    612e:	a0 f3       	brcs	.-24     	; 0x6118 <BusyWaitTillAfter+0xe>
	
	return now;
	
} /* BusyWaitTillAfter */
    6130:	08 95       	ret

00006132 <GetBusID>:

void FinishEEPROMOperations(void) {
	
	eeprom_busy_wait();
	
} /* FinishEEPROMOperations */
    6132:	80 91 68 06 	lds	r24, 0x0668	; 0x800668 <__TEXT_REGION_LENGTH__+0x700668>
    6136:	80 73       	andi	r24, 0x30	; 48
    6138:	80 31       	cpi	r24, 0x10	; 16
    613a:	29 f0       	breq	.+10     	; 0x6146 <GetBusID+0x14>
    613c:	80 32       	cpi	r24, 0x20	; 32
    613e:	29 f0       	breq	.+10     	; 0x614a <GetBusID+0x18>
    6140:	81 11       	cpse	r24, r1
    6142:	05 c0       	rjmp	.+10     	; 0x614e <GetBusID+0x1c>
    6144:	06 c0       	rjmp	.+12     	; 0x6152 <GetBusID+0x20>
    6146:	85 e0       	ldi	r24, 0x05	; 5
    6148:	08 95       	ret
    614a:	86 e0       	ldi	r24, 0x06	; 6
    614c:	08 95       	ret
    614e:	87 e0       	ldi	r24, 0x07	; 7
    6150:	08 95       	ret
    6152:	83 e0       	ldi	r24, 0x03	; 3
    6154:	08 95       	ret

00006156 <PrintBoardType>:
    6156:	9c 01       	movw	r18, r24
    6158:	90 91 68 06 	lds	r25, 0x0668	; 0x800668 <__TEXT_REGION_LENGTH__+0x700668>
    615c:	90 73       	andi	r25, 0x30	; 48
    615e:	90 31       	cpi	r25, 0x10	; 16
    6160:	91 f0       	breq	.+36     	; 0x6186 <PrintBoardType+0x30>
    6162:	18 f4       	brcc	.+6      	; 0x616a <PrintBoardType+0x14>
    6164:	99 23       	and	r25, r25
    6166:	31 f0       	breq	.+12     	; 0x6174 <PrintBoardType+0x1e>
    6168:	29 c0       	rjmp	.+82     	; 0x61bc <PrintBoardType+0x66>
    616a:	90 32       	cpi	r25, 0x20	; 32
    616c:	a9 f0       	breq	.+42     	; 0x6198 <PrintBoardType+0x42>
    616e:	90 33       	cpi	r25, 0x30	; 48
    6170:	e1 f0       	breq	.+56     	; 0x61aa <PrintBoardType+0x54>
    6172:	24 c0       	rjmp	.+72     	; 0x61bc <PrintBoardType+0x66>
    6174:	43 e0       	ldi	r20, 0x03	; 3
    6176:	50 e0       	ldi	r21, 0x00	; 0
    6178:	61 e0       	ldi	r22, 0x01	; 1
    617a:	70 e0       	ldi	r23, 0x00	; 0
    617c:	8b e5       	ldi	r24, 0x5B	; 91
    617e:	97 e2       	ldi	r25, 0x27	; 39
    6180:	0e 94 66 3d 	call	0x7acc	; 0x7acc <fwrite>
    6184:	08 95       	ret
    6186:	48 e0       	ldi	r20, 0x08	; 8
    6188:	50 e0       	ldi	r21, 0x00	; 0
    618a:	61 e0       	ldi	r22, 0x01	; 1
    618c:	70 e0       	ldi	r23, 0x00	; 0
    618e:	8f e5       	ldi	r24, 0x5F	; 95
    6190:	97 e2       	ldi	r25, 0x27	; 39
    6192:	0e 94 66 3d 	call	0x7acc	; 0x7acc <fwrite>
    6196:	08 95       	ret
    6198:	49 e0       	ldi	r20, 0x09	; 9
    619a:	50 e0       	ldi	r21, 0x00	; 0
    619c:	61 e0       	ldi	r22, 0x01	; 1
    619e:	70 e0       	ldi	r23, 0x00	; 0
    61a0:	88 e6       	ldi	r24, 0x68	; 104
    61a2:	97 e2       	ldi	r25, 0x27	; 39
    61a4:	0e 94 66 3d 	call	0x7acc	; 0x7acc <fwrite>
    61a8:	08 95       	ret
    61aa:	4f e0       	ldi	r20, 0x0F	; 15
    61ac:	50 e0       	ldi	r21, 0x00	; 0
    61ae:	61 e0       	ldi	r22, 0x01	; 1
    61b0:	70 e0       	ldi	r23, 0x00	; 0
    61b2:	82 e7       	ldi	r24, 0x72	; 114
    61b4:	97 e2       	ldi	r25, 0x27	; 39
    61b6:	0e 94 66 3d 	call	0x7acc	; 0x7acc <fwrite>
    61ba:	08 95       	ret
    61bc:	47 e0       	ldi	r20, 0x07	; 7
    61be:	50 e0       	ldi	r21, 0x00	; 0
    61c0:	61 e0       	ldi	r22, 0x01	; 1
    61c2:	70 e0       	ldi	r23, 0x00	; 0
    61c4:	82 e8       	ldi	r24, 0x82	; 130
    61c6:	97 e2       	ldi	r25, 0x27	; 39
    61c8:	0e 94 66 3d 	call	0x7acc	; 0x7acc <fwrite>
    61cc:	08 95       	ret

000061ce <PrintProcessorID>:
    61ce:	cf 92       	push	r12
    61d0:	df 92       	push	r13
    61d2:	ef 92       	push	r14
    61d4:	ff 92       	push	r15
    61d6:	0f 93       	push	r16
    61d8:	1f 93       	push	r17
    61da:	cf 93       	push	r28
    61dc:	df 93       	push	r29
    61de:	f8 2e       	mov	r15, r24
    61e0:	e9 2e       	mov	r14, r25
    61e2:	e0 e9       	ldi	r30, 0x90	; 144
    61e4:	f0 e0       	ldi	r31, 0x00	; 0
    61e6:	33 81       	ldd	r19, Z+3	; 0x03
    61e8:	22 81       	ldd	r18, Z+2	; 0x02
    61ea:	91 81       	ldd	r25, Z+1	; 0x01
    61ec:	80 81       	ld	r24, Z
    61ee:	1f 92       	push	r1
    61f0:	3f 93       	push	r19
    61f2:	1f 92       	push	r1
    61f4:	2f 93       	push	r18
    61f6:	1f 92       	push	r1
    61f8:	9f 93       	push	r25
    61fa:	1f 92       	push	r1
    61fc:	8f 93       	push	r24
    61fe:	8a e8       	ldi	r24, 0x8A	; 138
    6200:	97 e2       	ldi	r25, 0x27	; 39
    6202:	9f 93       	push	r25
    6204:	8f 93       	push	r24
    6206:	ef 92       	push	r14
    6208:	ff 92       	push	r15
    620a:	0e 94 1a 3d 	call	0x7a34	; 0x7a34 <fprintf>
    620e:	c7 e8       	ldi	r28, 0x87	; 135
    6210:	de e2       	ldi	r29, 0x2E	; 46
    6212:	0f 2e       	mov	r0, r31
    6214:	f2 e9       	ldi	r31, 0x92	; 146
    6216:	cf 2e       	mov	r12, r31
    6218:	fe e2       	ldi	r31, 0x2E	; 46
    621a:	df 2e       	mov	r13, r31
    621c:	f0 2d       	mov	r31, r0
    621e:	8d b7       	in	r24, 0x3d	; 61
    6220:	9e b7       	in	r25, 0x3e	; 62
    6222:	0c 96       	adiw	r24, 0x0c	; 12
    6224:	8d bf       	out	0x3d, r24	; 61
    6226:	9e bf       	out	0x3e, r25	; 62
    6228:	0d eb       	ldi	r16, 0xBD	; 189
    622a:	11 e2       	ldi	r17, 0x21	; 33
    622c:	89 91       	ld	r24, Y+
    622e:	1f 92       	push	r1
    6230:	8f 93       	push	r24
    6232:	1f 93       	push	r17
    6234:	0f 93       	push	r16
    6236:	ef 92       	push	r14
    6238:	ff 92       	push	r15
    623a:	0e 94 1a 3d 	call	0x7a34	; 0x7a34 <fprintf>
    623e:	0f 90       	pop	r0
    6240:	0f 90       	pop	r0
    6242:	0f 90       	pop	r0
    6244:	0f 90       	pop	r0
    6246:	0f 90       	pop	r0
    6248:	0f 90       	pop	r0
    624a:	cc 15       	cp	r28, r12
    624c:	dd 05       	cpc	r29, r13
    624e:	71 f7       	brne	.-36     	; 0x622c <PrintProcessorID+0x5e>
    6250:	df 91       	pop	r29
    6252:	cf 91       	pop	r28
    6254:	1f 91       	pop	r17
    6256:	0f 91       	pop	r16
    6258:	ff 90       	pop	r15
    625a:	ef 90       	pop	r14
    625c:	df 90       	pop	r13
    625e:	cf 90       	pop	r12
    6260:	08 95       	ret

00006262 <TryReadEEPROM>:
    6262:	ef 92       	push	r14
    6264:	ff 92       	push	r15
    6266:	0f 93       	push	r16
    6268:	1f 93       	push	r17
    626a:	cf 93       	push	r28
    626c:	df 93       	push	r29
    626e:	cd b7       	in	r28, 0x3d	; 61
    6270:	de b7       	in	r29, 0x3e	; 62
    6272:	28 97       	sbiw	r28, 0x08	; 8
    6274:	cd bf       	out	0x3d, r28	; 61
    6276:	de bf       	out	0x3e, r29	; 62
    6278:	7c 01       	movw	r14, r24
    627a:	8a 01       	movw	r16, r20
    627c:	44 0f       	add	r20, r20
    627e:	55 1f       	adc	r21, r21
    6280:	ce 01       	movw	r24, r28
    6282:	01 96       	adiw	r24, 0x01	; 1
    6284:	0e 94 69 3e 	call	0x7cd2	; 0x7cd2 <eeprom_read_block>
    6288:	01 15       	cp	r16, r1
    628a:	11 05       	cpc	r17, r1
    628c:	09 f4       	brne	.+2      	; 0x6290 <TryReadEEPROM+0x2e>
    628e:	41 c0       	rjmp	.+130    	; 0x6312 <TryReadEEPROM+0xb0>
    6290:	20 e0       	ldi	r18, 0x00	; 0
    6292:	30 e0       	ldi	r19, 0x00	; 0
    6294:	40 e0       	ldi	r20, 0x00	; 0
    6296:	e1 e0       	ldi	r30, 0x01	; 1
    6298:	f0 e0       	ldi	r31, 0x00	; 0
    629a:	ec 0f       	add	r30, r28
    629c:	fd 1f       	adc	r31, r29
    629e:	e4 0f       	add	r30, r20
    62a0:	f1 1d       	adc	r31, r1
    62a2:	47 fd       	sbrc	r20, 7
    62a4:	fa 95       	dec	r31
    62a6:	50 81       	ld	r21, Z
    62a8:	81 e0       	ldi	r24, 0x01	; 1
    62aa:	90 e0       	ldi	r25, 0x00	; 0
    62ac:	8c 0f       	add	r24, r28
    62ae:	9d 1f       	adc	r25, r29
    62b0:	28 0f       	add	r18, r24
    62b2:	39 1f       	adc	r19, r25
    62b4:	f9 01       	movw	r30, r18
    62b6:	e0 0f       	add	r30, r16
    62b8:	f1 1f       	adc	r31, r17
    62ba:	90 81       	ld	r25, Z
    62bc:	90 95       	com	r25
    62be:	81 e0       	ldi	r24, 0x01	; 1
    62c0:	59 13       	cpse	r21, r25
    62c2:	01 c0       	rjmp	.+2      	; 0x62c6 <TryReadEEPROM+0x64>
    62c4:	80 e0       	ldi	r24, 0x00	; 0
    62c6:	4f 5f       	subi	r20, 0xFF	; 255
    62c8:	24 2f       	mov	r18, r20
    62ca:	04 2e       	mov	r0, r20
    62cc:	00 0c       	add	r0, r0
    62ce:	33 0b       	sbc	r19, r19
    62d0:	20 17       	cp	r18, r16
    62d2:	31 07       	cpc	r19, r17
    62d4:	18 f4       	brcc	.+6      	; 0x62dc <TryReadEEPROM+0x7a>
    62d6:	59 17       	cp	r21, r25
    62d8:	f1 f2       	breq	.-68     	; 0x6296 <TryReadEEPROM+0x34>
    62da:	1c c0       	rjmp	.+56     	; 0x6314 <TryReadEEPROM+0xb2>
    62dc:	59 13       	cpse	r21, r25
    62de:	1a c0       	rjmp	.+52     	; 0x6314 <TryReadEEPROM+0xb2>
    62e0:	20 e0       	ldi	r18, 0x00	; 0
    62e2:	30 e0       	ldi	r19, 0x00	; 0
    62e4:	90 e0       	ldi	r25, 0x00	; 0
    62e6:	d7 01       	movw	r26, r14
    62e8:	a2 0f       	add	r26, r18
    62ea:	b3 1f       	adc	r27, r19
    62ec:	e1 e0       	ldi	r30, 0x01	; 1
    62ee:	f0 e0       	ldi	r31, 0x00	; 0
    62f0:	ec 0f       	add	r30, r28
    62f2:	fd 1f       	adc	r31, r29
    62f4:	e9 0f       	add	r30, r25
    62f6:	f1 1d       	adc	r31, r1
    62f8:	97 fd       	sbrc	r25, 7
    62fa:	fa 95       	dec	r31
    62fc:	40 81       	ld	r20, Z
    62fe:	4c 93       	st	X, r20
    6300:	9f 5f       	subi	r25, 0xFF	; 255
    6302:	29 2f       	mov	r18, r25
    6304:	09 2e       	mov	r0, r25
    6306:	00 0c       	add	r0, r0
    6308:	33 0b       	sbc	r19, r19
    630a:	20 17       	cp	r18, r16
    630c:	31 07       	cpc	r19, r17
    630e:	58 f3       	brcs	.-42     	; 0x62e6 <TryReadEEPROM+0x84>
    6310:	01 c0       	rjmp	.+2      	; 0x6314 <TryReadEEPROM+0xb2>
    6312:	80 e0       	ldi	r24, 0x00	; 0
    6314:	28 96       	adiw	r28, 0x08	; 8
    6316:	cd bf       	out	0x3d, r28	; 61
    6318:	de bf       	out	0x3e, r29	; 62
    631a:	df 91       	pop	r29
    631c:	cf 91       	pop	r28
    631e:	1f 91       	pop	r17
    6320:	0f 91       	pop	r16
    6322:	ff 90       	pop	r15
    6324:	ef 90       	pop	r14
    6326:	08 95       	ret

00006328 <UpdateEEPROM>:
    6328:	0f 93       	push	r16
    632a:	1f 93       	push	r17
    632c:	cf 93       	push	r28
    632e:	df 93       	push	r29
    6330:	cd b7       	in	r28, 0x3d	; 61
    6332:	de b7       	in	r29, 0x3e	; 62
    6334:	28 97       	sbiw	r28, 0x08	; 8
    6336:	cd bf       	out	0x3d, r28	; 61
    6338:	de bf       	out	0x3e, r29	; 62
    633a:	8c 01       	movw	r16, r24
    633c:	da 01       	movw	r26, r20
    633e:	10 97       	sbiw	r26, 0x00	; 0
    6340:	19 f1       	breq	.+70     	; 0x6388 <UpdateEEPROM+0x60>
    6342:	20 e0       	ldi	r18, 0x00	; 0
    6344:	30 e0       	ldi	r19, 0x00	; 0
    6346:	50 e0       	ldi	r21, 0x00	; 0
    6348:	f8 01       	movw	r30, r16
    634a:	e2 0f       	add	r30, r18
    634c:	f3 1f       	adc	r31, r19
    634e:	90 81       	ld	r25, Z
    6350:	e1 e0       	ldi	r30, 0x01	; 1
    6352:	f0 e0       	ldi	r31, 0x00	; 0
    6354:	ec 0f       	add	r30, r28
    6356:	fd 1f       	adc	r31, r29
    6358:	e5 0f       	add	r30, r21
    635a:	f1 1d       	adc	r31, r1
    635c:	57 fd       	sbrc	r21, 7
    635e:	fa 95       	dec	r31
    6360:	90 83       	st	Z, r25
    6362:	e1 e0       	ldi	r30, 0x01	; 1
    6364:	f0 e0       	ldi	r31, 0x00	; 0
    6366:	ec 0f       	add	r30, r28
    6368:	fd 1f       	adc	r31, r29
    636a:	2e 0f       	add	r18, r30
    636c:	3f 1f       	adc	r19, r31
    636e:	f9 01       	movw	r30, r18
    6370:	ea 0f       	add	r30, r26
    6372:	fb 1f       	adc	r31, r27
    6374:	90 95       	com	r25
    6376:	90 83       	st	Z, r25
    6378:	5f 5f       	subi	r21, 0xFF	; 255
    637a:	25 2f       	mov	r18, r21
    637c:	05 2e       	mov	r0, r21
    637e:	00 0c       	add	r0, r0
    6380:	33 0b       	sbc	r19, r19
    6382:	2a 17       	cp	r18, r26
    6384:	3b 07       	cpc	r19, r27
    6386:	00 f3       	brcs	.-64     	; 0x6348 <UpdateEEPROM+0x20>
    6388:	ad 01       	movw	r20, r26
    638a:	44 0f       	add	r20, r20
    638c:	55 1f       	adc	r21, r21
    638e:	ce 01       	movw	r24, r28
    6390:	01 96       	adiw	r24, 0x01	; 1
    6392:	0e 94 75 3e 	call	0x7cea	; 0x7cea <eeprom_update_block>
    6396:	28 96       	adiw	r28, 0x08	; 8
    6398:	cd bf       	out	0x3d, r28	; 61
    639a:	de bf       	out	0x3e, r29	; 62
    639c:	df 91       	pop	r29
    639e:	cf 91       	pop	r28
    63a0:	1f 91       	pop	r17
    63a2:	0f 91       	pop	r16
    63a4:	08 95       	ret

000063a6 <ReadCalibrationByte>:


uint8_t ReadCalibrationByte(uint8_t index) {
	uint8_t result;
	
	NVM.CMD = NVM_CMD_READ_CALIB_ROW_gc;
    63a6:	a0 ec       	ldi	r26, 0xC0	; 192
    63a8:	b1 e0       	ldi	r27, 0x01	; 1
    63aa:	92 e0       	ldi	r25, 0x02	; 2
    63ac:	1a 96       	adiw	r26, 0x0a	; 10
    63ae:	9c 93       	st	X, r25
    63b0:	1a 97       	sbiw	r26, 0x0a	; 10
	result = pgm_read_byte(index);
    63b2:	e8 2f       	mov	r30, r24
    63b4:	f0 e0       	ldi	r31, 0x00	; 0
    63b6:	84 91       	lpm	r24, Z
	NVM.CMD = NVM_CMD_NO_OPERATION_gc;
    63b8:	1a 96       	adiw	r26, 0x0a	; 10
    63ba:	1c 92       	st	X, r1
	
	return result;
} /* ReadCalibrationByte */
    63bc:	08 95       	ret

000063be <InitUtil>:

#define PROCID_LEN 11

static uint8_t sProcID[PROCID_LEN];

void InitUtil(void) {
    63be:	cf 93       	push	r28
    63c0:	df 93       	push	r29

	PORTD.DIRCLR = BOARDID_BIT1 | BOARDID_BIT0;
    63c2:	e0 e6       	ldi	r30, 0x60	; 96
    63c4:	f6 e0       	ldi	r31, 0x06	; 6
    63c6:	80 e3       	ldi	r24, 0x30	; 48
    63c8:	82 83       	std	Z+2, r24	; 0x02

	PORTD.PIN4CTRL = PORT_OPC_PULLDOWN_gc;
    63ca:	80 e1       	ldi	r24, 0x10	; 16
    63cc:	84 8b       	std	Z+20, r24	; 0x14
	PORTD.PIN5CTRL = PORT_OPC_PULLDOWN_gc;
    63ce:	85 8b       	std	Z+21, r24	; 0x15

	/* Read and save processor serial #. Source: http://www.avrfreaks.net/forum/tutc-introduction-offsetof-reading-xmega-sn */
	(void) ReadCalibrationByte( offsetof( NVM_PROD_SIGNATURES_t, LOTNUM0 ) ); 
    63d0:	88 e0       	ldi	r24, 0x08	; 8
    63d2:	0e 94 d3 31 	call	0x63a6	; 0x63a6 <ReadCalibrationByte>
	/* First read after reset or possibly Power Up returns zero, so read then toss this value */ 

	sProcID[0] = ReadCalibrationByte( offsetof( NVM_PROD_SIGNATURES_t, LOTNUM0 ) ) ;
    63d6:	88 e0       	ldi	r24, 0x08	; 8
    63d8:	0e 94 d3 31 	call	0x63a6	; 0x63a6 <ReadCalibrationByte>
    63dc:	c7 e8       	ldi	r28, 0x87	; 135
    63de:	de e2       	ldi	r29, 0x2E	; 46
    63e0:	88 83       	st	Y, r24
	sProcID[1] = ReadCalibrationByte( offsetof( NVM_PROD_SIGNATURES_t, LOTNUM1 ) ) ;
    63e2:	89 e0       	ldi	r24, 0x09	; 9
    63e4:	0e 94 d3 31 	call	0x63a6	; 0x63a6 <ReadCalibrationByte>
    63e8:	89 83       	std	Y+1, r24	; 0x01
	sProcID[2] = ReadCalibrationByte( offsetof( NVM_PROD_SIGNATURES_t, LOTNUM2 ) ) ;
    63ea:	8a e0       	ldi	r24, 0x0A	; 10
    63ec:	0e 94 d3 31 	call	0x63a6	; 0x63a6 <ReadCalibrationByte>
    63f0:	8a 83       	std	Y+2, r24	; 0x02
	sProcID[3] = ReadCalibrationByte( offsetof( NVM_PROD_SIGNATURES_t, LOTNUM3 ) ) ;
    63f2:	8b e0       	ldi	r24, 0x0B	; 11
    63f4:	0e 94 d3 31 	call	0x63a6	; 0x63a6 <ReadCalibrationByte>
    63f8:	8b 83       	std	Y+3, r24	; 0x03
	sProcID[4] = ReadCalibrationByte( offsetof( NVM_PROD_SIGNATURES_t, LOTNUM4 ) ) ;
    63fa:	8c e0       	ldi	r24, 0x0C	; 12
    63fc:	0e 94 d3 31 	call	0x63a6	; 0x63a6 <ReadCalibrationByte>
    6400:	8c 83       	std	Y+4, r24	; 0x04
	sProcID[5] = ReadCalibrationByte( offsetof( NVM_PROD_SIGNATURES_t, LOTNUM5 ) ) ;
    6402:	8d e0       	ldi	r24, 0x0D	; 13
    6404:	0e 94 d3 31 	call	0x63a6	; 0x63a6 <ReadCalibrationByte>
    6408:	8d 83       	std	Y+5, r24	; 0x05
	sProcID[6] = ReadCalibrationByte( offsetof( NVM_PROD_SIGNATURES_t, WAFNUM ) ); 
    640a:	80 e1       	ldi	r24, 0x10	; 16
    640c:	0e 94 d3 31 	call	0x63a6	; 0x63a6 <ReadCalibrationByte>
    6410:	8e 83       	std	Y+6, r24	; 0x06
	sProcID[7] = ReadCalibrationByte( offsetof( NVM_PROD_SIGNATURES_t, COORDX0 ) ); 
    6412:	82 e1       	ldi	r24, 0x12	; 18
    6414:	0e 94 d3 31 	call	0x63a6	; 0x63a6 <ReadCalibrationByte>
    6418:	8f 83       	std	Y+7, r24	; 0x07
	sProcID[8] = ReadCalibrationByte( offsetof( NVM_PROD_SIGNATURES_t, COORDX1 ) ); 
    641a:	83 e1       	ldi	r24, 0x13	; 19
    641c:	0e 94 d3 31 	call	0x63a6	; 0x63a6 <ReadCalibrationByte>
    6420:	88 87       	std	Y+8, r24	; 0x08
	sProcID[9] = ReadCalibrationByte( offsetof( NVM_PROD_SIGNATURES_t, COORDY0 ) ); 
    6422:	84 e1       	ldi	r24, 0x14	; 20
    6424:	0e 94 d3 31 	call	0x63a6	; 0x63a6 <ReadCalibrationByte>
    6428:	89 87       	std	Y+9, r24	; 0x09
	sProcID[10] = ReadCalibrationByte( offsetof( NVM_PROD_SIGNATURES_t, COORDY1 ) );	
    642a:	85 e1       	ldi	r24, 0x15	; 21
    642c:	0e 94 d3 31 	call	0x63a6	; 0x63a6 <ReadCalibrationByte>
    6430:	8a 87       	std	Y+10, r24	; 0x0a

} /* InitUtil */
    6432:	df 91       	pop	r29
    6434:	cf 91       	pop	r28
    6436:	08 95       	ret

00006438 <__subsf3>:
    6438:	50 58       	subi	r21, 0x80	; 128

0000643a <__addsf3>:
    643a:	bb 27       	eor	r27, r27
    643c:	aa 27       	eor	r26, r26
    643e:	0e 94 34 32 	call	0x6468	; 0x6468 <__addsf3x>
    6442:	0c 94 02 34 	jmp	0x6804	; 0x6804 <__fp_round>
    6446:	0e 94 f4 33 	call	0x67e8	; 0x67e8 <__fp_pscA>
    644a:	38 f0       	brcs	.+14     	; 0x645a <__addsf3+0x20>
    644c:	0e 94 fb 33 	call	0x67f6	; 0x67f6 <__fp_pscB>
    6450:	20 f0       	brcs	.+8      	; 0x645a <__addsf3+0x20>
    6452:	39 f4       	brne	.+14     	; 0x6462 <__addsf3+0x28>
    6454:	9f 3f       	cpi	r25, 0xFF	; 255
    6456:	19 f4       	brne	.+6      	; 0x645e <__addsf3+0x24>
    6458:	26 f4       	brtc	.+8      	; 0x6462 <__addsf3+0x28>
    645a:	0c 94 e1 33 	jmp	0x67c2	; 0x67c2 <__fp_nan>
    645e:	0e f4       	brtc	.+2      	; 0x6462 <__addsf3+0x28>
    6460:	e0 95       	com	r30
    6462:	e7 fb       	bst	r30, 7
    6464:	0c 94 db 33 	jmp	0x67b6	; 0x67b6 <__fp_inf>

00006468 <__addsf3x>:
    6468:	e9 2f       	mov	r30, r25
    646a:	0e 94 13 34 	call	0x6826	; 0x6826 <__fp_split3>
    646e:	58 f3       	brcs	.-42     	; 0x6446 <__addsf3+0xc>
    6470:	ba 17       	cp	r27, r26
    6472:	62 07       	cpc	r22, r18
    6474:	73 07       	cpc	r23, r19
    6476:	84 07       	cpc	r24, r20
    6478:	95 07       	cpc	r25, r21
    647a:	20 f0       	brcs	.+8      	; 0x6484 <__addsf3x+0x1c>
    647c:	79 f4       	brne	.+30     	; 0x649c <__addsf3x+0x34>
    647e:	a6 f5       	brtc	.+104    	; 0x64e8 <__addsf3x+0x80>
    6480:	0c 94 35 34 	jmp	0x686a	; 0x686a <__fp_zero>
    6484:	0e f4       	brtc	.+2      	; 0x6488 <__addsf3x+0x20>
    6486:	e0 95       	com	r30
    6488:	0b 2e       	mov	r0, r27
    648a:	ba 2f       	mov	r27, r26
    648c:	a0 2d       	mov	r26, r0
    648e:	0b 01       	movw	r0, r22
    6490:	b9 01       	movw	r22, r18
    6492:	90 01       	movw	r18, r0
    6494:	0c 01       	movw	r0, r24
    6496:	ca 01       	movw	r24, r20
    6498:	a0 01       	movw	r20, r0
    649a:	11 24       	eor	r1, r1
    649c:	ff 27       	eor	r31, r31
    649e:	59 1b       	sub	r21, r25
    64a0:	99 f0       	breq	.+38     	; 0x64c8 <__addsf3x+0x60>
    64a2:	59 3f       	cpi	r21, 0xF9	; 249
    64a4:	50 f4       	brcc	.+20     	; 0x64ba <__addsf3x+0x52>
    64a6:	50 3e       	cpi	r21, 0xE0	; 224
    64a8:	68 f1       	brcs	.+90     	; 0x6504 <__addsf3x+0x9c>
    64aa:	1a 16       	cp	r1, r26
    64ac:	f0 40       	sbci	r31, 0x00	; 0
    64ae:	a2 2f       	mov	r26, r18
    64b0:	23 2f       	mov	r18, r19
    64b2:	34 2f       	mov	r19, r20
    64b4:	44 27       	eor	r20, r20
    64b6:	58 5f       	subi	r21, 0xF8	; 248
    64b8:	f3 cf       	rjmp	.-26     	; 0x64a0 <__addsf3x+0x38>
    64ba:	46 95       	lsr	r20
    64bc:	37 95       	ror	r19
    64be:	27 95       	ror	r18
    64c0:	a7 95       	ror	r26
    64c2:	f0 40       	sbci	r31, 0x00	; 0
    64c4:	53 95       	inc	r21
    64c6:	c9 f7       	brne	.-14     	; 0x64ba <__addsf3x+0x52>
    64c8:	7e f4       	brtc	.+30     	; 0x64e8 <__addsf3x+0x80>
    64ca:	1f 16       	cp	r1, r31
    64cc:	ba 0b       	sbc	r27, r26
    64ce:	62 0b       	sbc	r22, r18
    64d0:	73 0b       	sbc	r23, r19
    64d2:	84 0b       	sbc	r24, r20
    64d4:	ba f0       	brmi	.+46     	; 0x6504 <__addsf3x+0x9c>
    64d6:	91 50       	subi	r25, 0x01	; 1
    64d8:	a1 f0       	breq	.+40     	; 0x6502 <__addsf3x+0x9a>
    64da:	ff 0f       	add	r31, r31
    64dc:	bb 1f       	adc	r27, r27
    64de:	66 1f       	adc	r22, r22
    64e0:	77 1f       	adc	r23, r23
    64e2:	88 1f       	adc	r24, r24
    64e4:	c2 f7       	brpl	.-16     	; 0x64d6 <__addsf3x+0x6e>
    64e6:	0e c0       	rjmp	.+28     	; 0x6504 <__addsf3x+0x9c>
    64e8:	ba 0f       	add	r27, r26
    64ea:	62 1f       	adc	r22, r18
    64ec:	73 1f       	adc	r23, r19
    64ee:	84 1f       	adc	r24, r20
    64f0:	48 f4       	brcc	.+18     	; 0x6504 <__addsf3x+0x9c>
    64f2:	87 95       	ror	r24
    64f4:	77 95       	ror	r23
    64f6:	67 95       	ror	r22
    64f8:	b7 95       	ror	r27
    64fa:	f7 95       	ror	r31
    64fc:	9e 3f       	cpi	r25, 0xFE	; 254
    64fe:	08 f0       	brcs	.+2      	; 0x6502 <__addsf3x+0x9a>
    6500:	b0 cf       	rjmp	.-160    	; 0x6462 <__addsf3+0x28>
    6502:	93 95       	inc	r25
    6504:	88 0f       	add	r24, r24
    6506:	08 f0       	brcs	.+2      	; 0x650a <__addsf3x+0xa2>
    6508:	99 27       	eor	r25, r25
    650a:	ee 0f       	add	r30, r30
    650c:	97 95       	ror	r25
    650e:	87 95       	ror	r24
    6510:	08 95       	ret

00006512 <__cmpsf2>:
    6512:	0e 94 b7 33 	call	0x676e	; 0x676e <__fp_cmp>
    6516:	08 f4       	brcc	.+2      	; 0x651a <__cmpsf2+0x8>
    6518:	81 e0       	ldi	r24, 0x01	; 1
    651a:	08 95       	ret

0000651c <__divsf3>:
    651c:	0e 94 a2 32 	call	0x6544	; 0x6544 <__divsf3x>
    6520:	0c 94 02 34 	jmp	0x6804	; 0x6804 <__fp_round>
    6524:	0e 94 fb 33 	call	0x67f6	; 0x67f6 <__fp_pscB>
    6528:	58 f0       	brcs	.+22     	; 0x6540 <__divsf3+0x24>
    652a:	0e 94 f4 33 	call	0x67e8	; 0x67e8 <__fp_pscA>
    652e:	40 f0       	brcs	.+16     	; 0x6540 <__divsf3+0x24>
    6530:	29 f4       	brne	.+10     	; 0x653c <__divsf3+0x20>
    6532:	5f 3f       	cpi	r21, 0xFF	; 255
    6534:	29 f0       	breq	.+10     	; 0x6540 <__divsf3+0x24>
    6536:	0c 94 db 33 	jmp	0x67b6	; 0x67b6 <__fp_inf>
    653a:	51 11       	cpse	r21, r1
    653c:	0c 94 36 34 	jmp	0x686c	; 0x686c <__fp_szero>
    6540:	0c 94 e1 33 	jmp	0x67c2	; 0x67c2 <__fp_nan>

00006544 <__divsf3x>:
    6544:	0e 94 13 34 	call	0x6826	; 0x6826 <__fp_split3>
    6548:	68 f3       	brcs	.-38     	; 0x6524 <__divsf3+0x8>

0000654a <__divsf3_pse>:
    654a:	99 23       	and	r25, r25
    654c:	b1 f3       	breq	.-20     	; 0x653a <__divsf3+0x1e>
    654e:	55 23       	and	r21, r21
    6550:	91 f3       	breq	.-28     	; 0x6536 <__divsf3+0x1a>
    6552:	95 1b       	sub	r25, r21
    6554:	55 0b       	sbc	r21, r21
    6556:	bb 27       	eor	r27, r27
    6558:	aa 27       	eor	r26, r26
    655a:	62 17       	cp	r22, r18
    655c:	73 07       	cpc	r23, r19
    655e:	84 07       	cpc	r24, r20
    6560:	38 f0       	brcs	.+14     	; 0x6570 <__divsf3_pse+0x26>
    6562:	9f 5f       	subi	r25, 0xFF	; 255
    6564:	5f 4f       	sbci	r21, 0xFF	; 255
    6566:	22 0f       	add	r18, r18
    6568:	33 1f       	adc	r19, r19
    656a:	44 1f       	adc	r20, r20
    656c:	aa 1f       	adc	r26, r26
    656e:	a9 f3       	breq	.-22     	; 0x655a <__divsf3_pse+0x10>
    6570:	35 d0       	rcall	.+106    	; 0x65dc <__divsf3_pse+0x92>
    6572:	0e 2e       	mov	r0, r30
    6574:	3a f0       	brmi	.+14     	; 0x6584 <__divsf3_pse+0x3a>
    6576:	e0 e8       	ldi	r30, 0x80	; 128
    6578:	32 d0       	rcall	.+100    	; 0x65de <__divsf3_pse+0x94>
    657a:	91 50       	subi	r25, 0x01	; 1
    657c:	50 40       	sbci	r21, 0x00	; 0
    657e:	e6 95       	lsr	r30
    6580:	00 1c       	adc	r0, r0
    6582:	ca f7       	brpl	.-14     	; 0x6576 <__divsf3_pse+0x2c>
    6584:	2b d0       	rcall	.+86     	; 0x65dc <__divsf3_pse+0x92>
    6586:	fe 2f       	mov	r31, r30
    6588:	29 d0       	rcall	.+82     	; 0x65dc <__divsf3_pse+0x92>
    658a:	66 0f       	add	r22, r22
    658c:	77 1f       	adc	r23, r23
    658e:	88 1f       	adc	r24, r24
    6590:	bb 1f       	adc	r27, r27
    6592:	26 17       	cp	r18, r22
    6594:	37 07       	cpc	r19, r23
    6596:	48 07       	cpc	r20, r24
    6598:	ab 07       	cpc	r26, r27
    659a:	b0 e8       	ldi	r27, 0x80	; 128
    659c:	09 f0       	breq	.+2      	; 0x65a0 <__divsf3_pse+0x56>
    659e:	bb 0b       	sbc	r27, r27
    65a0:	80 2d       	mov	r24, r0
    65a2:	bf 01       	movw	r22, r30
    65a4:	ff 27       	eor	r31, r31
    65a6:	93 58       	subi	r25, 0x83	; 131
    65a8:	5f 4f       	sbci	r21, 0xFF	; 255
    65aa:	3a f0       	brmi	.+14     	; 0x65ba <__divsf3_pse+0x70>
    65ac:	9e 3f       	cpi	r25, 0xFE	; 254
    65ae:	51 05       	cpc	r21, r1
    65b0:	78 f0       	brcs	.+30     	; 0x65d0 <__divsf3_pse+0x86>
    65b2:	0c 94 db 33 	jmp	0x67b6	; 0x67b6 <__fp_inf>
    65b6:	0c 94 36 34 	jmp	0x686c	; 0x686c <__fp_szero>
    65ba:	5f 3f       	cpi	r21, 0xFF	; 255
    65bc:	e4 f3       	brlt	.-8      	; 0x65b6 <__divsf3_pse+0x6c>
    65be:	98 3e       	cpi	r25, 0xE8	; 232
    65c0:	d4 f3       	brlt	.-12     	; 0x65b6 <__divsf3_pse+0x6c>
    65c2:	86 95       	lsr	r24
    65c4:	77 95       	ror	r23
    65c6:	67 95       	ror	r22
    65c8:	b7 95       	ror	r27
    65ca:	f7 95       	ror	r31
    65cc:	9f 5f       	subi	r25, 0xFF	; 255
    65ce:	c9 f7       	brne	.-14     	; 0x65c2 <__divsf3_pse+0x78>
    65d0:	88 0f       	add	r24, r24
    65d2:	91 1d       	adc	r25, r1
    65d4:	96 95       	lsr	r25
    65d6:	87 95       	ror	r24
    65d8:	97 f9       	bld	r25, 7
    65da:	08 95       	ret
    65dc:	e1 e0       	ldi	r30, 0x01	; 1
    65de:	66 0f       	add	r22, r22
    65e0:	77 1f       	adc	r23, r23
    65e2:	88 1f       	adc	r24, r24
    65e4:	bb 1f       	adc	r27, r27
    65e6:	62 17       	cp	r22, r18
    65e8:	73 07       	cpc	r23, r19
    65ea:	84 07       	cpc	r24, r20
    65ec:	ba 07       	cpc	r27, r26
    65ee:	20 f0       	brcs	.+8      	; 0x65f8 <__divsf3_pse+0xae>
    65f0:	62 1b       	sub	r22, r18
    65f2:	73 0b       	sbc	r23, r19
    65f4:	84 0b       	sbc	r24, r20
    65f6:	ba 0b       	sbc	r27, r26
    65f8:	ee 1f       	adc	r30, r30
    65fa:	88 f7       	brcc	.-30     	; 0x65de <__divsf3_pse+0x94>
    65fc:	e0 95       	com	r30
    65fe:	08 95       	ret

00006600 <__fixsfsi>:
    6600:	0e 94 07 33 	call	0x660e	; 0x660e <__fixunssfsi>
    6604:	68 94       	set
    6606:	b1 11       	cpse	r27, r1
    6608:	0c 94 36 34 	jmp	0x686c	; 0x686c <__fp_szero>
    660c:	08 95       	ret

0000660e <__fixunssfsi>:
    660e:	0e 94 1b 34 	call	0x6836	; 0x6836 <__fp_splitA>
    6612:	88 f0       	brcs	.+34     	; 0x6636 <__fixunssfsi+0x28>
    6614:	9f 57       	subi	r25, 0x7F	; 127
    6616:	98 f0       	brcs	.+38     	; 0x663e <__fixunssfsi+0x30>
    6618:	b9 2f       	mov	r27, r25
    661a:	99 27       	eor	r25, r25
    661c:	b7 51       	subi	r27, 0x17	; 23
    661e:	b0 f0       	brcs	.+44     	; 0x664c <__fixunssfsi+0x3e>
    6620:	e1 f0       	breq	.+56     	; 0x665a <__fixunssfsi+0x4c>
    6622:	66 0f       	add	r22, r22
    6624:	77 1f       	adc	r23, r23
    6626:	88 1f       	adc	r24, r24
    6628:	99 1f       	adc	r25, r25
    662a:	1a f0       	brmi	.+6      	; 0x6632 <__fixunssfsi+0x24>
    662c:	ba 95       	dec	r27
    662e:	c9 f7       	brne	.-14     	; 0x6622 <__fixunssfsi+0x14>
    6630:	14 c0       	rjmp	.+40     	; 0x665a <__fixunssfsi+0x4c>
    6632:	b1 30       	cpi	r27, 0x01	; 1
    6634:	91 f0       	breq	.+36     	; 0x665a <__fixunssfsi+0x4c>
    6636:	0e 94 35 34 	call	0x686a	; 0x686a <__fp_zero>
    663a:	b1 e0       	ldi	r27, 0x01	; 1
    663c:	08 95       	ret
    663e:	0c 94 35 34 	jmp	0x686a	; 0x686a <__fp_zero>
    6642:	67 2f       	mov	r22, r23
    6644:	78 2f       	mov	r23, r24
    6646:	88 27       	eor	r24, r24
    6648:	b8 5f       	subi	r27, 0xF8	; 248
    664a:	39 f0       	breq	.+14     	; 0x665a <__fixunssfsi+0x4c>
    664c:	b9 3f       	cpi	r27, 0xF9	; 249
    664e:	cc f3       	brlt	.-14     	; 0x6642 <__fixunssfsi+0x34>
    6650:	86 95       	lsr	r24
    6652:	77 95       	ror	r23
    6654:	67 95       	ror	r22
    6656:	b3 95       	inc	r27
    6658:	d9 f7       	brne	.-10     	; 0x6650 <__fixunssfsi+0x42>
    665a:	3e f4       	brtc	.+14     	; 0x666a <__fixunssfsi+0x5c>
    665c:	90 95       	com	r25
    665e:	80 95       	com	r24
    6660:	70 95       	com	r23
    6662:	61 95       	neg	r22
    6664:	7f 4f       	sbci	r23, 0xFF	; 255
    6666:	8f 4f       	sbci	r24, 0xFF	; 255
    6668:	9f 4f       	sbci	r25, 0xFF	; 255
    666a:	08 95       	ret

0000666c <__floatdisf>:
    666c:	97 fb       	bst	r25, 7
    666e:	16 f4       	brtc	.+4      	; 0x6674 <__floatdisf+0x8>
    6670:	0e 94 e4 33 	call	0x67c8	; 0x67c8 <__fp_negdi>
    6674:	0c 94 7a 33 	jmp	0x66f4	; 0x66f4 <__fp_di2sf>

00006678 <__floatunsisf>:
    6678:	e8 94       	clt
    667a:	09 c0       	rjmp	.+18     	; 0x668e <__floatsisf+0x12>

0000667c <__floatsisf>:
    667c:	97 fb       	bst	r25, 7
    667e:	3e f4       	brtc	.+14     	; 0x668e <__floatsisf+0x12>
    6680:	90 95       	com	r25
    6682:	80 95       	com	r24
    6684:	70 95       	com	r23
    6686:	61 95       	neg	r22
    6688:	7f 4f       	sbci	r23, 0xFF	; 255
    668a:	8f 4f       	sbci	r24, 0xFF	; 255
    668c:	9f 4f       	sbci	r25, 0xFF	; 255
    668e:	99 23       	and	r25, r25
    6690:	a9 f0       	breq	.+42     	; 0x66bc <__floatsisf+0x40>
    6692:	f9 2f       	mov	r31, r25
    6694:	96 e9       	ldi	r25, 0x96	; 150
    6696:	bb 27       	eor	r27, r27
    6698:	93 95       	inc	r25
    669a:	f6 95       	lsr	r31
    669c:	87 95       	ror	r24
    669e:	77 95       	ror	r23
    66a0:	67 95       	ror	r22
    66a2:	b7 95       	ror	r27
    66a4:	f1 11       	cpse	r31, r1
    66a6:	f8 cf       	rjmp	.-16     	; 0x6698 <__floatsisf+0x1c>
    66a8:	fa f4       	brpl	.+62     	; 0x66e8 <__floatsisf+0x6c>
    66aa:	bb 0f       	add	r27, r27
    66ac:	11 f4       	brne	.+4      	; 0x66b2 <__floatsisf+0x36>
    66ae:	60 ff       	sbrs	r22, 0
    66b0:	1b c0       	rjmp	.+54     	; 0x66e8 <__floatsisf+0x6c>
    66b2:	6f 5f       	subi	r22, 0xFF	; 255
    66b4:	7f 4f       	sbci	r23, 0xFF	; 255
    66b6:	8f 4f       	sbci	r24, 0xFF	; 255
    66b8:	9f 4f       	sbci	r25, 0xFF	; 255
    66ba:	16 c0       	rjmp	.+44     	; 0x66e8 <__floatsisf+0x6c>
    66bc:	88 23       	and	r24, r24
    66be:	11 f0       	breq	.+4      	; 0x66c4 <__floatsisf+0x48>
    66c0:	96 e9       	ldi	r25, 0x96	; 150
    66c2:	11 c0       	rjmp	.+34     	; 0x66e6 <__floatsisf+0x6a>
    66c4:	77 23       	and	r23, r23
    66c6:	21 f0       	breq	.+8      	; 0x66d0 <__floatsisf+0x54>
    66c8:	9e e8       	ldi	r25, 0x8E	; 142
    66ca:	87 2f       	mov	r24, r23
    66cc:	76 2f       	mov	r23, r22
    66ce:	05 c0       	rjmp	.+10     	; 0x66da <__floatsisf+0x5e>
    66d0:	66 23       	and	r22, r22
    66d2:	71 f0       	breq	.+28     	; 0x66f0 <__floatsisf+0x74>
    66d4:	96 e8       	ldi	r25, 0x86	; 134
    66d6:	86 2f       	mov	r24, r22
    66d8:	70 e0       	ldi	r23, 0x00	; 0
    66da:	60 e0       	ldi	r22, 0x00	; 0
    66dc:	2a f0       	brmi	.+10     	; 0x66e8 <__floatsisf+0x6c>
    66de:	9a 95       	dec	r25
    66e0:	66 0f       	add	r22, r22
    66e2:	77 1f       	adc	r23, r23
    66e4:	88 1f       	adc	r24, r24
    66e6:	da f7       	brpl	.-10     	; 0x66de <__floatsisf+0x62>
    66e8:	88 0f       	add	r24, r24
    66ea:	96 95       	lsr	r25
    66ec:	87 95       	ror	r24
    66ee:	97 f9       	bld	r25, 7
    66f0:	08 95       	ret

000066f2 <__floatundisf>:
    66f2:	e8 94       	clt

000066f4 <__fp_di2sf>:
    66f4:	f9 2f       	mov	r31, r25
    66f6:	96 eb       	ldi	r25, 0xB6	; 182
    66f8:	ff 23       	and	r31, r31
    66fa:	81 f0       	breq	.+32     	; 0x671c <__fp_di2sf+0x28>
    66fc:	12 16       	cp	r1, r18
    66fe:	13 06       	cpc	r1, r19
    6700:	14 06       	cpc	r1, r20
    6702:	44 0b       	sbc	r20, r20
    6704:	93 95       	inc	r25
    6706:	f6 95       	lsr	r31
    6708:	87 95       	ror	r24
    670a:	77 95       	ror	r23
    670c:	67 95       	ror	r22
    670e:	57 95       	ror	r21
    6710:	40 40       	sbci	r20, 0x00	; 0
    6712:	ff 23       	and	r31, r31
    6714:	b9 f7       	brne	.-18     	; 0x6704 <__fp_di2sf+0x10>
    6716:	1b c0       	rjmp	.+54     	; 0x674e <__fp_di2sf+0x5a>
    6718:	99 27       	eor	r25, r25
    671a:	08 95       	ret
    671c:	88 23       	and	r24, r24
    671e:	51 f4       	brne	.+20     	; 0x6734 <__fp_di2sf+0x40>
    6720:	98 50       	subi	r25, 0x08	; 8
    6722:	d2 f7       	brpl	.-12     	; 0x6718 <__fp_di2sf+0x24>
    6724:	87 2b       	or	r24, r23
    6726:	76 2f       	mov	r23, r22
    6728:	65 2f       	mov	r22, r21
    672a:	54 2f       	mov	r21, r20
    672c:	43 2f       	mov	r20, r19
    672e:	32 2f       	mov	r19, r18
    6730:	20 e0       	ldi	r18, 0x00	; 0
    6732:	b1 f3       	breq	.-20     	; 0x6720 <__fp_di2sf+0x2c>
    6734:	12 16       	cp	r1, r18
    6736:	13 06       	cpc	r1, r19
    6738:	14 06       	cpc	r1, r20
    673a:	44 0b       	sbc	r20, r20
    673c:	88 23       	and	r24, r24
    673e:	3a f0       	brmi	.+14     	; 0x674e <__fp_di2sf+0x5a>
    6740:	9a 95       	dec	r25
    6742:	44 0f       	add	r20, r20
    6744:	55 1f       	adc	r21, r21
    6746:	66 1f       	adc	r22, r22
    6748:	77 1f       	adc	r23, r23
    674a:	88 1f       	adc	r24, r24
    674c:	ca f7       	brpl	.-14     	; 0x6740 <__fp_di2sf+0x4c>
    674e:	55 23       	and	r21, r21
    6750:	4a f4       	brpl	.+18     	; 0x6764 <__fp_di2sf+0x70>
    6752:	44 0f       	add	r20, r20
    6754:	55 1f       	adc	r21, r21
    6756:	11 f4       	brne	.+4      	; 0x675c <__fp_di2sf+0x68>
    6758:	60 ff       	sbrs	r22, 0
    675a:	04 c0       	rjmp	.+8      	; 0x6764 <__fp_di2sf+0x70>
    675c:	6f 5f       	subi	r22, 0xFF	; 255
    675e:	7f 4f       	sbci	r23, 0xFF	; 255
    6760:	8f 4f       	sbci	r24, 0xFF	; 255
    6762:	9f 4f       	sbci	r25, 0xFF	; 255
    6764:	88 0f       	add	r24, r24
    6766:	96 95       	lsr	r25
    6768:	87 95       	ror	r24
    676a:	97 f9       	bld	r25, 7
    676c:	08 95       	ret

0000676e <__fp_cmp>:
    676e:	99 0f       	add	r25, r25
    6770:	00 08       	sbc	r0, r0
    6772:	55 0f       	add	r21, r21
    6774:	aa 0b       	sbc	r26, r26
    6776:	e0 e8       	ldi	r30, 0x80	; 128
    6778:	fe ef       	ldi	r31, 0xFE	; 254
    677a:	16 16       	cp	r1, r22
    677c:	17 06       	cpc	r1, r23
    677e:	e8 07       	cpc	r30, r24
    6780:	f9 07       	cpc	r31, r25
    6782:	c0 f0       	brcs	.+48     	; 0x67b4 <__fp_cmp+0x46>
    6784:	12 16       	cp	r1, r18
    6786:	13 06       	cpc	r1, r19
    6788:	e4 07       	cpc	r30, r20
    678a:	f5 07       	cpc	r31, r21
    678c:	98 f0       	brcs	.+38     	; 0x67b4 <__fp_cmp+0x46>
    678e:	62 1b       	sub	r22, r18
    6790:	73 0b       	sbc	r23, r19
    6792:	84 0b       	sbc	r24, r20
    6794:	95 0b       	sbc	r25, r21
    6796:	39 f4       	brne	.+14     	; 0x67a6 <__fp_cmp+0x38>
    6798:	0a 26       	eor	r0, r26
    679a:	61 f0       	breq	.+24     	; 0x67b4 <__fp_cmp+0x46>
    679c:	23 2b       	or	r18, r19
    679e:	24 2b       	or	r18, r20
    67a0:	25 2b       	or	r18, r21
    67a2:	21 f4       	brne	.+8      	; 0x67ac <__fp_cmp+0x3e>
    67a4:	08 95       	ret
    67a6:	0a 26       	eor	r0, r26
    67a8:	09 f4       	brne	.+2      	; 0x67ac <__fp_cmp+0x3e>
    67aa:	a1 40       	sbci	r26, 0x01	; 1
    67ac:	a6 95       	lsr	r26
    67ae:	8f ef       	ldi	r24, 0xFF	; 255
    67b0:	81 1d       	adc	r24, r1
    67b2:	81 1d       	adc	r24, r1
    67b4:	08 95       	ret

000067b6 <__fp_inf>:
    67b6:	97 f9       	bld	r25, 7
    67b8:	9f 67       	ori	r25, 0x7F	; 127
    67ba:	80 e8       	ldi	r24, 0x80	; 128
    67bc:	70 e0       	ldi	r23, 0x00	; 0
    67be:	60 e0       	ldi	r22, 0x00	; 0
    67c0:	08 95       	ret

000067c2 <__fp_nan>:
    67c2:	9f ef       	ldi	r25, 0xFF	; 255
    67c4:	80 ec       	ldi	r24, 0xC0	; 192
    67c6:	08 95       	ret

000067c8 <__fp_negdi>:
    67c8:	90 95       	com	r25
    67ca:	80 95       	com	r24
    67cc:	70 95       	com	r23
    67ce:	60 95       	com	r22
    67d0:	50 95       	com	r21
    67d2:	40 95       	com	r20
    67d4:	30 95       	com	r19
    67d6:	21 95       	neg	r18
    67d8:	3f 4f       	sbci	r19, 0xFF	; 255
    67da:	4f 4f       	sbci	r20, 0xFF	; 255
    67dc:	5f 4f       	sbci	r21, 0xFF	; 255
    67de:	6f 4f       	sbci	r22, 0xFF	; 255
    67e0:	7f 4f       	sbci	r23, 0xFF	; 255
    67e2:	8f 4f       	sbci	r24, 0xFF	; 255
    67e4:	9f 4f       	sbci	r25, 0xFF	; 255
    67e6:	08 95       	ret

000067e8 <__fp_pscA>:
    67e8:	00 24       	eor	r0, r0
    67ea:	0a 94       	dec	r0
    67ec:	16 16       	cp	r1, r22
    67ee:	17 06       	cpc	r1, r23
    67f0:	18 06       	cpc	r1, r24
    67f2:	09 06       	cpc	r0, r25
    67f4:	08 95       	ret

000067f6 <__fp_pscB>:
    67f6:	00 24       	eor	r0, r0
    67f8:	0a 94       	dec	r0
    67fa:	12 16       	cp	r1, r18
    67fc:	13 06       	cpc	r1, r19
    67fe:	14 06       	cpc	r1, r20
    6800:	05 06       	cpc	r0, r21
    6802:	08 95       	ret

00006804 <__fp_round>:
    6804:	09 2e       	mov	r0, r25
    6806:	03 94       	inc	r0
    6808:	00 0c       	add	r0, r0
    680a:	11 f4       	brne	.+4      	; 0x6810 <__fp_round+0xc>
    680c:	88 23       	and	r24, r24
    680e:	52 f0       	brmi	.+20     	; 0x6824 <__fp_round+0x20>
    6810:	bb 0f       	add	r27, r27
    6812:	40 f4       	brcc	.+16     	; 0x6824 <__fp_round+0x20>
    6814:	bf 2b       	or	r27, r31
    6816:	11 f4       	brne	.+4      	; 0x681c <__fp_round+0x18>
    6818:	60 ff       	sbrs	r22, 0
    681a:	04 c0       	rjmp	.+8      	; 0x6824 <__fp_round+0x20>
    681c:	6f 5f       	subi	r22, 0xFF	; 255
    681e:	7f 4f       	sbci	r23, 0xFF	; 255
    6820:	8f 4f       	sbci	r24, 0xFF	; 255
    6822:	9f 4f       	sbci	r25, 0xFF	; 255
    6824:	08 95       	ret

00006826 <__fp_split3>:
    6826:	57 fd       	sbrc	r21, 7
    6828:	90 58       	subi	r25, 0x80	; 128
    682a:	44 0f       	add	r20, r20
    682c:	55 1f       	adc	r21, r21
    682e:	59 f0       	breq	.+22     	; 0x6846 <__fp_splitA+0x10>
    6830:	5f 3f       	cpi	r21, 0xFF	; 255
    6832:	71 f0       	breq	.+28     	; 0x6850 <__fp_splitA+0x1a>
    6834:	47 95       	ror	r20

00006836 <__fp_splitA>:
    6836:	88 0f       	add	r24, r24
    6838:	97 fb       	bst	r25, 7
    683a:	99 1f       	adc	r25, r25
    683c:	61 f0       	breq	.+24     	; 0x6856 <__fp_splitA+0x20>
    683e:	9f 3f       	cpi	r25, 0xFF	; 255
    6840:	79 f0       	breq	.+30     	; 0x6860 <__fp_splitA+0x2a>
    6842:	87 95       	ror	r24
    6844:	08 95       	ret
    6846:	12 16       	cp	r1, r18
    6848:	13 06       	cpc	r1, r19
    684a:	14 06       	cpc	r1, r20
    684c:	55 1f       	adc	r21, r21
    684e:	f2 cf       	rjmp	.-28     	; 0x6834 <__fp_split3+0xe>
    6850:	46 95       	lsr	r20
    6852:	f1 df       	rcall	.-30     	; 0x6836 <__fp_splitA>
    6854:	08 c0       	rjmp	.+16     	; 0x6866 <__fp_splitA+0x30>
    6856:	16 16       	cp	r1, r22
    6858:	17 06       	cpc	r1, r23
    685a:	18 06       	cpc	r1, r24
    685c:	99 1f       	adc	r25, r25
    685e:	f1 cf       	rjmp	.-30     	; 0x6842 <__fp_splitA+0xc>
    6860:	86 95       	lsr	r24
    6862:	71 05       	cpc	r23, r1
    6864:	61 05       	cpc	r22, r1
    6866:	08 94       	sec
    6868:	08 95       	ret

0000686a <__fp_zero>:
    686a:	e8 94       	clt

0000686c <__fp_szero>:
    686c:	bb 27       	eor	r27, r27
    686e:	66 27       	eor	r22, r22
    6870:	77 27       	eor	r23, r23
    6872:	cb 01       	movw	r24, r22
    6874:	97 f9       	bld	r25, 7
    6876:	08 95       	ret

00006878 <__mulsf3>:
    6878:	0e 94 4f 34 	call	0x689e	; 0x689e <__mulsf3x>
    687c:	0c 94 02 34 	jmp	0x6804	; 0x6804 <__fp_round>
    6880:	0e 94 f4 33 	call	0x67e8	; 0x67e8 <__fp_pscA>
    6884:	38 f0       	brcs	.+14     	; 0x6894 <__mulsf3+0x1c>
    6886:	0e 94 fb 33 	call	0x67f6	; 0x67f6 <__fp_pscB>
    688a:	20 f0       	brcs	.+8      	; 0x6894 <__mulsf3+0x1c>
    688c:	95 23       	and	r25, r21
    688e:	11 f0       	breq	.+4      	; 0x6894 <__mulsf3+0x1c>
    6890:	0c 94 db 33 	jmp	0x67b6	; 0x67b6 <__fp_inf>
    6894:	0c 94 e1 33 	jmp	0x67c2	; 0x67c2 <__fp_nan>
    6898:	11 24       	eor	r1, r1
    689a:	0c 94 36 34 	jmp	0x686c	; 0x686c <__fp_szero>

0000689e <__mulsf3x>:
    689e:	0e 94 13 34 	call	0x6826	; 0x6826 <__fp_split3>
    68a2:	70 f3       	brcs	.-36     	; 0x6880 <__mulsf3+0x8>

000068a4 <__mulsf3_pse>:
    68a4:	95 9f       	mul	r25, r21
    68a6:	c1 f3       	breq	.-16     	; 0x6898 <__mulsf3+0x20>
    68a8:	95 0f       	add	r25, r21
    68aa:	50 e0       	ldi	r21, 0x00	; 0
    68ac:	55 1f       	adc	r21, r21
    68ae:	62 9f       	mul	r22, r18
    68b0:	f0 01       	movw	r30, r0
    68b2:	72 9f       	mul	r23, r18
    68b4:	bb 27       	eor	r27, r27
    68b6:	f0 0d       	add	r31, r0
    68b8:	b1 1d       	adc	r27, r1
    68ba:	63 9f       	mul	r22, r19
    68bc:	aa 27       	eor	r26, r26
    68be:	f0 0d       	add	r31, r0
    68c0:	b1 1d       	adc	r27, r1
    68c2:	aa 1f       	adc	r26, r26
    68c4:	64 9f       	mul	r22, r20
    68c6:	66 27       	eor	r22, r22
    68c8:	b0 0d       	add	r27, r0
    68ca:	a1 1d       	adc	r26, r1
    68cc:	66 1f       	adc	r22, r22
    68ce:	82 9f       	mul	r24, r18
    68d0:	22 27       	eor	r18, r18
    68d2:	b0 0d       	add	r27, r0
    68d4:	a1 1d       	adc	r26, r1
    68d6:	62 1f       	adc	r22, r18
    68d8:	73 9f       	mul	r23, r19
    68da:	b0 0d       	add	r27, r0
    68dc:	a1 1d       	adc	r26, r1
    68de:	62 1f       	adc	r22, r18
    68e0:	83 9f       	mul	r24, r19
    68e2:	a0 0d       	add	r26, r0
    68e4:	61 1d       	adc	r22, r1
    68e6:	22 1f       	adc	r18, r18
    68e8:	74 9f       	mul	r23, r20
    68ea:	33 27       	eor	r19, r19
    68ec:	a0 0d       	add	r26, r0
    68ee:	61 1d       	adc	r22, r1
    68f0:	23 1f       	adc	r18, r19
    68f2:	84 9f       	mul	r24, r20
    68f4:	60 0d       	add	r22, r0
    68f6:	21 1d       	adc	r18, r1
    68f8:	82 2f       	mov	r24, r18
    68fa:	76 2f       	mov	r23, r22
    68fc:	6a 2f       	mov	r22, r26
    68fe:	11 24       	eor	r1, r1
    6900:	9f 57       	subi	r25, 0x7F	; 127
    6902:	50 40       	sbci	r21, 0x00	; 0
    6904:	9a f0       	brmi	.+38     	; 0x692c <__mulsf3_pse+0x88>
    6906:	f1 f0       	breq	.+60     	; 0x6944 <__mulsf3_pse+0xa0>
    6908:	88 23       	and	r24, r24
    690a:	4a f0       	brmi	.+18     	; 0x691e <__mulsf3_pse+0x7a>
    690c:	ee 0f       	add	r30, r30
    690e:	ff 1f       	adc	r31, r31
    6910:	bb 1f       	adc	r27, r27
    6912:	66 1f       	adc	r22, r22
    6914:	77 1f       	adc	r23, r23
    6916:	88 1f       	adc	r24, r24
    6918:	91 50       	subi	r25, 0x01	; 1
    691a:	50 40       	sbci	r21, 0x00	; 0
    691c:	a9 f7       	brne	.-22     	; 0x6908 <__mulsf3_pse+0x64>
    691e:	9e 3f       	cpi	r25, 0xFE	; 254
    6920:	51 05       	cpc	r21, r1
    6922:	80 f0       	brcs	.+32     	; 0x6944 <__mulsf3_pse+0xa0>
    6924:	0c 94 db 33 	jmp	0x67b6	; 0x67b6 <__fp_inf>
    6928:	0c 94 36 34 	jmp	0x686c	; 0x686c <__fp_szero>
    692c:	5f 3f       	cpi	r21, 0xFF	; 255
    692e:	e4 f3       	brlt	.-8      	; 0x6928 <__mulsf3_pse+0x84>
    6930:	98 3e       	cpi	r25, 0xE8	; 232
    6932:	d4 f3       	brlt	.-12     	; 0x6928 <__mulsf3_pse+0x84>
    6934:	86 95       	lsr	r24
    6936:	77 95       	ror	r23
    6938:	67 95       	ror	r22
    693a:	b7 95       	ror	r27
    693c:	f7 95       	ror	r31
    693e:	e7 95       	ror	r30
    6940:	9f 5f       	subi	r25, 0xFF	; 255
    6942:	c1 f7       	brne	.-16     	; 0x6934 <__mulsf3_pse+0x90>
    6944:	fe 2b       	or	r31, r30
    6946:	88 0f       	add	r24, r24
    6948:	91 1d       	adc	r25, r1
    694a:	96 95       	lsr	r25
    694c:	87 95       	ror	r24
    694e:	97 f9       	bld	r25, 7
    6950:	08 95       	ret

00006952 <round>:
    6952:	0e 94 1b 34 	call	0x6836	; 0x6836 <__fp_splitA>
    6956:	e8 f0       	brcs	.+58     	; 0x6992 <round+0x40>
    6958:	9e 37       	cpi	r25, 0x7E	; 126
    695a:	e8 f0       	brcs	.+58     	; 0x6996 <round+0x44>
    695c:	96 39       	cpi	r25, 0x96	; 150
    695e:	b8 f4       	brcc	.+46     	; 0x698e <round+0x3c>
    6960:	9e 38       	cpi	r25, 0x8E	; 142
    6962:	48 f4       	brcc	.+18     	; 0x6976 <round+0x24>
    6964:	67 2f       	mov	r22, r23
    6966:	78 2f       	mov	r23, r24
    6968:	88 27       	eor	r24, r24
    696a:	98 5f       	subi	r25, 0xF8	; 248
    696c:	f9 cf       	rjmp	.-14     	; 0x6960 <round+0xe>
    696e:	86 95       	lsr	r24
    6970:	77 95       	ror	r23
    6972:	67 95       	ror	r22
    6974:	93 95       	inc	r25
    6976:	95 39       	cpi	r25, 0x95	; 149
    6978:	d0 f3       	brcs	.-12     	; 0x696e <round+0x1c>
    697a:	b6 2f       	mov	r27, r22
    697c:	b1 70       	andi	r27, 0x01	; 1
    697e:	6b 0f       	add	r22, r27
    6980:	71 1d       	adc	r23, r1
    6982:	81 1d       	adc	r24, r1
    6984:	20 f4       	brcc	.+8      	; 0x698e <round+0x3c>
    6986:	87 95       	ror	r24
    6988:	77 95       	ror	r23
    698a:	67 95       	ror	r22
    698c:	93 95       	inc	r25
    698e:	0c 94 cd 34 	jmp	0x699a	; 0x699a <__fp_mintl>
    6992:	0c 94 e8 34 	jmp	0x69d0	; 0x69d0 <__fp_mpack>
    6996:	0c 94 36 34 	jmp	0x686c	; 0x686c <__fp_szero>

0000699a <__fp_mintl>:
    699a:	88 23       	and	r24, r24
    699c:	71 f4       	brne	.+28     	; 0x69ba <__fp_mintl+0x20>
    699e:	77 23       	and	r23, r23
    69a0:	21 f0       	breq	.+8      	; 0x69aa <__fp_mintl+0x10>
    69a2:	98 50       	subi	r25, 0x08	; 8
    69a4:	87 2b       	or	r24, r23
    69a6:	76 2f       	mov	r23, r22
    69a8:	07 c0       	rjmp	.+14     	; 0x69b8 <__fp_mintl+0x1e>
    69aa:	66 23       	and	r22, r22
    69ac:	11 f4       	brne	.+4      	; 0x69b2 <__fp_mintl+0x18>
    69ae:	99 27       	eor	r25, r25
    69b0:	0d c0       	rjmp	.+26     	; 0x69cc <__fp_mintl+0x32>
    69b2:	90 51       	subi	r25, 0x10	; 16
    69b4:	86 2b       	or	r24, r22
    69b6:	70 e0       	ldi	r23, 0x00	; 0
    69b8:	60 e0       	ldi	r22, 0x00	; 0
    69ba:	2a f0       	brmi	.+10     	; 0x69c6 <__fp_mintl+0x2c>
    69bc:	9a 95       	dec	r25
    69be:	66 0f       	add	r22, r22
    69c0:	77 1f       	adc	r23, r23
    69c2:	88 1f       	adc	r24, r24
    69c4:	da f7       	brpl	.-10     	; 0x69bc <__fp_mintl+0x22>
    69c6:	88 0f       	add	r24, r24
    69c8:	96 95       	lsr	r25
    69ca:	87 95       	ror	r24
    69cc:	97 f9       	bld	r25, 7
    69ce:	08 95       	ret

000069d0 <__fp_mpack>:
    69d0:	9f 3f       	cpi	r25, 0xFF	; 255
    69d2:	31 f0       	breq	.+12     	; 0x69e0 <__fp_mpack_finite+0xc>

000069d4 <__fp_mpack_finite>:
    69d4:	91 50       	subi	r25, 0x01	; 1
    69d6:	20 f4       	brcc	.+8      	; 0x69e0 <__fp_mpack_finite+0xc>
    69d8:	87 95       	ror	r24
    69da:	77 95       	ror	r23
    69dc:	67 95       	ror	r22
    69de:	b7 95       	ror	r27
    69e0:	88 0f       	add	r24, r24
    69e2:	91 1d       	adc	r25, r1
    69e4:	96 95       	lsr	r25
    69e6:	87 95       	ror	r24
    69e8:	97 f9       	bld	r25, 7
    69ea:	08 95       	ret

000069ec <vfprintf>:
    69ec:	2f 92       	push	r2
    69ee:	3f 92       	push	r3
    69f0:	4f 92       	push	r4
    69f2:	5f 92       	push	r5
    69f4:	6f 92       	push	r6
    69f6:	7f 92       	push	r7
    69f8:	8f 92       	push	r8
    69fa:	9f 92       	push	r9
    69fc:	af 92       	push	r10
    69fe:	bf 92       	push	r11
    6a00:	cf 92       	push	r12
    6a02:	df 92       	push	r13
    6a04:	ef 92       	push	r14
    6a06:	ff 92       	push	r15
    6a08:	0f 93       	push	r16
    6a0a:	1f 93       	push	r17
    6a0c:	cf 93       	push	r28
    6a0e:	df 93       	push	r29
    6a10:	cd b7       	in	r28, 0x3d	; 61
    6a12:	de b7       	in	r29, 0x3e	; 62
    6a14:	60 97       	sbiw	r28, 0x10	; 16
    6a16:	cd bf       	out	0x3d, r28	; 61
    6a18:	de bf       	out	0x3e, r29	; 62
    6a1a:	7c 01       	movw	r14, r24
    6a1c:	1b 01       	movw	r2, r22
    6a1e:	6a 01       	movw	r12, r20
    6a20:	fc 01       	movw	r30, r24
    6a22:	16 82       	std	Z+6, r1	; 0x06
    6a24:	17 82       	std	Z+7, r1	; 0x07
    6a26:	83 81       	ldd	r24, Z+3	; 0x03
    6a28:	81 ff       	sbrs	r24, 1
    6a2a:	44 c3       	rjmp	.+1672   	; 0x70b4 <vfprintf+0x6c8>
    6a2c:	9e 01       	movw	r18, r28
    6a2e:	2f 5f       	subi	r18, 0xFF	; 255
    6a30:	3f 4f       	sbci	r19, 0xFF	; 255
    6a32:	39 01       	movw	r6, r18
    6a34:	f7 01       	movw	r30, r14
    6a36:	93 81       	ldd	r25, Z+3	; 0x03
    6a38:	f1 01       	movw	r30, r2
    6a3a:	93 fd       	sbrc	r25, 3
    6a3c:	85 91       	lpm	r24, Z+
    6a3e:	93 ff       	sbrs	r25, 3
    6a40:	81 91       	ld	r24, Z+
    6a42:	1f 01       	movw	r2, r30
    6a44:	88 23       	and	r24, r24
    6a46:	09 f4       	brne	.+2      	; 0x6a4a <vfprintf+0x5e>
    6a48:	31 c3       	rjmp	.+1634   	; 0x70ac <vfprintf+0x6c0>
    6a4a:	85 32       	cpi	r24, 0x25	; 37
    6a4c:	39 f4       	brne	.+14     	; 0x6a5c <vfprintf+0x70>
    6a4e:	93 fd       	sbrc	r25, 3
    6a50:	85 91       	lpm	r24, Z+
    6a52:	93 ff       	sbrs	r25, 3
    6a54:	81 91       	ld	r24, Z+
    6a56:	1f 01       	movw	r2, r30
    6a58:	85 32       	cpi	r24, 0x25	; 37
    6a5a:	39 f4       	brne	.+14     	; 0x6a6a <vfprintf+0x7e>
    6a5c:	b7 01       	movw	r22, r14
    6a5e:	90 e0       	ldi	r25, 0x00	; 0
    6a60:	0e 94 2a 3d 	call	0x7a54	; 0x7a54 <fputc>
    6a64:	56 01       	movw	r10, r12
    6a66:	65 01       	movw	r12, r10
    6a68:	e5 cf       	rjmp	.-54     	; 0x6a34 <vfprintf+0x48>
    6a6a:	10 e0       	ldi	r17, 0x00	; 0
    6a6c:	51 2c       	mov	r5, r1
    6a6e:	91 2c       	mov	r9, r1
    6a70:	ff e1       	ldi	r31, 0x1F	; 31
    6a72:	f9 15       	cp	r31, r9
    6a74:	d8 f0       	brcs	.+54     	; 0x6aac <vfprintf+0xc0>
    6a76:	8b 32       	cpi	r24, 0x2B	; 43
    6a78:	79 f0       	breq	.+30     	; 0x6a98 <vfprintf+0xac>
    6a7a:	38 f4       	brcc	.+14     	; 0x6a8a <vfprintf+0x9e>
    6a7c:	80 32       	cpi	r24, 0x20	; 32
    6a7e:	79 f0       	breq	.+30     	; 0x6a9e <vfprintf+0xb2>
    6a80:	83 32       	cpi	r24, 0x23	; 35
    6a82:	a1 f4       	brne	.+40     	; 0x6aac <vfprintf+0xc0>
    6a84:	f9 2d       	mov	r31, r9
    6a86:	f0 61       	ori	r31, 0x10	; 16
    6a88:	2e c0       	rjmp	.+92     	; 0x6ae6 <vfprintf+0xfa>
    6a8a:	8d 32       	cpi	r24, 0x2D	; 45
    6a8c:	61 f0       	breq	.+24     	; 0x6aa6 <vfprintf+0xba>
    6a8e:	80 33       	cpi	r24, 0x30	; 48
    6a90:	69 f4       	brne	.+26     	; 0x6aac <vfprintf+0xc0>
    6a92:	29 2d       	mov	r18, r9
    6a94:	21 60       	ori	r18, 0x01	; 1
    6a96:	2d c0       	rjmp	.+90     	; 0x6af2 <vfprintf+0x106>
    6a98:	39 2d       	mov	r19, r9
    6a9a:	32 60       	ori	r19, 0x02	; 2
    6a9c:	93 2e       	mov	r9, r19
    6a9e:	89 2d       	mov	r24, r9
    6aa0:	84 60       	ori	r24, 0x04	; 4
    6aa2:	98 2e       	mov	r9, r24
    6aa4:	2a c0       	rjmp	.+84     	; 0x6afa <vfprintf+0x10e>
    6aa6:	e9 2d       	mov	r30, r9
    6aa8:	e8 60       	ori	r30, 0x08	; 8
    6aaa:	15 c0       	rjmp	.+42     	; 0x6ad6 <vfprintf+0xea>
    6aac:	97 fc       	sbrc	r9, 7
    6aae:	2d c0       	rjmp	.+90     	; 0x6b0a <vfprintf+0x11e>
    6ab0:	20 ed       	ldi	r18, 0xD0	; 208
    6ab2:	28 0f       	add	r18, r24
    6ab4:	2a 30       	cpi	r18, 0x0A	; 10
    6ab6:	88 f4       	brcc	.+34     	; 0x6ada <vfprintf+0xee>
    6ab8:	96 fe       	sbrs	r9, 6
    6aba:	06 c0       	rjmp	.+12     	; 0x6ac8 <vfprintf+0xdc>
    6abc:	3a e0       	ldi	r19, 0x0A	; 10
    6abe:	13 9f       	mul	r17, r19
    6ac0:	20 0d       	add	r18, r0
    6ac2:	11 24       	eor	r1, r1
    6ac4:	12 2f       	mov	r17, r18
    6ac6:	19 c0       	rjmp	.+50     	; 0x6afa <vfprintf+0x10e>
    6ac8:	8a e0       	ldi	r24, 0x0A	; 10
    6aca:	58 9e       	mul	r5, r24
    6acc:	20 0d       	add	r18, r0
    6ace:	11 24       	eor	r1, r1
    6ad0:	52 2e       	mov	r5, r18
    6ad2:	e9 2d       	mov	r30, r9
    6ad4:	e0 62       	ori	r30, 0x20	; 32
    6ad6:	9e 2e       	mov	r9, r30
    6ad8:	10 c0       	rjmp	.+32     	; 0x6afa <vfprintf+0x10e>
    6ada:	8e 32       	cpi	r24, 0x2E	; 46
    6adc:	31 f4       	brne	.+12     	; 0x6aea <vfprintf+0xfe>
    6ade:	96 fc       	sbrc	r9, 6
    6ae0:	e5 c2       	rjmp	.+1482   	; 0x70ac <vfprintf+0x6c0>
    6ae2:	f9 2d       	mov	r31, r9
    6ae4:	f0 64       	ori	r31, 0x40	; 64
    6ae6:	9f 2e       	mov	r9, r31
    6ae8:	08 c0       	rjmp	.+16     	; 0x6afa <vfprintf+0x10e>
    6aea:	8c 36       	cpi	r24, 0x6C	; 108
    6aec:	21 f4       	brne	.+8      	; 0x6af6 <vfprintf+0x10a>
    6aee:	29 2d       	mov	r18, r9
    6af0:	20 68       	ori	r18, 0x80	; 128
    6af2:	92 2e       	mov	r9, r18
    6af4:	02 c0       	rjmp	.+4      	; 0x6afa <vfprintf+0x10e>
    6af6:	88 36       	cpi	r24, 0x68	; 104
    6af8:	41 f4       	brne	.+16     	; 0x6b0a <vfprintf+0x11e>
    6afa:	f1 01       	movw	r30, r2
    6afc:	93 fd       	sbrc	r25, 3
    6afe:	85 91       	lpm	r24, Z+
    6b00:	93 ff       	sbrs	r25, 3
    6b02:	81 91       	ld	r24, Z+
    6b04:	1f 01       	movw	r2, r30
    6b06:	81 11       	cpse	r24, r1
    6b08:	b3 cf       	rjmp	.-154    	; 0x6a70 <vfprintf+0x84>
    6b0a:	9b eb       	ldi	r25, 0xBB	; 187
    6b0c:	98 0f       	add	r25, r24
    6b0e:	93 30       	cpi	r25, 0x03	; 3
    6b10:	20 f4       	brcc	.+8      	; 0x6b1a <vfprintf+0x12e>
    6b12:	99 2d       	mov	r25, r9
    6b14:	90 61       	ori	r25, 0x10	; 16
    6b16:	80 5e       	subi	r24, 0xE0	; 224
    6b18:	07 c0       	rjmp	.+14     	; 0x6b28 <vfprintf+0x13c>
    6b1a:	9b e9       	ldi	r25, 0x9B	; 155
    6b1c:	98 0f       	add	r25, r24
    6b1e:	93 30       	cpi	r25, 0x03	; 3
    6b20:	08 f0       	brcs	.+2      	; 0x6b24 <vfprintf+0x138>
    6b22:	66 c1       	rjmp	.+716    	; 0x6df0 <vfprintf+0x404>
    6b24:	99 2d       	mov	r25, r9
    6b26:	9f 7e       	andi	r25, 0xEF	; 239
    6b28:	96 ff       	sbrs	r25, 6
    6b2a:	16 e0       	ldi	r17, 0x06	; 6
    6b2c:	9f 73       	andi	r25, 0x3F	; 63
    6b2e:	99 2e       	mov	r9, r25
    6b30:	85 36       	cpi	r24, 0x65	; 101
    6b32:	19 f4       	brne	.+6      	; 0x6b3a <vfprintf+0x14e>
    6b34:	90 64       	ori	r25, 0x40	; 64
    6b36:	99 2e       	mov	r9, r25
    6b38:	08 c0       	rjmp	.+16     	; 0x6b4a <vfprintf+0x15e>
    6b3a:	86 36       	cpi	r24, 0x66	; 102
    6b3c:	21 f4       	brne	.+8      	; 0x6b46 <vfprintf+0x15a>
    6b3e:	39 2f       	mov	r19, r25
    6b40:	30 68       	ori	r19, 0x80	; 128
    6b42:	93 2e       	mov	r9, r19
    6b44:	02 c0       	rjmp	.+4      	; 0x6b4a <vfprintf+0x15e>
    6b46:	11 11       	cpse	r17, r1
    6b48:	11 50       	subi	r17, 0x01	; 1
    6b4a:	97 fe       	sbrs	r9, 7
    6b4c:	07 c0       	rjmp	.+14     	; 0x6b5c <vfprintf+0x170>
    6b4e:	1c 33       	cpi	r17, 0x3C	; 60
    6b50:	50 f4       	brcc	.+20     	; 0x6b66 <vfprintf+0x17a>
    6b52:	44 24       	eor	r4, r4
    6b54:	43 94       	inc	r4
    6b56:	41 0e       	add	r4, r17
    6b58:	27 e0       	ldi	r18, 0x07	; 7
    6b5a:	0b c0       	rjmp	.+22     	; 0x6b72 <vfprintf+0x186>
    6b5c:	18 30       	cpi	r17, 0x08	; 8
    6b5e:	38 f0       	brcs	.+14     	; 0x6b6e <vfprintf+0x182>
    6b60:	27 e0       	ldi	r18, 0x07	; 7
    6b62:	17 e0       	ldi	r17, 0x07	; 7
    6b64:	05 c0       	rjmp	.+10     	; 0x6b70 <vfprintf+0x184>
    6b66:	27 e0       	ldi	r18, 0x07	; 7
    6b68:	9c e3       	ldi	r25, 0x3C	; 60
    6b6a:	49 2e       	mov	r4, r25
    6b6c:	02 c0       	rjmp	.+4      	; 0x6b72 <vfprintf+0x186>
    6b6e:	21 2f       	mov	r18, r17
    6b70:	41 2c       	mov	r4, r1
    6b72:	56 01       	movw	r10, r12
    6b74:	84 e0       	ldi	r24, 0x04	; 4
    6b76:	a8 0e       	add	r10, r24
    6b78:	b1 1c       	adc	r11, r1
    6b7a:	f6 01       	movw	r30, r12
    6b7c:	60 81       	ld	r22, Z
    6b7e:	71 81       	ldd	r23, Z+1	; 0x01
    6b80:	82 81       	ldd	r24, Z+2	; 0x02
    6b82:	93 81       	ldd	r25, Z+3	; 0x03
    6b84:	04 2d       	mov	r16, r4
    6b86:	a3 01       	movw	r20, r6
    6b88:	0e 94 fd 3b 	call	0x77fa	; 0x77fa <__ftoa_engine>
    6b8c:	6c 01       	movw	r12, r24
    6b8e:	f9 81       	ldd	r31, Y+1	; 0x01
    6b90:	fc 87       	std	Y+12, r31	; 0x0c
    6b92:	f0 ff       	sbrs	r31, 0
    6b94:	02 c0       	rjmp	.+4      	; 0x6b9a <vfprintf+0x1ae>
    6b96:	f3 ff       	sbrs	r31, 3
    6b98:	06 c0       	rjmp	.+12     	; 0x6ba6 <vfprintf+0x1ba>
    6b9a:	91 fc       	sbrc	r9, 1
    6b9c:	06 c0       	rjmp	.+12     	; 0x6baa <vfprintf+0x1be>
    6b9e:	92 fe       	sbrs	r9, 2
    6ba0:	06 c0       	rjmp	.+12     	; 0x6bae <vfprintf+0x1c2>
    6ba2:	00 e2       	ldi	r16, 0x20	; 32
    6ba4:	05 c0       	rjmp	.+10     	; 0x6bb0 <vfprintf+0x1c4>
    6ba6:	0d e2       	ldi	r16, 0x2D	; 45
    6ba8:	03 c0       	rjmp	.+6      	; 0x6bb0 <vfprintf+0x1c4>
    6baa:	0b e2       	ldi	r16, 0x2B	; 43
    6bac:	01 c0       	rjmp	.+2      	; 0x6bb0 <vfprintf+0x1c4>
    6bae:	00 e0       	ldi	r16, 0x00	; 0
    6bb0:	8c 85       	ldd	r24, Y+12	; 0x0c
    6bb2:	8c 70       	andi	r24, 0x0C	; 12
    6bb4:	19 f0       	breq	.+6      	; 0x6bbc <vfprintf+0x1d0>
    6bb6:	01 11       	cpse	r16, r1
    6bb8:	5a c2       	rjmp	.+1204   	; 0x706e <vfprintf+0x682>
    6bba:	9b c2       	rjmp	.+1334   	; 0x70f2 <vfprintf+0x706>
    6bbc:	97 fe       	sbrs	r9, 7
    6bbe:	10 c0       	rjmp	.+32     	; 0x6be0 <vfprintf+0x1f4>
    6bc0:	4c 0c       	add	r4, r12
    6bc2:	fc 85       	ldd	r31, Y+12	; 0x0c
    6bc4:	f4 ff       	sbrs	r31, 4
    6bc6:	04 c0       	rjmp	.+8      	; 0x6bd0 <vfprintf+0x1e4>
    6bc8:	8a 81       	ldd	r24, Y+2	; 0x02
    6bca:	81 33       	cpi	r24, 0x31	; 49
    6bcc:	09 f4       	brne	.+2      	; 0x6bd0 <vfprintf+0x1e4>
    6bce:	4a 94       	dec	r4
    6bd0:	14 14       	cp	r1, r4
    6bd2:	74 f5       	brge	.+92     	; 0x6c30 <vfprintf+0x244>
    6bd4:	28 e0       	ldi	r18, 0x08	; 8
    6bd6:	24 15       	cp	r18, r4
    6bd8:	78 f5       	brcc	.+94     	; 0x6c38 <vfprintf+0x24c>
    6bda:	88 e0       	ldi	r24, 0x08	; 8
    6bdc:	48 2e       	mov	r4, r24
    6bde:	2c c0       	rjmp	.+88     	; 0x6c38 <vfprintf+0x24c>
    6be0:	96 fc       	sbrc	r9, 6
    6be2:	2a c0       	rjmp	.+84     	; 0x6c38 <vfprintf+0x24c>
    6be4:	81 2f       	mov	r24, r17
    6be6:	90 e0       	ldi	r25, 0x00	; 0
    6be8:	8c 15       	cp	r24, r12
    6bea:	9d 05       	cpc	r25, r13
    6bec:	9c f0       	brlt	.+38     	; 0x6c14 <vfprintf+0x228>
    6bee:	3c ef       	ldi	r19, 0xFC	; 252
    6bf0:	c3 16       	cp	r12, r19
    6bf2:	3f ef       	ldi	r19, 0xFF	; 255
    6bf4:	d3 06       	cpc	r13, r19
    6bf6:	74 f0       	brlt	.+28     	; 0x6c14 <vfprintf+0x228>
    6bf8:	89 2d       	mov	r24, r9
    6bfa:	80 68       	ori	r24, 0x80	; 128
    6bfc:	98 2e       	mov	r9, r24
    6bfe:	0a c0       	rjmp	.+20     	; 0x6c14 <vfprintf+0x228>
    6c00:	e2 e0       	ldi	r30, 0x02	; 2
    6c02:	f0 e0       	ldi	r31, 0x00	; 0
    6c04:	ec 0f       	add	r30, r28
    6c06:	fd 1f       	adc	r31, r29
    6c08:	e1 0f       	add	r30, r17
    6c0a:	f1 1d       	adc	r31, r1
    6c0c:	80 81       	ld	r24, Z
    6c0e:	80 33       	cpi	r24, 0x30	; 48
    6c10:	19 f4       	brne	.+6      	; 0x6c18 <vfprintf+0x22c>
    6c12:	11 50       	subi	r17, 0x01	; 1
    6c14:	11 11       	cpse	r17, r1
    6c16:	f4 cf       	rjmp	.-24     	; 0x6c00 <vfprintf+0x214>
    6c18:	97 fe       	sbrs	r9, 7
    6c1a:	0e c0       	rjmp	.+28     	; 0x6c38 <vfprintf+0x24c>
    6c1c:	44 24       	eor	r4, r4
    6c1e:	43 94       	inc	r4
    6c20:	41 0e       	add	r4, r17
    6c22:	81 2f       	mov	r24, r17
    6c24:	90 e0       	ldi	r25, 0x00	; 0
    6c26:	c8 16       	cp	r12, r24
    6c28:	d9 06       	cpc	r13, r25
    6c2a:	2c f4       	brge	.+10     	; 0x6c36 <vfprintf+0x24a>
    6c2c:	1c 19       	sub	r17, r12
    6c2e:	04 c0       	rjmp	.+8      	; 0x6c38 <vfprintf+0x24c>
    6c30:	44 24       	eor	r4, r4
    6c32:	43 94       	inc	r4
    6c34:	01 c0       	rjmp	.+2      	; 0x6c38 <vfprintf+0x24c>
    6c36:	10 e0       	ldi	r17, 0x00	; 0
    6c38:	97 fe       	sbrs	r9, 7
    6c3a:	06 c0       	rjmp	.+12     	; 0x6c48 <vfprintf+0x25c>
    6c3c:	1c 14       	cp	r1, r12
    6c3e:	1d 04       	cpc	r1, r13
    6c40:	34 f4       	brge	.+12     	; 0x6c4e <vfprintf+0x262>
    6c42:	c6 01       	movw	r24, r12
    6c44:	01 96       	adiw	r24, 0x01	; 1
    6c46:	05 c0       	rjmp	.+10     	; 0x6c52 <vfprintf+0x266>
    6c48:	85 e0       	ldi	r24, 0x05	; 5
    6c4a:	90 e0       	ldi	r25, 0x00	; 0
    6c4c:	02 c0       	rjmp	.+4      	; 0x6c52 <vfprintf+0x266>
    6c4e:	81 e0       	ldi	r24, 0x01	; 1
    6c50:	90 e0       	ldi	r25, 0x00	; 0
    6c52:	01 11       	cpse	r16, r1
    6c54:	01 96       	adiw	r24, 0x01	; 1
    6c56:	11 23       	and	r17, r17
    6c58:	31 f0       	breq	.+12     	; 0x6c66 <vfprintf+0x27a>
    6c5a:	21 2f       	mov	r18, r17
    6c5c:	30 e0       	ldi	r19, 0x00	; 0
    6c5e:	2f 5f       	subi	r18, 0xFF	; 255
    6c60:	3f 4f       	sbci	r19, 0xFF	; 255
    6c62:	82 0f       	add	r24, r18
    6c64:	93 1f       	adc	r25, r19
    6c66:	25 2d       	mov	r18, r5
    6c68:	30 e0       	ldi	r19, 0x00	; 0
    6c6a:	82 17       	cp	r24, r18
    6c6c:	93 07       	cpc	r25, r19
    6c6e:	14 f4       	brge	.+4      	; 0x6c74 <vfprintf+0x288>
    6c70:	58 1a       	sub	r5, r24
    6c72:	01 c0       	rjmp	.+2      	; 0x6c76 <vfprintf+0x28a>
    6c74:	51 2c       	mov	r5, r1
    6c76:	89 2d       	mov	r24, r9
    6c78:	89 70       	andi	r24, 0x09	; 9
    6c7a:	49 f4       	brne	.+18     	; 0x6c8e <vfprintf+0x2a2>
    6c7c:	55 20       	and	r5, r5
    6c7e:	39 f0       	breq	.+14     	; 0x6c8e <vfprintf+0x2a2>
    6c80:	b7 01       	movw	r22, r14
    6c82:	80 e2       	ldi	r24, 0x20	; 32
    6c84:	90 e0       	ldi	r25, 0x00	; 0
    6c86:	0e 94 2a 3d 	call	0x7a54	; 0x7a54 <fputc>
    6c8a:	5a 94       	dec	r5
    6c8c:	f7 cf       	rjmp	.-18     	; 0x6c7c <vfprintf+0x290>
    6c8e:	00 23       	and	r16, r16
    6c90:	29 f0       	breq	.+10     	; 0x6c9c <vfprintf+0x2b0>
    6c92:	b7 01       	movw	r22, r14
    6c94:	80 2f       	mov	r24, r16
    6c96:	90 e0       	ldi	r25, 0x00	; 0
    6c98:	0e 94 2a 3d 	call	0x7a54	; 0x7a54 <fputc>
    6c9c:	93 fc       	sbrc	r9, 3
    6c9e:	09 c0       	rjmp	.+18     	; 0x6cb2 <vfprintf+0x2c6>
    6ca0:	55 20       	and	r5, r5
    6ca2:	39 f0       	breq	.+14     	; 0x6cb2 <vfprintf+0x2c6>
    6ca4:	b7 01       	movw	r22, r14
    6ca6:	80 e3       	ldi	r24, 0x30	; 48
    6ca8:	90 e0       	ldi	r25, 0x00	; 0
    6caa:	0e 94 2a 3d 	call	0x7a54	; 0x7a54 <fputc>
    6cae:	5a 94       	dec	r5
    6cb0:	f7 cf       	rjmp	.-18     	; 0x6ca0 <vfprintf+0x2b4>
    6cb2:	97 fe       	sbrs	r9, 7
    6cb4:	4c c0       	rjmp	.+152    	; 0x6d4e <vfprintf+0x362>
    6cb6:	46 01       	movw	r8, r12
    6cb8:	d7 fe       	sbrs	r13, 7
    6cba:	02 c0       	rjmp	.+4      	; 0x6cc0 <vfprintf+0x2d4>
    6cbc:	81 2c       	mov	r8, r1
    6cbe:	91 2c       	mov	r9, r1
    6cc0:	c6 01       	movw	r24, r12
    6cc2:	88 19       	sub	r24, r8
    6cc4:	99 09       	sbc	r25, r9
    6cc6:	f3 01       	movw	r30, r6
    6cc8:	e8 0f       	add	r30, r24
    6cca:	f9 1f       	adc	r31, r25
    6ccc:	ed 87       	std	Y+13, r30	; 0x0d
    6cce:	fe 87       	std	Y+14, r31	; 0x0e
    6cd0:	96 01       	movw	r18, r12
    6cd2:	24 19       	sub	r18, r4
    6cd4:	31 09       	sbc	r19, r1
    6cd6:	2f 87       	std	Y+15, r18	; 0x0f
    6cd8:	38 8b       	std	Y+16, r19	; 0x10
    6cda:	01 2f       	mov	r16, r17
    6cdc:	10 e0       	ldi	r17, 0x00	; 0
    6cde:	11 95       	neg	r17
    6ce0:	01 95       	neg	r16
    6ce2:	11 09       	sbc	r17, r1
    6ce4:	3f ef       	ldi	r19, 0xFF	; 255
    6ce6:	83 16       	cp	r8, r19
    6ce8:	93 06       	cpc	r9, r19
    6cea:	29 f4       	brne	.+10     	; 0x6cf6 <vfprintf+0x30a>
    6cec:	b7 01       	movw	r22, r14
    6cee:	8e e2       	ldi	r24, 0x2E	; 46
    6cf0:	90 e0       	ldi	r25, 0x00	; 0
    6cf2:	0e 94 2a 3d 	call	0x7a54	; 0x7a54 <fputc>
    6cf6:	c8 14       	cp	r12, r8
    6cf8:	d9 04       	cpc	r13, r9
    6cfa:	4c f0       	brlt	.+18     	; 0x6d0e <vfprintf+0x322>
    6cfc:	8f 85       	ldd	r24, Y+15	; 0x0f
    6cfe:	98 89       	ldd	r25, Y+16	; 0x10
    6d00:	88 15       	cp	r24, r8
    6d02:	99 05       	cpc	r25, r9
    6d04:	24 f4       	brge	.+8      	; 0x6d0e <vfprintf+0x322>
    6d06:	ed 85       	ldd	r30, Y+13	; 0x0d
    6d08:	fe 85       	ldd	r31, Y+14	; 0x0e
    6d0a:	81 81       	ldd	r24, Z+1	; 0x01
    6d0c:	01 c0       	rjmp	.+2      	; 0x6d10 <vfprintf+0x324>
    6d0e:	80 e3       	ldi	r24, 0x30	; 48
    6d10:	f1 e0       	ldi	r31, 0x01	; 1
    6d12:	8f 1a       	sub	r8, r31
    6d14:	91 08       	sbc	r9, r1
    6d16:	2d 85       	ldd	r18, Y+13	; 0x0d
    6d18:	3e 85       	ldd	r19, Y+14	; 0x0e
    6d1a:	2f 5f       	subi	r18, 0xFF	; 255
    6d1c:	3f 4f       	sbci	r19, 0xFF	; 255
    6d1e:	2d 87       	std	Y+13, r18	; 0x0d
    6d20:	3e 87       	std	Y+14, r19	; 0x0e
    6d22:	80 16       	cp	r8, r16
    6d24:	91 06       	cpc	r9, r17
    6d26:	2c f0       	brlt	.+10     	; 0x6d32 <vfprintf+0x346>
    6d28:	b7 01       	movw	r22, r14
    6d2a:	90 e0       	ldi	r25, 0x00	; 0
    6d2c:	0e 94 2a 3d 	call	0x7a54	; 0x7a54 <fputc>
    6d30:	d9 cf       	rjmp	.-78     	; 0x6ce4 <vfprintf+0x2f8>
    6d32:	c8 14       	cp	r12, r8
    6d34:	d9 04       	cpc	r13, r9
    6d36:	41 f4       	brne	.+16     	; 0x6d48 <vfprintf+0x35c>
    6d38:	9a 81       	ldd	r25, Y+2	; 0x02
    6d3a:	96 33       	cpi	r25, 0x36	; 54
    6d3c:	20 f4       	brcc	.+8      	; 0x6d46 <vfprintf+0x35a>
    6d3e:	95 33       	cpi	r25, 0x35	; 53
    6d40:	19 f4       	brne	.+6      	; 0x6d48 <vfprintf+0x35c>
    6d42:	3c 85       	ldd	r19, Y+12	; 0x0c
    6d44:	34 ff       	sbrs	r19, 4
    6d46:	81 e3       	ldi	r24, 0x31	; 49
    6d48:	b7 01       	movw	r22, r14
    6d4a:	90 e0       	ldi	r25, 0x00	; 0
    6d4c:	4e c0       	rjmp	.+156    	; 0x6dea <vfprintf+0x3fe>
    6d4e:	8a 81       	ldd	r24, Y+2	; 0x02
    6d50:	81 33       	cpi	r24, 0x31	; 49
    6d52:	19 f0       	breq	.+6      	; 0x6d5a <vfprintf+0x36e>
    6d54:	9c 85       	ldd	r25, Y+12	; 0x0c
    6d56:	9f 7e       	andi	r25, 0xEF	; 239
    6d58:	9c 87       	std	Y+12, r25	; 0x0c
    6d5a:	b7 01       	movw	r22, r14
    6d5c:	90 e0       	ldi	r25, 0x00	; 0
    6d5e:	0e 94 2a 3d 	call	0x7a54	; 0x7a54 <fputc>
    6d62:	11 11       	cpse	r17, r1
    6d64:	05 c0       	rjmp	.+10     	; 0x6d70 <vfprintf+0x384>
    6d66:	94 fc       	sbrc	r9, 4
    6d68:	18 c0       	rjmp	.+48     	; 0x6d9a <vfprintf+0x3ae>
    6d6a:	85 e6       	ldi	r24, 0x65	; 101
    6d6c:	90 e0       	ldi	r25, 0x00	; 0
    6d6e:	17 c0       	rjmp	.+46     	; 0x6d9e <vfprintf+0x3b2>
    6d70:	b7 01       	movw	r22, r14
    6d72:	8e e2       	ldi	r24, 0x2E	; 46
    6d74:	90 e0       	ldi	r25, 0x00	; 0
    6d76:	0e 94 2a 3d 	call	0x7a54	; 0x7a54 <fputc>
    6d7a:	1e 5f       	subi	r17, 0xFE	; 254
    6d7c:	82 e0       	ldi	r24, 0x02	; 2
    6d7e:	01 e0       	ldi	r16, 0x01	; 1
    6d80:	08 0f       	add	r16, r24
    6d82:	f3 01       	movw	r30, r6
    6d84:	e8 0f       	add	r30, r24
    6d86:	f1 1d       	adc	r31, r1
    6d88:	80 81       	ld	r24, Z
    6d8a:	b7 01       	movw	r22, r14
    6d8c:	90 e0       	ldi	r25, 0x00	; 0
    6d8e:	0e 94 2a 3d 	call	0x7a54	; 0x7a54 <fputc>
    6d92:	80 2f       	mov	r24, r16
    6d94:	01 13       	cpse	r16, r17
    6d96:	f3 cf       	rjmp	.-26     	; 0x6d7e <vfprintf+0x392>
    6d98:	e6 cf       	rjmp	.-52     	; 0x6d66 <vfprintf+0x37a>
    6d9a:	85 e4       	ldi	r24, 0x45	; 69
    6d9c:	90 e0       	ldi	r25, 0x00	; 0
    6d9e:	b7 01       	movw	r22, r14
    6da0:	0e 94 2a 3d 	call	0x7a54	; 0x7a54 <fputc>
    6da4:	d7 fc       	sbrc	r13, 7
    6da6:	06 c0       	rjmp	.+12     	; 0x6db4 <vfprintf+0x3c8>
    6da8:	c1 14       	cp	r12, r1
    6daa:	d1 04       	cpc	r13, r1
    6dac:	41 f4       	brne	.+16     	; 0x6dbe <vfprintf+0x3d2>
    6dae:	ec 85       	ldd	r30, Y+12	; 0x0c
    6db0:	e4 ff       	sbrs	r30, 4
    6db2:	05 c0       	rjmp	.+10     	; 0x6dbe <vfprintf+0x3d2>
    6db4:	d1 94       	neg	r13
    6db6:	c1 94       	neg	r12
    6db8:	d1 08       	sbc	r13, r1
    6dba:	8d e2       	ldi	r24, 0x2D	; 45
    6dbc:	01 c0       	rjmp	.+2      	; 0x6dc0 <vfprintf+0x3d4>
    6dbe:	8b e2       	ldi	r24, 0x2B	; 43
    6dc0:	b7 01       	movw	r22, r14
    6dc2:	90 e0       	ldi	r25, 0x00	; 0
    6dc4:	0e 94 2a 3d 	call	0x7a54	; 0x7a54 <fputc>
    6dc8:	80 e3       	ldi	r24, 0x30	; 48
    6dca:	2a e0       	ldi	r18, 0x0A	; 10
    6dcc:	c2 16       	cp	r12, r18
    6dce:	d1 04       	cpc	r13, r1
    6dd0:	2c f0       	brlt	.+10     	; 0x6ddc <vfprintf+0x3f0>
    6dd2:	8f 5f       	subi	r24, 0xFF	; 255
    6dd4:	fa e0       	ldi	r31, 0x0A	; 10
    6dd6:	cf 1a       	sub	r12, r31
    6dd8:	d1 08       	sbc	r13, r1
    6dda:	f7 cf       	rjmp	.-18     	; 0x6dca <vfprintf+0x3de>
    6ddc:	b7 01       	movw	r22, r14
    6dde:	90 e0       	ldi	r25, 0x00	; 0
    6de0:	0e 94 2a 3d 	call	0x7a54	; 0x7a54 <fputc>
    6de4:	b7 01       	movw	r22, r14
    6de6:	c6 01       	movw	r24, r12
    6de8:	c0 96       	adiw	r24, 0x30	; 48
    6dea:	0e 94 2a 3d 	call	0x7a54	; 0x7a54 <fputc>
    6dee:	54 c1       	rjmp	.+680    	; 0x7098 <vfprintf+0x6ac>
    6df0:	83 36       	cpi	r24, 0x63	; 99
    6df2:	31 f0       	breq	.+12     	; 0x6e00 <vfprintf+0x414>
    6df4:	83 37       	cpi	r24, 0x73	; 115
    6df6:	79 f0       	breq	.+30     	; 0x6e16 <vfprintf+0x42a>
    6df8:	83 35       	cpi	r24, 0x53	; 83
    6dfa:	09 f0       	breq	.+2      	; 0x6dfe <vfprintf+0x412>
    6dfc:	56 c0       	rjmp	.+172    	; 0x6eaa <vfprintf+0x4be>
    6dfe:	20 c0       	rjmp	.+64     	; 0x6e40 <vfprintf+0x454>
    6e00:	56 01       	movw	r10, r12
    6e02:	32 e0       	ldi	r19, 0x02	; 2
    6e04:	a3 0e       	add	r10, r19
    6e06:	b1 1c       	adc	r11, r1
    6e08:	f6 01       	movw	r30, r12
    6e0a:	80 81       	ld	r24, Z
    6e0c:	89 83       	std	Y+1, r24	; 0x01
    6e0e:	01 e0       	ldi	r16, 0x01	; 1
    6e10:	10 e0       	ldi	r17, 0x00	; 0
    6e12:	63 01       	movw	r12, r6
    6e14:	12 c0       	rjmp	.+36     	; 0x6e3a <vfprintf+0x44e>
    6e16:	56 01       	movw	r10, r12
    6e18:	f2 e0       	ldi	r31, 0x02	; 2
    6e1a:	af 0e       	add	r10, r31
    6e1c:	b1 1c       	adc	r11, r1
    6e1e:	f6 01       	movw	r30, r12
    6e20:	c0 80       	ld	r12, Z
    6e22:	d1 80       	ldd	r13, Z+1	; 0x01
    6e24:	96 fe       	sbrs	r9, 6
    6e26:	03 c0       	rjmp	.+6      	; 0x6e2e <vfprintf+0x442>
    6e28:	61 2f       	mov	r22, r17
    6e2a:	70 e0       	ldi	r23, 0x00	; 0
    6e2c:	02 c0       	rjmp	.+4      	; 0x6e32 <vfprintf+0x446>
    6e2e:	6f ef       	ldi	r22, 0xFF	; 255
    6e30:	7f ef       	ldi	r23, 0xFF	; 255
    6e32:	c6 01       	movw	r24, r12
    6e34:	0e 94 0f 3d 	call	0x7a1e	; 0x7a1e <strnlen>
    6e38:	8c 01       	movw	r16, r24
    6e3a:	f9 2d       	mov	r31, r9
    6e3c:	ff 77       	andi	r31, 0x7F	; 127
    6e3e:	14 c0       	rjmp	.+40     	; 0x6e68 <vfprintf+0x47c>
    6e40:	56 01       	movw	r10, r12
    6e42:	22 e0       	ldi	r18, 0x02	; 2
    6e44:	a2 0e       	add	r10, r18
    6e46:	b1 1c       	adc	r11, r1
    6e48:	f6 01       	movw	r30, r12
    6e4a:	c0 80       	ld	r12, Z
    6e4c:	d1 80       	ldd	r13, Z+1	; 0x01
    6e4e:	96 fe       	sbrs	r9, 6
    6e50:	03 c0       	rjmp	.+6      	; 0x6e58 <vfprintf+0x46c>
    6e52:	61 2f       	mov	r22, r17
    6e54:	70 e0       	ldi	r23, 0x00	; 0
    6e56:	02 c0       	rjmp	.+4      	; 0x6e5c <vfprintf+0x470>
    6e58:	6f ef       	ldi	r22, 0xFF	; 255
    6e5a:	7f ef       	ldi	r23, 0xFF	; 255
    6e5c:	c6 01       	movw	r24, r12
    6e5e:	0e 94 de 3c 	call	0x79bc	; 0x79bc <strnlen_P>
    6e62:	8c 01       	movw	r16, r24
    6e64:	f9 2d       	mov	r31, r9
    6e66:	f0 68       	ori	r31, 0x80	; 128
    6e68:	9f 2e       	mov	r9, r31
    6e6a:	f3 fd       	sbrc	r31, 3
    6e6c:	1a c0       	rjmp	.+52     	; 0x6ea2 <vfprintf+0x4b6>
    6e6e:	85 2d       	mov	r24, r5
    6e70:	90 e0       	ldi	r25, 0x00	; 0
    6e72:	08 17       	cp	r16, r24
    6e74:	19 07       	cpc	r17, r25
    6e76:	a8 f4       	brcc	.+42     	; 0x6ea2 <vfprintf+0x4b6>
    6e78:	b7 01       	movw	r22, r14
    6e7a:	80 e2       	ldi	r24, 0x20	; 32
    6e7c:	90 e0       	ldi	r25, 0x00	; 0
    6e7e:	0e 94 2a 3d 	call	0x7a54	; 0x7a54 <fputc>
    6e82:	5a 94       	dec	r5
    6e84:	f4 cf       	rjmp	.-24     	; 0x6e6e <vfprintf+0x482>
    6e86:	f6 01       	movw	r30, r12
    6e88:	97 fc       	sbrc	r9, 7
    6e8a:	85 91       	lpm	r24, Z+
    6e8c:	97 fe       	sbrs	r9, 7
    6e8e:	81 91       	ld	r24, Z+
    6e90:	6f 01       	movw	r12, r30
    6e92:	b7 01       	movw	r22, r14
    6e94:	90 e0       	ldi	r25, 0x00	; 0
    6e96:	0e 94 2a 3d 	call	0x7a54	; 0x7a54 <fputc>
    6e9a:	51 10       	cpse	r5, r1
    6e9c:	5a 94       	dec	r5
    6e9e:	01 50       	subi	r16, 0x01	; 1
    6ea0:	11 09       	sbc	r17, r1
    6ea2:	01 15       	cp	r16, r1
    6ea4:	11 05       	cpc	r17, r1
    6ea6:	79 f7       	brne	.-34     	; 0x6e86 <vfprintf+0x49a>
    6ea8:	f7 c0       	rjmp	.+494    	; 0x7098 <vfprintf+0x6ac>
    6eaa:	84 36       	cpi	r24, 0x64	; 100
    6eac:	11 f0       	breq	.+4      	; 0x6eb2 <vfprintf+0x4c6>
    6eae:	89 36       	cpi	r24, 0x69	; 105
    6eb0:	61 f5       	brne	.+88     	; 0x6f0a <vfprintf+0x51e>
    6eb2:	56 01       	movw	r10, r12
    6eb4:	97 fe       	sbrs	r9, 7
    6eb6:	09 c0       	rjmp	.+18     	; 0x6eca <vfprintf+0x4de>
    6eb8:	24 e0       	ldi	r18, 0x04	; 4
    6eba:	a2 0e       	add	r10, r18
    6ebc:	b1 1c       	adc	r11, r1
    6ebe:	f6 01       	movw	r30, r12
    6ec0:	60 81       	ld	r22, Z
    6ec2:	71 81       	ldd	r23, Z+1	; 0x01
    6ec4:	82 81       	ldd	r24, Z+2	; 0x02
    6ec6:	93 81       	ldd	r25, Z+3	; 0x03
    6ec8:	0a c0       	rjmp	.+20     	; 0x6ede <vfprintf+0x4f2>
    6eca:	f2 e0       	ldi	r31, 0x02	; 2
    6ecc:	af 0e       	add	r10, r31
    6ece:	b1 1c       	adc	r11, r1
    6ed0:	f6 01       	movw	r30, r12
    6ed2:	60 81       	ld	r22, Z
    6ed4:	71 81       	ldd	r23, Z+1	; 0x01
    6ed6:	07 2e       	mov	r0, r23
    6ed8:	00 0c       	add	r0, r0
    6eda:	88 0b       	sbc	r24, r24
    6edc:	99 0b       	sbc	r25, r25
    6ede:	f9 2d       	mov	r31, r9
    6ee0:	ff 76       	andi	r31, 0x6F	; 111
    6ee2:	9f 2e       	mov	r9, r31
    6ee4:	97 ff       	sbrs	r25, 7
    6ee6:	09 c0       	rjmp	.+18     	; 0x6efa <vfprintf+0x50e>
    6ee8:	90 95       	com	r25
    6eea:	80 95       	com	r24
    6eec:	70 95       	com	r23
    6eee:	61 95       	neg	r22
    6ef0:	7f 4f       	sbci	r23, 0xFF	; 255
    6ef2:	8f 4f       	sbci	r24, 0xFF	; 255
    6ef4:	9f 4f       	sbci	r25, 0xFF	; 255
    6ef6:	f0 68       	ori	r31, 0x80	; 128
    6ef8:	9f 2e       	mov	r9, r31
    6efa:	2a e0       	ldi	r18, 0x0A	; 10
    6efc:	30 e0       	ldi	r19, 0x00	; 0
    6efe:	a3 01       	movw	r20, r6
    6f00:	0e 94 08 3e 	call	0x7c10	; 0x7c10 <__ultoa_invert>
    6f04:	c8 2e       	mov	r12, r24
    6f06:	c6 18       	sub	r12, r6
    6f08:	3f c0       	rjmp	.+126    	; 0x6f88 <vfprintf+0x59c>
    6f0a:	09 2d       	mov	r16, r9
    6f0c:	85 37       	cpi	r24, 0x75	; 117
    6f0e:	21 f4       	brne	.+8      	; 0x6f18 <vfprintf+0x52c>
    6f10:	0f 7e       	andi	r16, 0xEF	; 239
    6f12:	2a e0       	ldi	r18, 0x0A	; 10
    6f14:	30 e0       	ldi	r19, 0x00	; 0
    6f16:	1d c0       	rjmp	.+58     	; 0x6f52 <vfprintf+0x566>
    6f18:	09 7f       	andi	r16, 0xF9	; 249
    6f1a:	8f 36       	cpi	r24, 0x6F	; 111
    6f1c:	91 f0       	breq	.+36     	; 0x6f42 <vfprintf+0x556>
    6f1e:	18 f4       	brcc	.+6      	; 0x6f26 <vfprintf+0x53a>
    6f20:	88 35       	cpi	r24, 0x58	; 88
    6f22:	59 f0       	breq	.+22     	; 0x6f3a <vfprintf+0x54e>
    6f24:	c3 c0       	rjmp	.+390    	; 0x70ac <vfprintf+0x6c0>
    6f26:	80 37       	cpi	r24, 0x70	; 112
    6f28:	19 f0       	breq	.+6      	; 0x6f30 <vfprintf+0x544>
    6f2a:	88 37       	cpi	r24, 0x78	; 120
    6f2c:	11 f0       	breq	.+4      	; 0x6f32 <vfprintf+0x546>
    6f2e:	be c0       	rjmp	.+380    	; 0x70ac <vfprintf+0x6c0>
    6f30:	00 61       	ori	r16, 0x10	; 16
    6f32:	04 ff       	sbrs	r16, 4
    6f34:	09 c0       	rjmp	.+18     	; 0x6f48 <vfprintf+0x55c>
    6f36:	04 60       	ori	r16, 0x04	; 4
    6f38:	07 c0       	rjmp	.+14     	; 0x6f48 <vfprintf+0x55c>
    6f3a:	94 fe       	sbrs	r9, 4
    6f3c:	08 c0       	rjmp	.+16     	; 0x6f4e <vfprintf+0x562>
    6f3e:	06 60       	ori	r16, 0x06	; 6
    6f40:	06 c0       	rjmp	.+12     	; 0x6f4e <vfprintf+0x562>
    6f42:	28 e0       	ldi	r18, 0x08	; 8
    6f44:	30 e0       	ldi	r19, 0x00	; 0
    6f46:	05 c0       	rjmp	.+10     	; 0x6f52 <vfprintf+0x566>
    6f48:	20 e1       	ldi	r18, 0x10	; 16
    6f4a:	30 e0       	ldi	r19, 0x00	; 0
    6f4c:	02 c0       	rjmp	.+4      	; 0x6f52 <vfprintf+0x566>
    6f4e:	20 e1       	ldi	r18, 0x10	; 16
    6f50:	32 e0       	ldi	r19, 0x02	; 2
    6f52:	56 01       	movw	r10, r12
    6f54:	07 ff       	sbrs	r16, 7
    6f56:	09 c0       	rjmp	.+18     	; 0x6f6a <vfprintf+0x57e>
    6f58:	84 e0       	ldi	r24, 0x04	; 4
    6f5a:	a8 0e       	add	r10, r24
    6f5c:	b1 1c       	adc	r11, r1
    6f5e:	f6 01       	movw	r30, r12
    6f60:	60 81       	ld	r22, Z
    6f62:	71 81       	ldd	r23, Z+1	; 0x01
    6f64:	82 81       	ldd	r24, Z+2	; 0x02
    6f66:	93 81       	ldd	r25, Z+3	; 0x03
    6f68:	08 c0       	rjmp	.+16     	; 0x6f7a <vfprintf+0x58e>
    6f6a:	f2 e0       	ldi	r31, 0x02	; 2
    6f6c:	af 0e       	add	r10, r31
    6f6e:	b1 1c       	adc	r11, r1
    6f70:	f6 01       	movw	r30, r12
    6f72:	60 81       	ld	r22, Z
    6f74:	71 81       	ldd	r23, Z+1	; 0x01
    6f76:	80 e0       	ldi	r24, 0x00	; 0
    6f78:	90 e0       	ldi	r25, 0x00	; 0
    6f7a:	a3 01       	movw	r20, r6
    6f7c:	0e 94 08 3e 	call	0x7c10	; 0x7c10 <__ultoa_invert>
    6f80:	c8 2e       	mov	r12, r24
    6f82:	c6 18       	sub	r12, r6
    6f84:	0f 77       	andi	r16, 0x7F	; 127
    6f86:	90 2e       	mov	r9, r16
    6f88:	96 fe       	sbrs	r9, 6
    6f8a:	0b c0       	rjmp	.+22     	; 0x6fa2 <vfprintf+0x5b6>
    6f8c:	09 2d       	mov	r16, r9
    6f8e:	0e 7f       	andi	r16, 0xFE	; 254
    6f90:	c1 16       	cp	r12, r17
    6f92:	50 f4       	brcc	.+20     	; 0x6fa8 <vfprintf+0x5bc>
    6f94:	94 fe       	sbrs	r9, 4
    6f96:	0a c0       	rjmp	.+20     	; 0x6fac <vfprintf+0x5c0>
    6f98:	92 fc       	sbrc	r9, 2
    6f9a:	08 c0       	rjmp	.+16     	; 0x6fac <vfprintf+0x5c0>
    6f9c:	09 2d       	mov	r16, r9
    6f9e:	0e 7e       	andi	r16, 0xEE	; 238
    6fa0:	05 c0       	rjmp	.+10     	; 0x6fac <vfprintf+0x5c0>
    6fa2:	dc 2c       	mov	r13, r12
    6fa4:	09 2d       	mov	r16, r9
    6fa6:	03 c0       	rjmp	.+6      	; 0x6fae <vfprintf+0x5c2>
    6fa8:	dc 2c       	mov	r13, r12
    6faa:	01 c0       	rjmp	.+2      	; 0x6fae <vfprintf+0x5c2>
    6fac:	d1 2e       	mov	r13, r17
    6fae:	04 ff       	sbrs	r16, 4
    6fb0:	0d c0       	rjmp	.+26     	; 0x6fcc <vfprintf+0x5e0>
    6fb2:	fe 01       	movw	r30, r28
    6fb4:	ec 0d       	add	r30, r12
    6fb6:	f1 1d       	adc	r31, r1
    6fb8:	80 81       	ld	r24, Z
    6fba:	80 33       	cpi	r24, 0x30	; 48
    6fbc:	11 f4       	brne	.+4      	; 0x6fc2 <vfprintf+0x5d6>
    6fbe:	09 7e       	andi	r16, 0xE9	; 233
    6fc0:	09 c0       	rjmp	.+18     	; 0x6fd4 <vfprintf+0x5e8>
    6fc2:	02 ff       	sbrs	r16, 2
    6fc4:	06 c0       	rjmp	.+12     	; 0x6fd2 <vfprintf+0x5e6>
    6fc6:	d3 94       	inc	r13
    6fc8:	d3 94       	inc	r13
    6fca:	04 c0       	rjmp	.+8      	; 0x6fd4 <vfprintf+0x5e8>
    6fcc:	80 2f       	mov	r24, r16
    6fce:	86 78       	andi	r24, 0x86	; 134
    6fd0:	09 f0       	breq	.+2      	; 0x6fd4 <vfprintf+0x5e8>
    6fd2:	d3 94       	inc	r13
    6fd4:	03 fd       	sbrc	r16, 3
    6fd6:	11 c0       	rjmp	.+34     	; 0x6ffa <vfprintf+0x60e>
    6fd8:	00 ff       	sbrs	r16, 0
    6fda:	06 c0       	rjmp	.+12     	; 0x6fe8 <vfprintf+0x5fc>
    6fdc:	1c 2d       	mov	r17, r12
    6fde:	d5 14       	cp	r13, r5
    6fe0:	80 f4       	brcc	.+32     	; 0x7002 <vfprintf+0x616>
    6fe2:	15 0d       	add	r17, r5
    6fe4:	1d 19       	sub	r17, r13
    6fe6:	0d c0       	rjmp	.+26     	; 0x7002 <vfprintf+0x616>
    6fe8:	d5 14       	cp	r13, r5
    6fea:	58 f4       	brcc	.+22     	; 0x7002 <vfprintf+0x616>
    6fec:	b7 01       	movw	r22, r14
    6fee:	80 e2       	ldi	r24, 0x20	; 32
    6ff0:	90 e0       	ldi	r25, 0x00	; 0
    6ff2:	0e 94 2a 3d 	call	0x7a54	; 0x7a54 <fputc>
    6ff6:	d3 94       	inc	r13
    6ff8:	f7 cf       	rjmp	.-18     	; 0x6fe8 <vfprintf+0x5fc>
    6ffa:	d5 14       	cp	r13, r5
    6ffc:	10 f4       	brcc	.+4      	; 0x7002 <vfprintf+0x616>
    6ffe:	5d 18       	sub	r5, r13
    7000:	01 c0       	rjmp	.+2      	; 0x7004 <vfprintf+0x618>
    7002:	51 2c       	mov	r5, r1
    7004:	04 ff       	sbrs	r16, 4
    7006:	10 c0       	rjmp	.+32     	; 0x7028 <vfprintf+0x63c>
    7008:	b7 01       	movw	r22, r14
    700a:	80 e3       	ldi	r24, 0x30	; 48
    700c:	90 e0       	ldi	r25, 0x00	; 0
    700e:	0e 94 2a 3d 	call	0x7a54	; 0x7a54 <fputc>
    7012:	02 ff       	sbrs	r16, 2
    7014:	17 c0       	rjmp	.+46     	; 0x7044 <vfprintf+0x658>
    7016:	01 fd       	sbrc	r16, 1
    7018:	03 c0       	rjmp	.+6      	; 0x7020 <vfprintf+0x634>
    701a:	88 e7       	ldi	r24, 0x78	; 120
    701c:	90 e0       	ldi	r25, 0x00	; 0
    701e:	02 c0       	rjmp	.+4      	; 0x7024 <vfprintf+0x638>
    7020:	88 e5       	ldi	r24, 0x58	; 88
    7022:	90 e0       	ldi	r25, 0x00	; 0
    7024:	b7 01       	movw	r22, r14
    7026:	0c c0       	rjmp	.+24     	; 0x7040 <vfprintf+0x654>
    7028:	80 2f       	mov	r24, r16
    702a:	86 78       	andi	r24, 0x86	; 134
    702c:	59 f0       	breq	.+22     	; 0x7044 <vfprintf+0x658>
    702e:	01 ff       	sbrs	r16, 1
    7030:	02 c0       	rjmp	.+4      	; 0x7036 <vfprintf+0x64a>
    7032:	8b e2       	ldi	r24, 0x2B	; 43
    7034:	01 c0       	rjmp	.+2      	; 0x7038 <vfprintf+0x64c>
    7036:	80 e2       	ldi	r24, 0x20	; 32
    7038:	07 fd       	sbrc	r16, 7
    703a:	8d e2       	ldi	r24, 0x2D	; 45
    703c:	b7 01       	movw	r22, r14
    703e:	90 e0       	ldi	r25, 0x00	; 0
    7040:	0e 94 2a 3d 	call	0x7a54	; 0x7a54 <fputc>
    7044:	c1 16       	cp	r12, r17
    7046:	38 f4       	brcc	.+14     	; 0x7056 <vfprintf+0x66a>
    7048:	b7 01       	movw	r22, r14
    704a:	80 e3       	ldi	r24, 0x30	; 48
    704c:	90 e0       	ldi	r25, 0x00	; 0
    704e:	0e 94 2a 3d 	call	0x7a54	; 0x7a54 <fputc>
    7052:	11 50       	subi	r17, 0x01	; 1
    7054:	f7 cf       	rjmp	.-18     	; 0x7044 <vfprintf+0x658>
    7056:	ca 94       	dec	r12
    7058:	f3 01       	movw	r30, r6
    705a:	ec 0d       	add	r30, r12
    705c:	f1 1d       	adc	r31, r1
    705e:	80 81       	ld	r24, Z
    7060:	b7 01       	movw	r22, r14
    7062:	90 e0       	ldi	r25, 0x00	; 0
    7064:	0e 94 2a 3d 	call	0x7a54	; 0x7a54 <fputc>
    7068:	c1 10       	cpse	r12, r1
    706a:	f5 cf       	rjmp	.-22     	; 0x7056 <vfprintf+0x66a>
    706c:	15 c0       	rjmp	.+42     	; 0x7098 <vfprintf+0x6ac>
    706e:	f4 e0       	ldi	r31, 0x04	; 4
    7070:	f5 15       	cp	r31, r5
    7072:	60 f5       	brcc	.+88     	; 0x70cc <vfprintf+0x6e0>
    7074:	84 e0       	ldi	r24, 0x04	; 4
    7076:	58 1a       	sub	r5, r24
    7078:	93 fe       	sbrs	r9, 3
    707a:	1f c0       	rjmp	.+62     	; 0x70ba <vfprintf+0x6ce>
    707c:	01 11       	cpse	r16, r1
    707e:	27 c0       	rjmp	.+78     	; 0x70ce <vfprintf+0x6e2>
    7080:	2c 85       	ldd	r18, Y+12	; 0x0c
    7082:	23 ff       	sbrs	r18, 3
    7084:	2a c0       	rjmp	.+84     	; 0x70da <vfprintf+0x6ee>
    7086:	0c e5       	ldi	r16, 0x5C	; 92
    7088:	12 e0       	ldi	r17, 0x02	; 2
    708a:	39 2d       	mov	r19, r9
    708c:	30 71       	andi	r19, 0x10	; 16
    708e:	93 2e       	mov	r9, r19
    7090:	f8 01       	movw	r30, r16
    7092:	84 91       	lpm	r24, Z
    7094:	81 11       	cpse	r24, r1
    7096:	24 c0       	rjmp	.+72     	; 0x70e0 <vfprintf+0x6f4>
    7098:	55 20       	and	r5, r5
    709a:	09 f4       	brne	.+2      	; 0x709e <vfprintf+0x6b2>
    709c:	e4 cc       	rjmp	.-1592   	; 0x6a66 <vfprintf+0x7a>
    709e:	b7 01       	movw	r22, r14
    70a0:	80 e2       	ldi	r24, 0x20	; 32
    70a2:	90 e0       	ldi	r25, 0x00	; 0
    70a4:	0e 94 2a 3d 	call	0x7a54	; 0x7a54 <fputc>
    70a8:	5a 94       	dec	r5
    70aa:	f6 cf       	rjmp	.-20     	; 0x7098 <vfprintf+0x6ac>
    70ac:	f7 01       	movw	r30, r14
    70ae:	86 81       	ldd	r24, Z+6	; 0x06
    70b0:	97 81       	ldd	r25, Z+7	; 0x07
    70b2:	26 c0       	rjmp	.+76     	; 0x7100 <vfprintf+0x714>
    70b4:	8f ef       	ldi	r24, 0xFF	; 255
    70b6:	9f ef       	ldi	r25, 0xFF	; 255
    70b8:	23 c0       	rjmp	.+70     	; 0x7100 <vfprintf+0x714>
    70ba:	b7 01       	movw	r22, r14
    70bc:	80 e2       	ldi	r24, 0x20	; 32
    70be:	90 e0       	ldi	r25, 0x00	; 0
    70c0:	0e 94 2a 3d 	call	0x7a54	; 0x7a54 <fputc>
    70c4:	5a 94       	dec	r5
    70c6:	51 10       	cpse	r5, r1
    70c8:	f8 cf       	rjmp	.-16     	; 0x70ba <vfprintf+0x6ce>
    70ca:	d8 cf       	rjmp	.-80     	; 0x707c <vfprintf+0x690>
    70cc:	51 2c       	mov	r5, r1
    70ce:	b7 01       	movw	r22, r14
    70d0:	80 2f       	mov	r24, r16
    70d2:	90 e0       	ldi	r25, 0x00	; 0
    70d4:	0e 94 2a 3d 	call	0x7a54	; 0x7a54 <fputc>
    70d8:	d3 cf       	rjmp	.-90     	; 0x7080 <vfprintf+0x694>
    70da:	00 e6       	ldi	r16, 0x60	; 96
    70dc:	12 e0       	ldi	r17, 0x02	; 2
    70de:	d5 cf       	rjmp	.-86     	; 0x708a <vfprintf+0x69e>
    70e0:	91 10       	cpse	r9, r1
    70e2:	80 52       	subi	r24, 0x20	; 32
    70e4:	b7 01       	movw	r22, r14
    70e6:	90 e0       	ldi	r25, 0x00	; 0
    70e8:	0e 94 2a 3d 	call	0x7a54	; 0x7a54 <fputc>
    70ec:	0f 5f       	subi	r16, 0xFF	; 255
    70ee:	1f 4f       	sbci	r17, 0xFF	; 255
    70f0:	cf cf       	rjmp	.-98     	; 0x7090 <vfprintf+0x6a4>
    70f2:	23 e0       	ldi	r18, 0x03	; 3
    70f4:	25 15       	cp	r18, r5
    70f6:	10 f4       	brcc	.+4      	; 0x70fc <vfprintf+0x710>
    70f8:	83 e0       	ldi	r24, 0x03	; 3
    70fa:	bd cf       	rjmp	.-134    	; 0x7076 <vfprintf+0x68a>
    70fc:	51 2c       	mov	r5, r1
    70fe:	c0 cf       	rjmp	.-128    	; 0x7080 <vfprintf+0x694>
    7100:	60 96       	adiw	r28, 0x10	; 16
    7102:	cd bf       	out	0x3d, r28	; 61
    7104:	de bf       	out	0x3e, r29	; 62
    7106:	df 91       	pop	r29
    7108:	cf 91       	pop	r28
    710a:	1f 91       	pop	r17
    710c:	0f 91       	pop	r16
    710e:	ff 90       	pop	r15
    7110:	ef 90       	pop	r14
    7112:	df 90       	pop	r13
    7114:	cf 90       	pop	r12
    7116:	bf 90       	pop	r11
    7118:	af 90       	pop	r10
    711a:	9f 90       	pop	r9
    711c:	8f 90       	pop	r8
    711e:	7f 90       	pop	r7
    7120:	6f 90       	pop	r6
    7122:	5f 90       	pop	r5
    7124:	4f 90       	pop	r4
    7126:	3f 90       	pop	r3
    7128:	2f 90       	pop	r2
    712a:	08 95       	ret

0000712c <__mulsi3>:
    712c:	db 01       	movw	r26, r22
    712e:	8f 93       	push	r24
    7130:	9f 93       	push	r25
    7132:	0e 94 a6 38 	call	0x714c	; 0x714c <__muluhisi3>
    7136:	bf 91       	pop	r27
    7138:	af 91       	pop	r26
    713a:	a2 9f       	mul	r26, r18
    713c:	80 0d       	add	r24, r0
    713e:	91 1d       	adc	r25, r1
    7140:	a3 9f       	mul	r26, r19
    7142:	90 0d       	add	r25, r0
    7144:	b2 9f       	mul	r27, r18
    7146:	90 0d       	add	r25, r0
    7148:	11 24       	eor	r1, r1
    714a:	08 95       	ret

0000714c <__muluhisi3>:
    714c:	0e 94 ba 38 	call	0x7174	; 0x7174 <__umulhisi3>
    7150:	a5 9f       	mul	r26, r21
    7152:	90 0d       	add	r25, r0
    7154:	b4 9f       	mul	r27, r20
    7156:	90 0d       	add	r25, r0
    7158:	a4 9f       	mul	r26, r20
    715a:	80 0d       	add	r24, r0
    715c:	91 1d       	adc	r25, r1
    715e:	11 24       	eor	r1, r1
    7160:	08 95       	ret

00007162 <__adddi3>:
    7162:	2a 0d       	add	r18, r10
    7164:	3b 1d       	adc	r19, r11
    7166:	4c 1d       	adc	r20, r12
    7168:	5d 1d       	adc	r21, r13
    716a:	6e 1d       	adc	r22, r14
    716c:	7f 1d       	adc	r23, r15
    716e:	80 1f       	adc	r24, r16
    7170:	91 1f       	adc	r25, r17
    7172:	08 95       	ret

00007174 <__umulhisi3>:
    7174:	a2 9f       	mul	r26, r18
    7176:	b0 01       	movw	r22, r0
    7178:	b3 9f       	mul	r27, r19
    717a:	c0 01       	movw	r24, r0
    717c:	a3 9f       	mul	r26, r19
    717e:	70 0d       	add	r23, r0
    7180:	81 1d       	adc	r24, r1
    7182:	11 24       	eor	r1, r1
    7184:	91 1d       	adc	r25, r1
    7186:	b2 9f       	mul	r27, r18
    7188:	70 0d       	add	r23, r0
    718a:	81 1d       	adc	r24, r1
    718c:	11 24       	eor	r1, r1
    718e:	91 1d       	adc	r25, r1
    7190:	08 95       	ret

00007192 <malloc>:
    7192:	0f 93       	push	r16
    7194:	1f 93       	push	r17
    7196:	cf 93       	push	r28
    7198:	df 93       	push	r29
    719a:	82 30       	cpi	r24, 0x02	; 2
    719c:	91 05       	cpc	r25, r1
    719e:	10 f4       	brcc	.+4      	; 0x71a4 <malloc+0x12>
    71a0:	82 e0       	ldi	r24, 0x02	; 2
    71a2:	90 e0       	ldi	r25, 0x00	; 0
    71a4:	e0 91 94 2e 	lds	r30, 0x2E94	; 0x802e94 <__flp>
    71a8:	f0 91 95 2e 	lds	r31, 0x2E95	; 0x802e95 <__flp+0x1>
    71ac:	20 e0       	ldi	r18, 0x00	; 0
    71ae:	30 e0       	ldi	r19, 0x00	; 0
    71b0:	a0 e0       	ldi	r26, 0x00	; 0
    71b2:	b0 e0       	ldi	r27, 0x00	; 0
    71b4:	30 97       	sbiw	r30, 0x00	; 0
    71b6:	19 f1       	breq	.+70     	; 0x71fe <malloc+0x6c>
    71b8:	40 81       	ld	r20, Z
    71ba:	51 81       	ldd	r21, Z+1	; 0x01
    71bc:	02 81       	ldd	r16, Z+2	; 0x02
    71be:	13 81       	ldd	r17, Z+3	; 0x03
    71c0:	48 17       	cp	r20, r24
    71c2:	59 07       	cpc	r21, r25
    71c4:	c8 f0       	brcs	.+50     	; 0x71f8 <malloc+0x66>
    71c6:	84 17       	cp	r24, r20
    71c8:	95 07       	cpc	r25, r21
    71ca:	69 f4       	brne	.+26     	; 0x71e6 <malloc+0x54>
    71cc:	10 97       	sbiw	r26, 0x00	; 0
    71ce:	31 f0       	breq	.+12     	; 0x71dc <malloc+0x4a>
    71d0:	12 96       	adiw	r26, 0x02	; 2
    71d2:	0c 93       	st	X, r16
    71d4:	12 97       	sbiw	r26, 0x02	; 2
    71d6:	13 96       	adiw	r26, 0x03	; 3
    71d8:	1c 93       	st	X, r17
    71da:	27 c0       	rjmp	.+78     	; 0x722a <malloc+0x98>
    71dc:	00 93 94 2e 	sts	0x2E94, r16	; 0x802e94 <__flp>
    71e0:	10 93 95 2e 	sts	0x2E95, r17	; 0x802e95 <__flp+0x1>
    71e4:	22 c0       	rjmp	.+68     	; 0x722a <malloc+0x98>
    71e6:	21 15       	cp	r18, r1
    71e8:	31 05       	cpc	r19, r1
    71ea:	19 f0       	breq	.+6      	; 0x71f2 <malloc+0x60>
    71ec:	42 17       	cp	r20, r18
    71ee:	53 07       	cpc	r21, r19
    71f0:	18 f4       	brcc	.+6      	; 0x71f8 <malloc+0x66>
    71f2:	9a 01       	movw	r18, r20
    71f4:	bd 01       	movw	r22, r26
    71f6:	ef 01       	movw	r28, r30
    71f8:	df 01       	movw	r26, r30
    71fa:	f8 01       	movw	r30, r16
    71fc:	db cf       	rjmp	.-74     	; 0x71b4 <malloc+0x22>
    71fe:	21 15       	cp	r18, r1
    7200:	31 05       	cpc	r19, r1
    7202:	f9 f0       	breq	.+62     	; 0x7242 <malloc+0xb0>
    7204:	28 1b       	sub	r18, r24
    7206:	39 0b       	sbc	r19, r25
    7208:	24 30       	cpi	r18, 0x04	; 4
    720a:	31 05       	cpc	r19, r1
    720c:	80 f4       	brcc	.+32     	; 0x722e <malloc+0x9c>
    720e:	8a 81       	ldd	r24, Y+2	; 0x02
    7210:	9b 81       	ldd	r25, Y+3	; 0x03
    7212:	61 15       	cp	r22, r1
    7214:	71 05       	cpc	r23, r1
    7216:	21 f0       	breq	.+8      	; 0x7220 <malloc+0x8e>
    7218:	fb 01       	movw	r30, r22
    721a:	82 83       	std	Z+2, r24	; 0x02
    721c:	93 83       	std	Z+3, r25	; 0x03
    721e:	04 c0       	rjmp	.+8      	; 0x7228 <malloc+0x96>
    7220:	80 93 94 2e 	sts	0x2E94, r24	; 0x802e94 <__flp>
    7224:	90 93 95 2e 	sts	0x2E95, r25	; 0x802e95 <__flp+0x1>
    7228:	fe 01       	movw	r30, r28
    722a:	32 96       	adiw	r30, 0x02	; 2
    722c:	44 c0       	rjmp	.+136    	; 0x72b6 <malloc+0x124>
    722e:	fe 01       	movw	r30, r28
    7230:	e2 0f       	add	r30, r18
    7232:	f3 1f       	adc	r31, r19
    7234:	81 93       	st	Z+, r24
    7236:	91 93       	st	Z+, r25
    7238:	22 50       	subi	r18, 0x02	; 2
    723a:	31 09       	sbc	r19, r1
    723c:	28 83       	st	Y, r18
    723e:	39 83       	std	Y+1, r19	; 0x01
    7240:	3a c0       	rjmp	.+116    	; 0x72b6 <malloc+0x124>
    7242:	20 91 92 2e 	lds	r18, 0x2E92	; 0x802e92 <__brkval>
    7246:	30 91 93 2e 	lds	r19, 0x2E93	; 0x802e93 <__brkval+0x1>
    724a:	23 2b       	or	r18, r19
    724c:	41 f4       	brne	.+16     	; 0x725e <malloc+0xcc>
    724e:	20 91 02 20 	lds	r18, 0x2002	; 0x802002 <__malloc_heap_start>
    7252:	30 91 03 20 	lds	r19, 0x2003	; 0x802003 <__malloc_heap_start+0x1>
    7256:	20 93 92 2e 	sts	0x2E92, r18	; 0x802e92 <__brkval>
    725a:	30 93 93 2e 	sts	0x2E93, r19	; 0x802e93 <__brkval+0x1>
    725e:	20 91 00 20 	lds	r18, 0x2000	; 0x802000 <__data_start>
    7262:	30 91 01 20 	lds	r19, 0x2001	; 0x802001 <__data_start+0x1>
    7266:	21 15       	cp	r18, r1
    7268:	31 05       	cpc	r19, r1
    726a:	41 f4       	brne	.+16     	; 0x727c <malloc+0xea>
    726c:	2d b7       	in	r18, 0x3d	; 61
    726e:	3e b7       	in	r19, 0x3e	; 62
    7270:	40 91 04 20 	lds	r20, 0x2004	; 0x802004 <__malloc_margin>
    7274:	50 91 05 20 	lds	r21, 0x2005	; 0x802005 <__malloc_margin+0x1>
    7278:	24 1b       	sub	r18, r20
    727a:	35 0b       	sbc	r19, r21
    727c:	e0 91 92 2e 	lds	r30, 0x2E92	; 0x802e92 <__brkval>
    7280:	f0 91 93 2e 	lds	r31, 0x2E93	; 0x802e93 <__brkval+0x1>
    7284:	e2 17       	cp	r30, r18
    7286:	f3 07       	cpc	r31, r19
    7288:	a0 f4       	brcc	.+40     	; 0x72b2 <malloc+0x120>
    728a:	2e 1b       	sub	r18, r30
    728c:	3f 0b       	sbc	r19, r31
    728e:	28 17       	cp	r18, r24
    7290:	39 07       	cpc	r19, r25
    7292:	78 f0       	brcs	.+30     	; 0x72b2 <malloc+0x120>
    7294:	ac 01       	movw	r20, r24
    7296:	4e 5f       	subi	r20, 0xFE	; 254
    7298:	5f 4f       	sbci	r21, 0xFF	; 255
    729a:	24 17       	cp	r18, r20
    729c:	35 07       	cpc	r19, r21
    729e:	48 f0       	brcs	.+18     	; 0x72b2 <malloc+0x120>
    72a0:	4e 0f       	add	r20, r30
    72a2:	5f 1f       	adc	r21, r31
    72a4:	40 93 92 2e 	sts	0x2E92, r20	; 0x802e92 <__brkval>
    72a8:	50 93 93 2e 	sts	0x2E93, r21	; 0x802e93 <__brkval+0x1>
    72ac:	81 93       	st	Z+, r24
    72ae:	91 93       	st	Z+, r25
    72b0:	02 c0       	rjmp	.+4      	; 0x72b6 <malloc+0x124>
    72b2:	e0 e0       	ldi	r30, 0x00	; 0
    72b4:	f0 e0       	ldi	r31, 0x00	; 0
    72b6:	cf 01       	movw	r24, r30
    72b8:	df 91       	pop	r29
    72ba:	cf 91       	pop	r28
    72bc:	1f 91       	pop	r17
    72be:	0f 91       	pop	r16
    72c0:	08 95       	ret

000072c2 <free>:
    72c2:	cf 93       	push	r28
    72c4:	df 93       	push	r29
    72c6:	00 97       	sbiw	r24, 0x00	; 0
    72c8:	09 f4       	brne	.+2      	; 0x72cc <free+0xa>
    72ca:	81 c0       	rjmp	.+258    	; 0x73ce <free+0x10c>
    72cc:	fc 01       	movw	r30, r24
    72ce:	32 97       	sbiw	r30, 0x02	; 2
    72d0:	12 82       	std	Z+2, r1	; 0x02
    72d2:	13 82       	std	Z+3, r1	; 0x03
    72d4:	a0 91 94 2e 	lds	r26, 0x2E94	; 0x802e94 <__flp>
    72d8:	b0 91 95 2e 	lds	r27, 0x2E95	; 0x802e95 <__flp+0x1>
    72dc:	10 97       	sbiw	r26, 0x00	; 0
    72de:	81 f4       	brne	.+32     	; 0x7300 <free+0x3e>
    72e0:	20 81       	ld	r18, Z
    72e2:	31 81       	ldd	r19, Z+1	; 0x01
    72e4:	82 0f       	add	r24, r18
    72e6:	93 1f       	adc	r25, r19
    72e8:	20 91 92 2e 	lds	r18, 0x2E92	; 0x802e92 <__brkval>
    72ec:	30 91 93 2e 	lds	r19, 0x2E93	; 0x802e93 <__brkval+0x1>
    72f0:	28 17       	cp	r18, r24
    72f2:	39 07       	cpc	r19, r25
    72f4:	51 f5       	brne	.+84     	; 0x734a <free+0x88>
    72f6:	e0 93 92 2e 	sts	0x2E92, r30	; 0x802e92 <__brkval>
    72fa:	f0 93 93 2e 	sts	0x2E93, r31	; 0x802e93 <__brkval+0x1>
    72fe:	67 c0       	rjmp	.+206    	; 0x73ce <free+0x10c>
    7300:	ed 01       	movw	r28, r26
    7302:	20 e0       	ldi	r18, 0x00	; 0
    7304:	30 e0       	ldi	r19, 0x00	; 0
    7306:	ce 17       	cp	r28, r30
    7308:	df 07       	cpc	r29, r31
    730a:	40 f4       	brcc	.+16     	; 0x731c <free+0x5a>
    730c:	4a 81       	ldd	r20, Y+2	; 0x02
    730e:	5b 81       	ldd	r21, Y+3	; 0x03
    7310:	9e 01       	movw	r18, r28
    7312:	41 15       	cp	r20, r1
    7314:	51 05       	cpc	r21, r1
    7316:	f1 f0       	breq	.+60     	; 0x7354 <free+0x92>
    7318:	ea 01       	movw	r28, r20
    731a:	f5 cf       	rjmp	.-22     	; 0x7306 <free+0x44>
    731c:	c2 83       	std	Z+2, r28	; 0x02
    731e:	d3 83       	std	Z+3, r29	; 0x03
    7320:	40 81       	ld	r20, Z
    7322:	51 81       	ldd	r21, Z+1	; 0x01
    7324:	84 0f       	add	r24, r20
    7326:	95 1f       	adc	r25, r21
    7328:	c8 17       	cp	r28, r24
    732a:	d9 07       	cpc	r29, r25
    732c:	59 f4       	brne	.+22     	; 0x7344 <free+0x82>
    732e:	88 81       	ld	r24, Y
    7330:	99 81       	ldd	r25, Y+1	; 0x01
    7332:	84 0f       	add	r24, r20
    7334:	95 1f       	adc	r25, r21
    7336:	02 96       	adiw	r24, 0x02	; 2
    7338:	80 83       	st	Z, r24
    733a:	91 83       	std	Z+1, r25	; 0x01
    733c:	8a 81       	ldd	r24, Y+2	; 0x02
    733e:	9b 81       	ldd	r25, Y+3	; 0x03
    7340:	82 83       	std	Z+2, r24	; 0x02
    7342:	93 83       	std	Z+3, r25	; 0x03
    7344:	21 15       	cp	r18, r1
    7346:	31 05       	cpc	r19, r1
    7348:	29 f4       	brne	.+10     	; 0x7354 <free+0x92>
    734a:	e0 93 94 2e 	sts	0x2E94, r30	; 0x802e94 <__flp>
    734e:	f0 93 95 2e 	sts	0x2E95, r31	; 0x802e95 <__flp+0x1>
    7352:	3d c0       	rjmp	.+122    	; 0x73ce <free+0x10c>
    7354:	e9 01       	movw	r28, r18
    7356:	ea 83       	std	Y+2, r30	; 0x02
    7358:	fb 83       	std	Y+3, r31	; 0x03
    735a:	49 91       	ld	r20, Y+
    735c:	59 91       	ld	r21, Y+
    735e:	c4 0f       	add	r28, r20
    7360:	d5 1f       	adc	r29, r21
    7362:	ec 17       	cp	r30, r28
    7364:	fd 07       	cpc	r31, r29
    7366:	61 f4       	brne	.+24     	; 0x7380 <free+0xbe>
    7368:	80 81       	ld	r24, Z
    736a:	91 81       	ldd	r25, Z+1	; 0x01
    736c:	84 0f       	add	r24, r20
    736e:	95 1f       	adc	r25, r21
    7370:	02 96       	adiw	r24, 0x02	; 2
    7372:	e9 01       	movw	r28, r18
    7374:	88 83       	st	Y, r24
    7376:	99 83       	std	Y+1, r25	; 0x01
    7378:	82 81       	ldd	r24, Z+2	; 0x02
    737a:	93 81       	ldd	r25, Z+3	; 0x03
    737c:	8a 83       	std	Y+2, r24	; 0x02
    737e:	9b 83       	std	Y+3, r25	; 0x03
    7380:	e0 e0       	ldi	r30, 0x00	; 0
    7382:	f0 e0       	ldi	r31, 0x00	; 0
    7384:	12 96       	adiw	r26, 0x02	; 2
    7386:	8d 91       	ld	r24, X+
    7388:	9c 91       	ld	r25, X
    738a:	13 97       	sbiw	r26, 0x03	; 3
    738c:	00 97       	sbiw	r24, 0x00	; 0
    738e:	19 f0       	breq	.+6      	; 0x7396 <free+0xd4>
    7390:	fd 01       	movw	r30, r26
    7392:	dc 01       	movw	r26, r24
    7394:	f7 cf       	rjmp	.-18     	; 0x7384 <free+0xc2>
    7396:	8d 91       	ld	r24, X+
    7398:	9c 91       	ld	r25, X
    739a:	11 97       	sbiw	r26, 0x01	; 1
    739c:	9d 01       	movw	r18, r26
    739e:	2e 5f       	subi	r18, 0xFE	; 254
    73a0:	3f 4f       	sbci	r19, 0xFF	; 255
    73a2:	82 0f       	add	r24, r18
    73a4:	93 1f       	adc	r25, r19
    73a6:	20 91 92 2e 	lds	r18, 0x2E92	; 0x802e92 <__brkval>
    73aa:	30 91 93 2e 	lds	r19, 0x2E93	; 0x802e93 <__brkval+0x1>
    73ae:	28 17       	cp	r18, r24
    73b0:	39 07       	cpc	r19, r25
    73b2:	69 f4       	brne	.+26     	; 0x73ce <free+0x10c>
    73b4:	30 97       	sbiw	r30, 0x00	; 0
    73b6:	29 f4       	brne	.+10     	; 0x73c2 <free+0x100>
    73b8:	10 92 94 2e 	sts	0x2E94, r1	; 0x802e94 <__flp>
    73bc:	10 92 95 2e 	sts	0x2E95, r1	; 0x802e95 <__flp+0x1>
    73c0:	02 c0       	rjmp	.+4      	; 0x73c6 <free+0x104>
    73c2:	12 82       	std	Z+2, r1	; 0x02
    73c4:	13 82       	std	Z+3, r1	; 0x03
    73c6:	a0 93 92 2e 	sts	0x2E92, r26	; 0x802e92 <__brkval>
    73ca:	b0 93 93 2e 	sts	0x2E93, r27	; 0x802e93 <__brkval+0x1>
    73ce:	df 91       	pop	r29
    73d0:	cf 91       	pop	r28
    73d2:	08 95       	ret

000073d4 <realloc>:
    73d4:	6f 92       	push	r6
    73d6:	7f 92       	push	r7
    73d8:	8f 92       	push	r8
    73da:	9f 92       	push	r9
    73dc:	af 92       	push	r10
    73de:	bf 92       	push	r11
    73e0:	cf 92       	push	r12
    73e2:	df 92       	push	r13
    73e4:	ef 92       	push	r14
    73e6:	ff 92       	push	r15
    73e8:	0f 93       	push	r16
    73ea:	1f 93       	push	r17
    73ec:	cf 93       	push	r28
    73ee:	df 93       	push	r29
    73f0:	00 97       	sbiw	r24, 0x00	; 0
    73f2:	89 f4       	brne	.+34     	; 0x7416 <realloc+0x42>
    73f4:	cb 01       	movw	r24, r22
    73f6:	df 91       	pop	r29
    73f8:	cf 91       	pop	r28
    73fa:	1f 91       	pop	r17
    73fc:	0f 91       	pop	r16
    73fe:	ff 90       	pop	r15
    7400:	ef 90       	pop	r14
    7402:	df 90       	pop	r13
    7404:	cf 90       	pop	r12
    7406:	bf 90       	pop	r11
    7408:	af 90       	pop	r10
    740a:	9f 90       	pop	r9
    740c:	8f 90       	pop	r8
    740e:	7f 90       	pop	r7
    7410:	6f 90       	pop	r6
    7412:	0c 94 c9 38 	jmp	0x7192	; 0x7192 <malloc>
    7416:	fc 01       	movw	r30, r24
    7418:	e6 0f       	add	r30, r22
    741a:	f7 1f       	adc	r31, r23
    741c:	9c 01       	movw	r18, r24
    741e:	22 50       	subi	r18, 0x02	; 2
    7420:	31 09       	sbc	r19, r1
    7422:	e2 17       	cp	r30, r18
    7424:	f3 07       	cpc	r31, r19
    7426:	08 f4       	brcc	.+2      	; 0x742a <realloc+0x56>
    7428:	a9 c0       	rjmp	.+338    	; 0x757c <realloc+0x1a8>
    742a:	ec 01       	movw	r28, r24
    742c:	d9 01       	movw	r26, r18
    742e:	0d 91       	ld	r16, X+
    7430:	1c 91       	ld	r17, X
    7432:	11 97       	sbiw	r26, 0x01	; 1
    7434:	06 17       	cp	r16, r22
    7436:	17 07       	cpc	r17, r23
    7438:	b0 f0       	brcs	.+44     	; 0x7466 <realloc+0x92>
    743a:	05 30       	cpi	r16, 0x05	; 5
    743c:	11 05       	cpc	r17, r1
    743e:	08 f4       	brcc	.+2      	; 0x7442 <realloc+0x6e>
    7440:	9b c0       	rjmp	.+310    	; 0x7578 <realloc+0x1a4>
    7442:	c8 01       	movw	r24, r16
    7444:	04 97       	sbiw	r24, 0x04	; 4
    7446:	86 17       	cp	r24, r22
    7448:	97 07       	cpc	r25, r23
    744a:	08 f4       	brcc	.+2      	; 0x744e <realloc+0x7a>
    744c:	95 c0       	rjmp	.+298    	; 0x7578 <realloc+0x1a4>
    744e:	02 50       	subi	r16, 0x02	; 2
    7450:	11 09       	sbc	r17, r1
    7452:	06 1b       	sub	r16, r22
    7454:	17 0b       	sbc	r17, r23
    7456:	01 93       	st	Z+, r16
    7458:	11 93       	st	Z+, r17
    745a:	6d 93       	st	X+, r22
    745c:	7c 93       	st	X, r23
    745e:	cf 01       	movw	r24, r30
    7460:	0e 94 61 39 	call	0x72c2	; 0x72c2 <free>
    7464:	89 c0       	rjmp	.+274    	; 0x7578 <realloc+0x1a4>
    7466:	5b 01       	movw	r10, r22
    7468:	a0 1a       	sub	r10, r16
    746a:	b1 0a       	sbc	r11, r17
    746c:	4c 01       	movw	r8, r24
    746e:	80 0e       	add	r8, r16
    7470:	91 1e       	adc	r9, r17
    7472:	a0 91 94 2e 	lds	r26, 0x2E94	; 0x802e94 <__flp>
    7476:	b0 91 95 2e 	lds	r27, 0x2E95	; 0x802e95 <__flp+0x1>
    747a:	61 2c       	mov	r6, r1
    747c:	71 2c       	mov	r7, r1
    747e:	e1 2c       	mov	r14, r1
    7480:	f1 2c       	mov	r15, r1
    7482:	10 97       	sbiw	r26, 0x00	; 0
    7484:	09 f4       	brne	.+2      	; 0x7488 <realloc+0xb4>
    7486:	46 c0       	rjmp	.+140    	; 0x7514 <realloc+0x140>
    7488:	8d 91       	ld	r24, X+
    748a:	9c 91       	ld	r25, X
    748c:	11 97       	sbiw	r26, 0x01	; 1
    748e:	a8 15       	cp	r26, r8
    7490:	b9 05       	cpc	r27, r9
    7492:	b1 f5       	brne	.+108    	; 0x7500 <realloc+0x12c>
    7494:	6c 01       	movw	r12, r24
    7496:	42 e0       	ldi	r20, 0x02	; 2
    7498:	c4 0e       	add	r12, r20
    749a:	d1 1c       	adc	r13, r1
    749c:	ca 14       	cp	r12, r10
    749e:	db 04       	cpc	r13, r11
    74a0:	78 f1       	brcs	.+94     	; 0x7500 <realloc+0x12c>
    74a2:	4c 01       	movw	r8, r24
    74a4:	8a 18       	sub	r8, r10
    74a6:	9b 08       	sbc	r9, r11
    74a8:	64 01       	movw	r12, r8
    74aa:	42 e0       	ldi	r20, 0x02	; 2
    74ac:	c4 0e       	add	r12, r20
    74ae:	d1 1c       	adc	r13, r1
    74b0:	12 96       	adiw	r26, 0x02	; 2
    74b2:	bc 90       	ld	r11, X
    74b4:	12 97       	sbiw	r26, 0x02	; 2
    74b6:	13 96       	adiw	r26, 0x03	; 3
    74b8:	ac 91       	ld	r26, X
    74ba:	b5 e0       	ldi	r27, 0x05	; 5
    74bc:	cb 16       	cp	r12, r27
    74be:	d1 04       	cpc	r13, r1
    74c0:	40 f0       	brcs	.+16     	; 0x74d2 <realloc+0xfe>
    74c2:	b2 82       	std	Z+2, r11	; 0x02
    74c4:	a3 83       	std	Z+3, r26	; 0x03
    74c6:	80 82       	st	Z, r8
    74c8:	91 82       	std	Z+1, r9	; 0x01
    74ca:	d9 01       	movw	r26, r18
    74cc:	6d 93       	st	X+, r22
    74ce:	7c 93       	st	X, r23
    74d0:	09 c0       	rjmp	.+18     	; 0x74e4 <realloc+0x110>
    74d2:	0e 5f       	subi	r16, 0xFE	; 254
    74d4:	1f 4f       	sbci	r17, 0xFF	; 255
    74d6:	80 0f       	add	r24, r16
    74d8:	91 1f       	adc	r25, r17
    74da:	f9 01       	movw	r30, r18
    74dc:	80 83       	st	Z, r24
    74de:	91 83       	std	Z+1, r25	; 0x01
    74e0:	eb 2d       	mov	r30, r11
    74e2:	fa 2f       	mov	r31, r26
    74e4:	e1 14       	cp	r14, r1
    74e6:	f1 04       	cpc	r15, r1
    74e8:	31 f0       	breq	.+12     	; 0x74f6 <realloc+0x122>
    74ea:	d7 01       	movw	r26, r14
    74ec:	12 96       	adiw	r26, 0x02	; 2
    74ee:	ed 93       	st	X+, r30
    74f0:	fc 93       	st	X, r31
    74f2:	13 97       	sbiw	r26, 0x03	; 3
    74f4:	41 c0       	rjmp	.+130    	; 0x7578 <realloc+0x1a4>
    74f6:	e0 93 94 2e 	sts	0x2E94, r30	; 0x802e94 <__flp>
    74fa:	f0 93 95 2e 	sts	0x2E95, r31	; 0x802e95 <__flp+0x1>
    74fe:	3c c0       	rjmp	.+120    	; 0x7578 <realloc+0x1a4>
    7500:	68 16       	cp	r6, r24
    7502:	79 06       	cpc	r7, r25
    7504:	08 f4       	brcc	.+2      	; 0x7508 <realloc+0x134>
    7506:	3c 01       	movw	r6, r24
    7508:	7d 01       	movw	r14, r26
    750a:	12 96       	adiw	r26, 0x02	; 2
    750c:	0d 90       	ld	r0, X+
    750e:	bc 91       	ld	r27, X
    7510:	a0 2d       	mov	r26, r0
    7512:	b7 cf       	rjmp	.-146    	; 0x7482 <realloc+0xae>
    7514:	80 91 92 2e 	lds	r24, 0x2E92	; 0x802e92 <__brkval>
    7518:	90 91 93 2e 	lds	r25, 0x2E93	; 0x802e93 <__brkval+0x1>
    751c:	88 16       	cp	r8, r24
    751e:	99 06       	cpc	r9, r25
    7520:	e1 f4       	brne	.+56     	; 0x755a <realloc+0x186>
    7522:	66 16       	cp	r6, r22
    7524:	77 06       	cpc	r7, r23
    7526:	c8 f4       	brcc	.+50     	; 0x755a <realloc+0x186>
    7528:	80 91 00 20 	lds	r24, 0x2000	; 0x802000 <__data_start>
    752c:	90 91 01 20 	lds	r25, 0x2001	; 0x802001 <__data_start+0x1>
    7530:	00 97       	sbiw	r24, 0x00	; 0
    7532:	41 f4       	brne	.+16     	; 0x7544 <realloc+0x170>
    7534:	8d b7       	in	r24, 0x3d	; 61
    7536:	9e b7       	in	r25, 0x3e	; 62
    7538:	40 91 04 20 	lds	r20, 0x2004	; 0x802004 <__malloc_margin>
    753c:	50 91 05 20 	lds	r21, 0x2005	; 0x802005 <__malloc_margin+0x1>
    7540:	84 1b       	sub	r24, r20
    7542:	95 0b       	sbc	r25, r21
    7544:	e8 17       	cp	r30, r24
    7546:	f9 07       	cpc	r31, r25
    7548:	c8 f4       	brcc	.+50     	; 0x757c <realloc+0x1a8>
    754a:	e0 93 92 2e 	sts	0x2E92, r30	; 0x802e92 <__brkval>
    754e:	f0 93 93 2e 	sts	0x2E93, r31	; 0x802e93 <__brkval+0x1>
    7552:	f9 01       	movw	r30, r18
    7554:	60 83       	st	Z, r22
    7556:	71 83       	std	Z+1, r23	; 0x01
    7558:	0f c0       	rjmp	.+30     	; 0x7578 <realloc+0x1a4>
    755a:	cb 01       	movw	r24, r22
    755c:	0e 94 c9 38 	call	0x7192	; 0x7192 <malloc>
    7560:	7c 01       	movw	r14, r24
    7562:	00 97       	sbiw	r24, 0x00	; 0
    7564:	59 f0       	breq	.+22     	; 0x757c <realloc+0x1a8>
    7566:	a8 01       	movw	r20, r16
    7568:	be 01       	movw	r22, r28
    756a:	0e 94 e9 3c 	call	0x79d2	; 0x79d2 <memcpy>
    756e:	ce 01       	movw	r24, r28
    7570:	0e 94 61 39 	call	0x72c2	; 0x72c2 <free>
    7574:	c7 01       	movw	r24, r14
    7576:	04 c0       	rjmp	.+8      	; 0x7580 <realloc+0x1ac>
    7578:	ce 01       	movw	r24, r28
    757a:	02 c0       	rjmp	.+4      	; 0x7580 <realloc+0x1ac>
    757c:	80 e0       	ldi	r24, 0x00	; 0
    757e:	90 e0       	ldi	r25, 0x00	; 0
    7580:	df 91       	pop	r29
    7582:	cf 91       	pop	r28
    7584:	1f 91       	pop	r17
    7586:	0f 91       	pop	r16
    7588:	ff 90       	pop	r15
    758a:	ef 90       	pop	r14
    758c:	df 90       	pop	r13
    758e:	cf 90       	pop	r12
    7590:	bf 90       	pop	r11
    7592:	af 90       	pop	r10
    7594:	9f 90       	pop	r9
    7596:	8f 90       	pop	r8
    7598:	7f 90       	pop	r7
    759a:	6f 90       	pop	r6
    759c:	08 95       	ret

0000759e <strtol>:
    759e:	3f 92       	push	r3
    75a0:	4f 92       	push	r4
    75a2:	5f 92       	push	r5
    75a4:	6f 92       	push	r6
    75a6:	7f 92       	push	r7
    75a8:	8f 92       	push	r8
    75aa:	9f 92       	push	r9
    75ac:	af 92       	push	r10
    75ae:	bf 92       	push	r11
    75b0:	cf 92       	push	r12
    75b2:	df 92       	push	r13
    75b4:	ef 92       	push	r14
    75b6:	ff 92       	push	r15
    75b8:	0f 93       	push	r16
    75ba:	1f 93       	push	r17
    75bc:	cf 93       	push	r28
    75be:	df 93       	push	r29
    75c0:	5c 01       	movw	r10, r24
    75c2:	6b 01       	movw	r12, r22
    75c4:	7a 01       	movw	r14, r20
    75c6:	61 15       	cp	r22, r1
    75c8:	71 05       	cpc	r23, r1
    75ca:	19 f0       	breq	.+6      	; 0x75d2 <strtol+0x34>
    75cc:	fb 01       	movw	r30, r22
    75ce:	80 83       	st	Z, r24
    75d0:	91 83       	std	Z+1, r25	; 0x01
    75d2:	e1 14       	cp	r14, r1
    75d4:	f1 04       	cpc	r15, r1
    75d6:	29 f0       	breq	.+10     	; 0x75e2 <strtol+0x44>
    75d8:	c7 01       	movw	r24, r14
    75da:	02 97       	sbiw	r24, 0x02	; 2
    75dc:	83 97       	sbiw	r24, 0x23	; 35
    75de:	08 f0       	brcs	.+2      	; 0x75e2 <strtol+0x44>
    75e0:	e5 c0       	rjmp	.+458    	; 0x77ac <strtol+0x20e>
    75e2:	e5 01       	movw	r28, r10
    75e4:	21 96       	adiw	r28, 0x01	; 1
    75e6:	f5 01       	movw	r30, r10
    75e8:	10 81       	ld	r17, Z
    75ea:	81 2f       	mov	r24, r17
    75ec:	90 e0       	ldi	r25, 0x00	; 0
    75ee:	0e 94 d5 3c 	call	0x79aa	; 0x79aa <isspace>
    75f2:	89 2b       	or	r24, r25
    75f4:	11 f0       	breq	.+4      	; 0x75fa <strtol+0x5c>
    75f6:	5e 01       	movw	r10, r28
    75f8:	f4 cf       	rjmp	.-24     	; 0x75e2 <strtol+0x44>
    75fa:	1d 32       	cpi	r17, 0x2D	; 45
    75fc:	29 f4       	brne	.+10     	; 0x7608 <strtol+0x6a>
    75fe:	21 96       	adiw	r28, 0x01	; 1
    7600:	f5 01       	movw	r30, r10
    7602:	11 81       	ldd	r17, Z+1	; 0x01
    7604:	01 e0       	ldi	r16, 0x01	; 1
    7606:	07 c0       	rjmp	.+14     	; 0x7616 <strtol+0x78>
    7608:	1b 32       	cpi	r17, 0x2B	; 43
    760a:	21 f4       	brne	.+8      	; 0x7614 <strtol+0x76>
    760c:	e5 01       	movw	r28, r10
    760e:	22 96       	adiw	r28, 0x02	; 2
    7610:	f5 01       	movw	r30, r10
    7612:	11 81       	ldd	r17, Z+1	; 0x01
    7614:	00 e0       	ldi	r16, 0x00	; 0
    7616:	e1 14       	cp	r14, r1
    7618:	f1 04       	cpc	r15, r1
    761a:	09 f1       	breq	.+66     	; 0x765e <strtol+0xc0>
    761c:	f0 e1       	ldi	r31, 0x10	; 16
    761e:	ef 16       	cp	r14, r31
    7620:	f1 04       	cpc	r15, r1
    7622:	29 f4       	brne	.+10     	; 0x762e <strtol+0x90>
    7624:	3f c0       	rjmp	.+126    	; 0x76a4 <strtol+0x106>
    7626:	10 e3       	ldi	r17, 0x30	; 48
    7628:	e1 14       	cp	r14, r1
    762a:	f1 04       	cpc	r15, r1
    762c:	21 f1       	breq	.+72     	; 0x7676 <strtol+0xd8>
    762e:	28 e0       	ldi	r18, 0x08	; 8
    7630:	e2 16       	cp	r14, r18
    7632:	f1 04       	cpc	r15, r1
    7634:	01 f1       	breq	.+64     	; 0x7676 <strtol+0xd8>
    7636:	54 f4       	brge	.+20     	; 0x764c <strtol+0xae>
    7638:	e2 e0       	ldi	r30, 0x02	; 2
    763a:	ee 16       	cp	r14, r30
    763c:	f1 04       	cpc	r15, r1
    763e:	21 f5       	brne	.+72     	; 0x7688 <strtol+0xea>
    7640:	81 2c       	mov	r8, r1
    7642:	91 2c       	mov	r9, r1
    7644:	a1 2c       	mov	r10, r1
    7646:	b0 e4       	ldi	r27, 0x40	; 64
    7648:	bb 2e       	mov	r11, r27
    764a:	3e c0       	rjmp	.+124    	; 0x76c8 <strtol+0x12a>
    764c:	fa e0       	ldi	r31, 0x0A	; 10
    764e:	ef 16       	cp	r14, r31
    7650:	f1 04       	cpc	r15, r1
    7652:	39 f0       	breq	.+14     	; 0x7662 <strtol+0xc4>
    7654:	20 e1       	ldi	r18, 0x10	; 16
    7656:	e2 16       	cp	r14, r18
    7658:	f1 04       	cpc	r15, r1
    765a:	b1 f4       	brne	.+44     	; 0x7688 <strtol+0xea>
    765c:	30 c0       	rjmp	.+96     	; 0x76be <strtol+0x120>
    765e:	10 33       	cpi	r17, 0x30	; 48
    7660:	19 f1       	breq	.+70     	; 0x76a8 <strtol+0x10a>
    7662:	fa e0       	ldi	r31, 0x0A	; 10
    7664:	ef 2e       	mov	r14, r31
    7666:	f1 2c       	mov	r15, r1
    7668:	ac ec       	ldi	r26, 0xCC	; 204
    766a:	8a 2e       	mov	r8, r26
    766c:	98 2c       	mov	r9, r8
    766e:	a8 2c       	mov	r10, r8
    7670:	ac e0       	ldi	r26, 0x0C	; 12
    7672:	ba 2e       	mov	r11, r26
    7674:	29 c0       	rjmp	.+82     	; 0x76c8 <strtol+0x12a>
    7676:	78 e0       	ldi	r23, 0x08	; 8
    7678:	e7 2e       	mov	r14, r23
    767a:	f1 2c       	mov	r15, r1
    767c:	81 2c       	mov	r8, r1
    767e:	91 2c       	mov	r9, r1
    7680:	a1 2c       	mov	r10, r1
    7682:	e0 e1       	ldi	r30, 0x10	; 16
    7684:	be 2e       	mov	r11, r30
    7686:	20 c0       	rjmp	.+64     	; 0x76c8 <strtol+0x12a>
    7688:	60 e0       	ldi	r22, 0x00	; 0
    768a:	70 e0       	ldi	r23, 0x00	; 0
    768c:	80 e0       	ldi	r24, 0x00	; 0
    768e:	90 e8       	ldi	r25, 0x80	; 128
    7690:	97 01       	movw	r18, r14
    7692:	0f 2c       	mov	r0, r15
    7694:	00 0c       	add	r0, r0
    7696:	44 0b       	sbc	r20, r20
    7698:	55 0b       	sbc	r21, r21
    769a:	0e 94 c3 3e 	call	0x7d86	; 0x7d86 <__udivmodsi4>
    769e:	49 01       	movw	r8, r18
    76a0:	5a 01       	movw	r10, r20
    76a2:	12 c0       	rjmp	.+36     	; 0x76c8 <strtol+0x12a>
    76a4:	10 33       	cpi	r17, 0x30	; 48
    76a6:	59 f4       	brne	.+22     	; 0x76be <strtol+0x120>
    76a8:	88 81       	ld	r24, Y
    76aa:	8f 7d       	andi	r24, 0xDF	; 223
    76ac:	88 35       	cpi	r24, 0x58	; 88
    76ae:	09 f0       	breq	.+2      	; 0x76b2 <strtol+0x114>
    76b0:	ba cf       	rjmp	.-140    	; 0x7626 <strtol+0x88>
    76b2:	19 81       	ldd	r17, Y+1	; 0x01
    76b4:	22 96       	adiw	r28, 0x02	; 2
    76b6:	02 60       	ori	r16, 0x02	; 2
    76b8:	80 e1       	ldi	r24, 0x10	; 16
    76ba:	e8 2e       	mov	r14, r24
    76bc:	f1 2c       	mov	r15, r1
    76be:	81 2c       	mov	r8, r1
    76c0:	91 2c       	mov	r9, r1
    76c2:	a1 2c       	mov	r10, r1
    76c4:	68 e0       	ldi	r22, 0x08	; 8
    76c6:	b6 2e       	mov	r11, r22
    76c8:	40 e0       	ldi	r20, 0x00	; 0
    76ca:	60 e0       	ldi	r22, 0x00	; 0
    76cc:	70 e0       	ldi	r23, 0x00	; 0
    76ce:	cb 01       	movw	r24, r22
    76d0:	27 01       	movw	r4, r14
    76d2:	0f 2c       	mov	r0, r15
    76d4:	00 0c       	add	r0, r0
    76d6:	66 08       	sbc	r6, r6
    76d8:	77 08       	sbc	r7, r7
    76da:	fe 01       	movw	r30, r28
    76dc:	50 ed       	ldi	r21, 0xD0	; 208
    76de:	35 2e       	mov	r3, r21
    76e0:	31 0e       	add	r3, r17
    76e2:	29 e0       	ldi	r18, 0x09	; 9
    76e4:	23 15       	cp	r18, r3
    76e6:	70 f4       	brcc	.+28     	; 0x7704 <strtol+0x166>
    76e8:	2f eb       	ldi	r18, 0xBF	; 191
    76ea:	21 0f       	add	r18, r17
    76ec:	2a 31       	cpi	r18, 0x1A	; 26
    76ee:	18 f4       	brcc	.+6      	; 0x76f6 <strtol+0x158>
    76f0:	39 ec       	ldi	r19, 0xC9	; 201
    76f2:	33 2e       	mov	r3, r19
    76f4:	06 c0       	rjmp	.+12     	; 0x7702 <strtol+0x164>
    76f6:	2f e9       	ldi	r18, 0x9F	; 159
    76f8:	21 0f       	add	r18, r17
    76fa:	2a 31       	cpi	r18, 0x1A	; 26
    76fc:	18 f5       	brcc	.+70     	; 0x7744 <strtol+0x1a6>
    76fe:	29 ea       	ldi	r18, 0xA9	; 169
    7700:	32 2e       	mov	r3, r18
    7702:	31 0e       	add	r3, r17
    7704:	23 2d       	mov	r18, r3
    7706:	30 e0       	ldi	r19, 0x00	; 0
    7708:	2e 15       	cp	r18, r14
    770a:	3f 05       	cpc	r19, r15
    770c:	dc f4       	brge	.+54     	; 0x7744 <strtol+0x1a6>
    770e:	47 fd       	sbrc	r20, 7
    7710:	16 c0       	rjmp	.+44     	; 0x773e <strtol+0x1a0>
    7712:	86 16       	cp	r8, r22
    7714:	97 06       	cpc	r9, r23
    7716:	a8 06       	cpc	r10, r24
    7718:	b9 06       	cpc	r11, r25
    771a:	70 f0       	brcs	.+28     	; 0x7738 <strtol+0x19a>
    771c:	a3 01       	movw	r20, r6
    771e:	92 01       	movw	r18, r4
    7720:	0e 94 96 38 	call	0x712c	; 0x712c <__mulsi3>
    7724:	63 0d       	add	r22, r3
    7726:	71 1d       	adc	r23, r1
    7728:	81 1d       	adc	r24, r1
    772a:	91 1d       	adc	r25, r1
    772c:	61 30       	cpi	r22, 0x01	; 1
    772e:	71 05       	cpc	r23, r1
    7730:	81 05       	cpc	r24, r1
    7732:	20 e8       	ldi	r18, 0x80	; 128
    7734:	92 07       	cpc	r25, r18
    7736:	10 f0       	brcs	.+4      	; 0x773c <strtol+0x19e>
    7738:	4f ef       	ldi	r20, 0xFF	; 255
    773a:	01 c0       	rjmp	.+2      	; 0x773e <strtol+0x1a0>
    773c:	41 e0       	ldi	r20, 0x01	; 1
    773e:	21 96       	adiw	r28, 0x01	; 1
    7740:	10 81       	ld	r17, Z
    7742:	cb cf       	rjmp	.-106    	; 0x76da <strtol+0x13c>
    7744:	20 2f       	mov	r18, r16
    7746:	21 70       	andi	r18, 0x01	; 1
    7748:	c1 14       	cp	r12, r1
    774a:	d1 04       	cpc	r13, r1
    774c:	71 f0       	breq	.+28     	; 0x776a <strtol+0x1cc>
    774e:	44 23       	and	r20, r20
    7750:	29 f0       	breq	.+10     	; 0x775c <strtol+0x1be>
    7752:	21 97       	sbiw	r28, 0x01	; 1
    7754:	f6 01       	movw	r30, r12
    7756:	c0 83       	st	Z, r28
    7758:	d1 83       	std	Z+1, r29	; 0x01
    775a:	07 c0       	rjmp	.+14     	; 0x776a <strtol+0x1cc>
    775c:	01 ff       	sbrs	r16, 1
    775e:	19 c0       	rjmp	.+50     	; 0x7792 <strtol+0x1f4>
    7760:	22 97       	sbiw	r28, 0x02	; 2
    7762:	f6 01       	movw	r30, r12
    7764:	c0 83       	st	Z, r28
    7766:	d1 83       	std	Z+1, r29	; 0x01
    7768:	14 c0       	rjmp	.+40     	; 0x7792 <strtol+0x1f4>
    776a:	47 ff       	sbrs	r20, 7
    776c:	12 c0       	rjmp	.+36     	; 0x7792 <strtol+0x1f4>
    776e:	22 23       	and	r18, r18
    7770:	29 f0       	breq	.+10     	; 0x777c <strtol+0x1de>
    7772:	60 e0       	ldi	r22, 0x00	; 0
    7774:	70 e0       	ldi	r23, 0x00	; 0
    7776:	80 e0       	ldi	r24, 0x00	; 0
    7778:	90 e8       	ldi	r25, 0x80	; 128
    777a:	04 c0       	rjmp	.+8      	; 0x7784 <strtol+0x1e6>
    777c:	6f ef       	ldi	r22, 0xFF	; 255
    777e:	7f ef       	ldi	r23, 0xFF	; 255
    7780:	8f ef       	ldi	r24, 0xFF	; 255
    7782:	9f e7       	ldi	r25, 0x7F	; 127
    7784:	22 e2       	ldi	r18, 0x22	; 34
    7786:	30 e0       	ldi	r19, 0x00	; 0
    7788:	20 93 96 2e 	sts	0x2E96, r18	; 0x802e96 <errno>
    778c:	30 93 97 2e 	sts	0x2E97, r19	; 0x802e97 <errno+0x1>
    7790:	09 c0       	rjmp	.+18     	; 0x77a4 <strtol+0x206>
    7792:	22 23       	and	r18, r18
    7794:	81 f0       	breq	.+32     	; 0x77b6 <strtol+0x218>
    7796:	90 95       	com	r25
    7798:	80 95       	com	r24
    779a:	70 95       	com	r23
    779c:	61 95       	neg	r22
    779e:	7f 4f       	sbci	r23, 0xFF	; 255
    77a0:	8f 4f       	sbci	r24, 0xFF	; 255
    77a2:	9f 4f       	sbci	r25, 0xFF	; 255
    77a4:	46 2f       	mov	r20, r22
    77a6:	37 2f       	mov	r19, r23
    77a8:	28 2f       	mov	r18, r24
    77aa:	12 c0       	rjmp	.+36     	; 0x77d0 <strtol+0x232>
    77ac:	40 e0       	ldi	r20, 0x00	; 0
    77ae:	30 e0       	ldi	r19, 0x00	; 0
    77b0:	20 e0       	ldi	r18, 0x00	; 0
    77b2:	90 e0       	ldi	r25, 0x00	; 0
    77b4:	0d c0       	rjmp	.+26     	; 0x77d0 <strtol+0x232>
    77b6:	97 ff       	sbrs	r25, 7
    77b8:	f5 cf       	rjmp	.-22     	; 0x77a4 <strtol+0x206>
    77ba:	82 e2       	ldi	r24, 0x22	; 34
    77bc:	90 e0       	ldi	r25, 0x00	; 0
    77be:	80 93 96 2e 	sts	0x2E96, r24	; 0x802e96 <errno>
    77c2:	90 93 97 2e 	sts	0x2E97, r25	; 0x802e97 <errno+0x1>
    77c6:	6f ef       	ldi	r22, 0xFF	; 255
    77c8:	7f ef       	ldi	r23, 0xFF	; 255
    77ca:	8f ef       	ldi	r24, 0xFF	; 255
    77cc:	9f e7       	ldi	r25, 0x7F	; 127
    77ce:	ea cf       	rjmp	.-44     	; 0x77a4 <strtol+0x206>
    77d0:	64 2f       	mov	r22, r20
    77d2:	73 2f       	mov	r23, r19
    77d4:	82 2f       	mov	r24, r18
    77d6:	df 91       	pop	r29
    77d8:	cf 91       	pop	r28
    77da:	1f 91       	pop	r17
    77dc:	0f 91       	pop	r16
    77de:	ff 90       	pop	r15
    77e0:	ef 90       	pop	r14
    77e2:	df 90       	pop	r13
    77e4:	cf 90       	pop	r12
    77e6:	bf 90       	pop	r11
    77e8:	af 90       	pop	r10
    77ea:	9f 90       	pop	r9
    77ec:	8f 90       	pop	r8
    77ee:	7f 90       	pop	r7
    77f0:	6f 90       	pop	r6
    77f2:	5f 90       	pop	r5
    77f4:	4f 90       	pop	r4
    77f6:	3f 90       	pop	r3
    77f8:	08 95       	ret

000077fa <__ftoa_engine>:
    77fa:	28 30       	cpi	r18, 0x08	; 8
    77fc:	08 f0       	brcs	.+2      	; 0x7800 <__ftoa_engine+0x6>
    77fe:	27 e0       	ldi	r18, 0x07	; 7
    7800:	33 27       	eor	r19, r19
    7802:	da 01       	movw	r26, r20
    7804:	99 0f       	add	r25, r25
    7806:	31 1d       	adc	r19, r1
    7808:	87 fd       	sbrc	r24, 7
    780a:	91 60       	ori	r25, 0x01	; 1
    780c:	00 96       	adiw	r24, 0x00	; 0
    780e:	61 05       	cpc	r22, r1
    7810:	71 05       	cpc	r23, r1
    7812:	39 f4       	brne	.+14     	; 0x7822 <__ftoa_engine+0x28>
    7814:	32 60       	ori	r19, 0x02	; 2
    7816:	2e 5f       	subi	r18, 0xFE	; 254
    7818:	3d 93       	st	X+, r19
    781a:	30 e3       	ldi	r19, 0x30	; 48
    781c:	2a 95       	dec	r18
    781e:	e1 f7       	brne	.-8      	; 0x7818 <__ftoa_engine+0x1e>
    7820:	08 95       	ret
    7822:	9f 3f       	cpi	r25, 0xFF	; 255
    7824:	30 f0       	brcs	.+12     	; 0x7832 <__ftoa_engine+0x38>
    7826:	80 38       	cpi	r24, 0x80	; 128
    7828:	71 05       	cpc	r23, r1
    782a:	61 05       	cpc	r22, r1
    782c:	09 f0       	breq	.+2      	; 0x7830 <__ftoa_engine+0x36>
    782e:	3c 5f       	subi	r19, 0xFC	; 252
    7830:	3c 5f       	subi	r19, 0xFC	; 252
    7832:	3d 93       	st	X+, r19
    7834:	91 30       	cpi	r25, 0x01	; 1
    7836:	08 f0       	brcs	.+2      	; 0x783a <__ftoa_engine+0x40>
    7838:	80 68       	ori	r24, 0x80	; 128
    783a:	91 1d       	adc	r25, r1
    783c:	df 93       	push	r29
    783e:	cf 93       	push	r28
    7840:	1f 93       	push	r17
    7842:	0f 93       	push	r16
    7844:	ff 92       	push	r15
    7846:	ef 92       	push	r14
    7848:	19 2f       	mov	r17, r25
    784a:	98 7f       	andi	r25, 0xF8	; 248
    784c:	96 95       	lsr	r25
    784e:	e9 2f       	mov	r30, r25
    7850:	96 95       	lsr	r25
    7852:	96 95       	lsr	r25
    7854:	e9 0f       	add	r30, r25
    7856:	ff 27       	eor	r31, r31
    7858:	e2 54       	subi	r30, 0x42	; 66
    785a:	fd 4f       	sbci	r31, 0xFD	; 253
    785c:	99 27       	eor	r25, r25
    785e:	33 27       	eor	r19, r19
    7860:	ee 24       	eor	r14, r14
    7862:	ff 24       	eor	r15, r15
    7864:	a7 01       	movw	r20, r14
    7866:	e7 01       	movw	r28, r14
    7868:	05 90       	lpm	r0, Z+
    786a:	08 94       	sec
    786c:	07 94       	ror	r0
    786e:	28 f4       	brcc	.+10     	; 0x787a <__ftoa_engine+0x80>
    7870:	36 0f       	add	r19, r22
    7872:	e7 1e       	adc	r14, r23
    7874:	f8 1e       	adc	r15, r24
    7876:	49 1f       	adc	r20, r25
    7878:	51 1d       	adc	r21, r1
    787a:	66 0f       	add	r22, r22
    787c:	77 1f       	adc	r23, r23
    787e:	88 1f       	adc	r24, r24
    7880:	99 1f       	adc	r25, r25
    7882:	06 94       	lsr	r0
    7884:	a1 f7       	brne	.-24     	; 0x786e <__ftoa_engine+0x74>
    7886:	05 90       	lpm	r0, Z+
    7888:	07 94       	ror	r0
    788a:	28 f4       	brcc	.+10     	; 0x7896 <__ftoa_engine+0x9c>
    788c:	e7 0e       	add	r14, r23
    788e:	f8 1e       	adc	r15, r24
    7890:	49 1f       	adc	r20, r25
    7892:	56 1f       	adc	r21, r22
    7894:	c1 1d       	adc	r28, r1
    7896:	77 0f       	add	r23, r23
    7898:	88 1f       	adc	r24, r24
    789a:	99 1f       	adc	r25, r25
    789c:	66 1f       	adc	r22, r22
    789e:	06 94       	lsr	r0
    78a0:	a1 f7       	brne	.-24     	; 0x788a <__ftoa_engine+0x90>
    78a2:	05 90       	lpm	r0, Z+
    78a4:	07 94       	ror	r0
    78a6:	28 f4       	brcc	.+10     	; 0x78b2 <__ftoa_engine+0xb8>
    78a8:	f8 0e       	add	r15, r24
    78aa:	49 1f       	adc	r20, r25
    78ac:	56 1f       	adc	r21, r22
    78ae:	c7 1f       	adc	r28, r23
    78b0:	d1 1d       	adc	r29, r1
    78b2:	88 0f       	add	r24, r24
    78b4:	99 1f       	adc	r25, r25
    78b6:	66 1f       	adc	r22, r22
    78b8:	77 1f       	adc	r23, r23
    78ba:	06 94       	lsr	r0
    78bc:	a1 f7       	brne	.-24     	; 0x78a6 <__ftoa_engine+0xac>
    78be:	05 90       	lpm	r0, Z+
    78c0:	07 94       	ror	r0
    78c2:	20 f4       	brcc	.+8      	; 0x78cc <__ftoa_engine+0xd2>
    78c4:	49 0f       	add	r20, r25
    78c6:	56 1f       	adc	r21, r22
    78c8:	c7 1f       	adc	r28, r23
    78ca:	d8 1f       	adc	r29, r24
    78cc:	99 0f       	add	r25, r25
    78ce:	66 1f       	adc	r22, r22
    78d0:	77 1f       	adc	r23, r23
    78d2:	88 1f       	adc	r24, r24
    78d4:	06 94       	lsr	r0
    78d6:	a9 f7       	brne	.-22     	; 0x78c2 <__ftoa_engine+0xc8>
    78d8:	84 91       	lpm	r24, Z
    78da:	10 95       	com	r17
    78dc:	17 70       	andi	r17, 0x07	; 7
    78de:	41 f0       	breq	.+16     	; 0x78f0 <__ftoa_engine+0xf6>
    78e0:	d6 95       	lsr	r29
    78e2:	c7 95       	ror	r28
    78e4:	57 95       	ror	r21
    78e6:	47 95       	ror	r20
    78e8:	f7 94       	ror	r15
    78ea:	e7 94       	ror	r14
    78ec:	1a 95       	dec	r17
    78ee:	c1 f7       	brne	.-16     	; 0x78e0 <__ftoa_engine+0xe6>
    78f0:	e4 e6       	ldi	r30, 0x64	; 100
    78f2:	f2 e0       	ldi	r31, 0x02	; 2
    78f4:	68 94       	set
    78f6:	15 90       	lpm	r1, Z+
    78f8:	15 91       	lpm	r17, Z+
    78fa:	35 91       	lpm	r19, Z+
    78fc:	65 91       	lpm	r22, Z+
    78fe:	95 91       	lpm	r25, Z+
    7900:	05 90       	lpm	r0, Z+
    7902:	7f e2       	ldi	r23, 0x2F	; 47
    7904:	73 95       	inc	r23
    7906:	e1 18       	sub	r14, r1
    7908:	f1 0a       	sbc	r15, r17
    790a:	43 0b       	sbc	r20, r19
    790c:	56 0b       	sbc	r21, r22
    790e:	c9 0b       	sbc	r28, r25
    7910:	d0 09       	sbc	r29, r0
    7912:	c0 f7       	brcc	.-16     	; 0x7904 <__ftoa_engine+0x10a>
    7914:	e1 0c       	add	r14, r1
    7916:	f1 1e       	adc	r15, r17
    7918:	43 1f       	adc	r20, r19
    791a:	56 1f       	adc	r21, r22
    791c:	c9 1f       	adc	r28, r25
    791e:	d0 1d       	adc	r29, r0
    7920:	7e f4       	brtc	.+30     	; 0x7940 <__ftoa_engine+0x146>
    7922:	70 33       	cpi	r23, 0x30	; 48
    7924:	11 f4       	brne	.+4      	; 0x792a <__ftoa_engine+0x130>
    7926:	8a 95       	dec	r24
    7928:	e6 cf       	rjmp	.-52     	; 0x78f6 <__ftoa_engine+0xfc>
    792a:	e8 94       	clt
    792c:	01 50       	subi	r16, 0x01	; 1
    792e:	30 f0       	brcs	.+12     	; 0x793c <__ftoa_engine+0x142>
    7930:	08 0f       	add	r16, r24
    7932:	0a f4       	brpl	.+2      	; 0x7936 <__ftoa_engine+0x13c>
    7934:	00 27       	eor	r16, r16
    7936:	02 17       	cp	r16, r18
    7938:	08 f4       	brcc	.+2      	; 0x793c <__ftoa_engine+0x142>
    793a:	20 2f       	mov	r18, r16
    793c:	23 95       	inc	r18
    793e:	02 2f       	mov	r16, r18
    7940:	7a 33       	cpi	r23, 0x3A	; 58
    7942:	28 f0       	brcs	.+10     	; 0x794e <__ftoa_engine+0x154>
    7944:	79 e3       	ldi	r23, 0x39	; 57
    7946:	7d 93       	st	X+, r23
    7948:	2a 95       	dec	r18
    794a:	e9 f7       	brne	.-6      	; 0x7946 <__ftoa_engine+0x14c>
    794c:	10 c0       	rjmp	.+32     	; 0x796e <__ftoa_engine+0x174>
    794e:	7d 93       	st	X+, r23
    7950:	2a 95       	dec	r18
    7952:	89 f6       	brne	.-94     	; 0x78f6 <__ftoa_engine+0xfc>
    7954:	06 94       	lsr	r0
    7956:	97 95       	ror	r25
    7958:	67 95       	ror	r22
    795a:	37 95       	ror	r19
    795c:	17 95       	ror	r17
    795e:	17 94       	ror	r1
    7960:	e1 18       	sub	r14, r1
    7962:	f1 0a       	sbc	r15, r17
    7964:	43 0b       	sbc	r20, r19
    7966:	56 0b       	sbc	r21, r22
    7968:	c9 0b       	sbc	r28, r25
    796a:	d0 09       	sbc	r29, r0
    796c:	98 f0       	brcs	.+38     	; 0x7994 <__ftoa_engine+0x19a>
    796e:	23 95       	inc	r18
    7970:	7e 91       	ld	r23, -X
    7972:	73 95       	inc	r23
    7974:	7a 33       	cpi	r23, 0x3A	; 58
    7976:	08 f0       	brcs	.+2      	; 0x797a <__ftoa_engine+0x180>
    7978:	70 e3       	ldi	r23, 0x30	; 48
    797a:	7c 93       	st	X, r23
    797c:	20 13       	cpse	r18, r16
    797e:	b8 f7       	brcc	.-18     	; 0x796e <__ftoa_engine+0x174>
    7980:	7e 91       	ld	r23, -X
    7982:	70 61       	ori	r23, 0x10	; 16
    7984:	7d 93       	st	X+, r23
    7986:	30 f0       	brcs	.+12     	; 0x7994 <__ftoa_engine+0x19a>
    7988:	83 95       	inc	r24
    798a:	71 e3       	ldi	r23, 0x31	; 49
    798c:	7d 93       	st	X+, r23
    798e:	70 e3       	ldi	r23, 0x30	; 48
    7990:	2a 95       	dec	r18
    7992:	e1 f7       	brne	.-8      	; 0x798c <__ftoa_engine+0x192>
    7994:	11 24       	eor	r1, r1
    7996:	ef 90       	pop	r14
    7998:	ff 90       	pop	r15
    799a:	0f 91       	pop	r16
    799c:	1f 91       	pop	r17
    799e:	cf 91       	pop	r28
    79a0:	df 91       	pop	r29
    79a2:	99 27       	eor	r25, r25
    79a4:	87 fd       	sbrc	r24, 7
    79a6:	90 95       	com	r25
    79a8:	08 95       	ret

000079aa <isspace>:
    79aa:	91 11       	cpse	r25, r1
    79ac:	0c 94 66 3e 	jmp	0x7ccc	; 0x7ccc <__ctype_isfalse>
    79b0:	80 32       	cpi	r24, 0x20	; 32
    79b2:	19 f0       	breq	.+6      	; 0x79ba <isspace+0x10>
    79b4:	89 50       	subi	r24, 0x09	; 9
    79b6:	85 50       	subi	r24, 0x05	; 5
    79b8:	c8 f7       	brcc	.-14     	; 0x79ac <isspace+0x2>
    79ba:	08 95       	ret

000079bc <strnlen_P>:
    79bc:	fc 01       	movw	r30, r24
    79be:	05 90       	lpm	r0, Z+
    79c0:	61 50       	subi	r22, 0x01	; 1
    79c2:	70 40       	sbci	r23, 0x00	; 0
    79c4:	01 10       	cpse	r0, r1
    79c6:	d8 f7       	brcc	.-10     	; 0x79be <strnlen_P+0x2>
    79c8:	80 95       	com	r24
    79ca:	90 95       	com	r25
    79cc:	8e 0f       	add	r24, r30
    79ce:	9f 1f       	adc	r25, r31
    79d0:	08 95       	ret

000079d2 <memcpy>:
    79d2:	fb 01       	movw	r30, r22
    79d4:	dc 01       	movw	r26, r24
    79d6:	02 c0       	rjmp	.+4      	; 0x79dc <memcpy+0xa>
    79d8:	01 90       	ld	r0, Z+
    79da:	0d 92       	st	X+, r0
    79dc:	41 50       	subi	r20, 0x01	; 1
    79de:	50 40       	sbci	r21, 0x00	; 0
    79e0:	d8 f7       	brcc	.-10     	; 0x79d8 <memcpy+0x6>
    79e2:	08 95       	ret

000079e4 <strncmp>:
    79e4:	fb 01       	movw	r30, r22
    79e6:	dc 01       	movw	r26, r24
    79e8:	41 50       	subi	r20, 0x01	; 1
    79ea:	50 40       	sbci	r21, 0x00	; 0
    79ec:	30 f0       	brcs	.+12     	; 0x79fa <strncmp+0x16>
    79ee:	8d 91       	ld	r24, X+
    79f0:	01 90       	ld	r0, Z+
    79f2:	80 19       	sub	r24, r0
    79f4:	19 f4       	brne	.+6      	; 0x79fc <strncmp+0x18>
    79f6:	00 20       	and	r0, r0
    79f8:	b9 f7       	brne	.-18     	; 0x79e8 <strncmp+0x4>
    79fa:	88 1b       	sub	r24, r24
    79fc:	99 0b       	sbc	r25, r25
    79fe:	08 95       	ret

00007a00 <strncpy>:
    7a00:	fb 01       	movw	r30, r22
    7a02:	dc 01       	movw	r26, r24
    7a04:	41 50       	subi	r20, 0x01	; 1
    7a06:	50 40       	sbci	r21, 0x00	; 0
    7a08:	48 f0       	brcs	.+18     	; 0x7a1c <strncpy+0x1c>
    7a0a:	01 90       	ld	r0, Z+
    7a0c:	0d 92       	st	X+, r0
    7a0e:	00 20       	and	r0, r0
    7a10:	c9 f7       	brne	.-14     	; 0x7a04 <strncpy+0x4>
    7a12:	01 c0       	rjmp	.+2      	; 0x7a16 <strncpy+0x16>
    7a14:	1d 92       	st	X+, r1
    7a16:	41 50       	subi	r20, 0x01	; 1
    7a18:	50 40       	sbci	r21, 0x00	; 0
    7a1a:	e0 f7       	brcc	.-8      	; 0x7a14 <strncpy+0x14>
    7a1c:	08 95       	ret

00007a1e <strnlen>:
    7a1e:	fc 01       	movw	r30, r24
    7a20:	61 50       	subi	r22, 0x01	; 1
    7a22:	70 40       	sbci	r23, 0x00	; 0
    7a24:	01 90       	ld	r0, Z+
    7a26:	01 10       	cpse	r0, r1
    7a28:	d8 f7       	brcc	.-10     	; 0x7a20 <strnlen+0x2>
    7a2a:	80 95       	com	r24
    7a2c:	90 95       	com	r25
    7a2e:	8e 0f       	add	r24, r30
    7a30:	9f 1f       	adc	r25, r31
    7a32:	08 95       	ret

00007a34 <fprintf>:
    7a34:	cf 93       	push	r28
    7a36:	df 93       	push	r29
    7a38:	cd b7       	in	r28, 0x3d	; 61
    7a3a:	de b7       	in	r29, 0x3e	; 62
    7a3c:	ae 01       	movw	r20, r28
    7a3e:	46 5f       	subi	r20, 0xF6	; 246
    7a40:	5f 4f       	sbci	r21, 0xFF	; 255
    7a42:	68 85       	ldd	r22, Y+8	; 0x08
    7a44:	79 85       	ldd	r23, Y+9	; 0x09
    7a46:	8e 81       	ldd	r24, Y+6	; 0x06
    7a48:	9f 81       	ldd	r25, Y+7	; 0x07
    7a4a:	0e 94 f6 34 	call	0x69ec	; 0x69ec <vfprintf>
    7a4e:	df 91       	pop	r29
    7a50:	cf 91       	pop	r28
    7a52:	08 95       	ret

00007a54 <fputc>:
    7a54:	0f 93       	push	r16
    7a56:	1f 93       	push	r17
    7a58:	cf 93       	push	r28
    7a5a:	df 93       	push	r29
    7a5c:	fb 01       	movw	r30, r22
    7a5e:	23 81       	ldd	r18, Z+3	; 0x03
    7a60:	21 fd       	sbrc	r18, 1
    7a62:	03 c0       	rjmp	.+6      	; 0x7a6a <fputc+0x16>
    7a64:	8f ef       	ldi	r24, 0xFF	; 255
    7a66:	9f ef       	ldi	r25, 0xFF	; 255
    7a68:	2c c0       	rjmp	.+88     	; 0x7ac2 <fputc+0x6e>
    7a6a:	22 ff       	sbrs	r18, 2
    7a6c:	16 c0       	rjmp	.+44     	; 0x7a9a <fputc+0x46>
    7a6e:	46 81       	ldd	r20, Z+6	; 0x06
    7a70:	57 81       	ldd	r21, Z+7	; 0x07
    7a72:	24 81       	ldd	r18, Z+4	; 0x04
    7a74:	35 81       	ldd	r19, Z+5	; 0x05
    7a76:	42 17       	cp	r20, r18
    7a78:	53 07       	cpc	r21, r19
    7a7a:	44 f4       	brge	.+16     	; 0x7a8c <fputc+0x38>
    7a7c:	a0 81       	ld	r26, Z
    7a7e:	b1 81       	ldd	r27, Z+1	; 0x01
    7a80:	9d 01       	movw	r18, r26
    7a82:	2f 5f       	subi	r18, 0xFF	; 255
    7a84:	3f 4f       	sbci	r19, 0xFF	; 255
    7a86:	20 83       	st	Z, r18
    7a88:	31 83       	std	Z+1, r19	; 0x01
    7a8a:	8c 93       	st	X, r24
    7a8c:	26 81       	ldd	r18, Z+6	; 0x06
    7a8e:	37 81       	ldd	r19, Z+7	; 0x07
    7a90:	2f 5f       	subi	r18, 0xFF	; 255
    7a92:	3f 4f       	sbci	r19, 0xFF	; 255
    7a94:	26 83       	std	Z+6, r18	; 0x06
    7a96:	37 83       	std	Z+7, r19	; 0x07
    7a98:	14 c0       	rjmp	.+40     	; 0x7ac2 <fputc+0x6e>
    7a9a:	8b 01       	movw	r16, r22
    7a9c:	ec 01       	movw	r28, r24
    7a9e:	fb 01       	movw	r30, r22
    7aa0:	00 84       	ldd	r0, Z+8	; 0x08
    7aa2:	f1 85       	ldd	r31, Z+9	; 0x09
    7aa4:	e0 2d       	mov	r30, r0
    7aa6:	19 95       	eicall
    7aa8:	89 2b       	or	r24, r25
    7aaa:	e1 f6       	brne	.-72     	; 0x7a64 <fputc+0x10>
    7aac:	d8 01       	movw	r26, r16
    7aae:	16 96       	adiw	r26, 0x06	; 6
    7ab0:	8d 91       	ld	r24, X+
    7ab2:	9c 91       	ld	r25, X
    7ab4:	17 97       	sbiw	r26, 0x07	; 7
    7ab6:	01 96       	adiw	r24, 0x01	; 1
    7ab8:	16 96       	adiw	r26, 0x06	; 6
    7aba:	8d 93       	st	X+, r24
    7abc:	9c 93       	st	X, r25
    7abe:	17 97       	sbiw	r26, 0x07	; 7
    7ac0:	ce 01       	movw	r24, r28
    7ac2:	df 91       	pop	r29
    7ac4:	cf 91       	pop	r28
    7ac6:	1f 91       	pop	r17
    7ac8:	0f 91       	pop	r16
    7aca:	08 95       	ret

00007acc <fwrite>:
    7acc:	8f 92       	push	r8
    7ace:	9f 92       	push	r9
    7ad0:	af 92       	push	r10
    7ad2:	bf 92       	push	r11
    7ad4:	cf 92       	push	r12
    7ad6:	df 92       	push	r13
    7ad8:	ef 92       	push	r14
    7ada:	ff 92       	push	r15
    7adc:	0f 93       	push	r16
    7ade:	1f 93       	push	r17
    7ae0:	cf 93       	push	r28
    7ae2:	df 93       	push	r29
    7ae4:	5b 01       	movw	r10, r22
    7ae6:	4a 01       	movw	r8, r20
    7ae8:	79 01       	movw	r14, r18
    7aea:	d9 01       	movw	r26, r18
    7aec:	13 96       	adiw	r26, 0x03	; 3
    7aee:	2c 91       	ld	r18, X
    7af0:	21 ff       	sbrs	r18, 1
    7af2:	1d c0       	rjmp	.+58     	; 0x7b2e <fwrite+0x62>
    7af4:	c0 e0       	ldi	r28, 0x00	; 0
    7af6:	d0 e0       	ldi	r29, 0x00	; 0
    7af8:	c8 15       	cp	r28, r8
    7afa:	d9 05       	cpc	r29, r9
    7afc:	d9 f0       	breq	.+54     	; 0x7b34 <fwrite+0x68>
    7afe:	8c 01       	movw	r16, r24
    7b00:	6c 01       	movw	r12, r24
    7b02:	ca 0c       	add	r12, r10
    7b04:	db 1c       	adc	r13, r11
    7b06:	c8 01       	movw	r24, r16
    7b08:	0c 15       	cp	r16, r12
    7b0a:	1d 05       	cpc	r17, r13
    7b0c:	71 f0       	breq	.+28     	; 0x7b2a <fwrite+0x5e>
    7b0e:	0f 5f       	subi	r16, 0xFF	; 255
    7b10:	1f 4f       	sbci	r17, 0xFF	; 255
    7b12:	d7 01       	movw	r26, r14
    7b14:	18 96       	adiw	r26, 0x08	; 8
    7b16:	ed 91       	ld	r30, X+
    7b18:	fc 91       	ld	r31, X
    7b1a:	19 97       	sbiw	r26, 0x09	; 9
    7b1c:	b7 01       	movw	r22, r14
    7b1e:	dc 01       	movw	r26, r24
    7b20:	8c 91       	ld	r24, X
    7b22:	19 95       	eicall
    7b24:	89 2b       	or	r24, r25
    7b26:	79 f3       	breq	.-34     	; 0x7b06 <fwrite+0x3a>
    7b28:	05 c0       	rjmp	.+10     	; 0x7b34 <fwrite+0x68>
    7b2a:	21 96       	adiw	r28, 0x01	; 1
    7b2c:	e5 cf       	rjmp	.-54     	; 0x7af8 <fwrite+0x2c>
    7b2e:	80 e0       	ldi	r24, 0x00	; 0
    7b30:	90 e0       	ldi	r25, 0x00	; 0
    7b32:	01 c0       	rjmp	.+2      	; 0x7b36 <fwrite+0x6a>
    7b34:	ce 01       	movw	r24, r28
    7b36:	df 91       	pop	r29
    7b38:	cf 91       	pop	r28
    7b3a:	1f 91       	pop	r17
    7b3c:	0f 91       	pop	r16
    7b3e:	ff 90       	pop	r15
    7b40:	ef 90       	pop	r14
    7b42:	df 90       	pop	r13
    7b44:	cf 90       	pop	r12
    7b46:	bf 90       	pop	r11
    7b48:	af 90       	pop	r10
    7b4a:	9f 90       	pop	r9
    7b4c:	8f 90       	pop	r8
    7b4e:	08 95       	ret

00007b50 <snprintf>:
    7b50:	0f 93       	push	r16
    7b52:	1f 93       	push	r17
    7b54:	cf 93       	push	r28
    7b56:	df 93       	push	r29
    7b58:	cd b7       	in	r28, 0x3d	; 61
    7b5a:	de b7       	in	r29, 0x3e	; 62
    7b5c:	2e 97       	sbiw	r28, 0x0e	; 14
    7b5e:	cd bf       	out	0x3d, r28	; 61
    7b60:	de bf       	out	0x3e, r29	; 62
    7b62:	0e 89       	ldd	r16, Y+22	; 0x16
    7b64:	1f 89       	ldd	r17, Y+23	; 0x17
    7b66:	88 8d       	ldd	r24, Y+24	; 0x18
    7b68:	99 8d       	ldd	r25, Y+25	; 0x19
    7b6a:	26 e0       	ldi	r18, 0x06	; 6
    7b6c:	2c 83       	std	Y+4, r18	; 0x04
    7b6e:	09 83       	std	Y+1, r16	; 0x01
    7b70:	1a 83       	std	Y+2, r17	; 0x02
    7b72:	97 ff       	sbrs	r25, 7
    7b74:	02 c0       	rjmp	.+4      	; 0x7b7a <snprintf+0x2a>
    7b76:	80 e0       	ldi	r24, 0x00	; 0
    7b78:	90 e8       	ldi	r25, 0x80	; 128
    7b7a:	01 97       	sbiw	r24, 0x01	; 1
    7b7c:	8d 83       	std	Y+5, r24	; 0x05
    7b7e:	9e 83       	std	Y+6, r25	; 0x06
    7b80:	ae 01       	movw	r20, r28
    7b82:	44 5e       	subi	r20, 0xE4	; 228
    7b84:	5f 4f       	sbci	r21, 0xFF	; 255
    7b86:	6a 8d       	ldd	r22, Y+26	; 0x1a
    7b88:	7b 8d       	ldd	r23, Y+27	; 0x1b
    7b8a:	ce 01       	movw	r24, r28
    7b8c:	01 96       	adiw	r24, 0x01	; 1
    7b8e:	0e 94 f6 34 	call	0x69ec	; 0x69ec <vfprintf>
    7b92:	4d 81       	ldd	r20, Y+5	; 0x05
    7b94:	5e 81       	ldd	r21, Y+6	; 0x06
    7b96:	57 fd       	sbrc	r21, 7
    7b98:	0a c0       	rjmp	.+20     	; 0x7bae <snprintf+0x5e>
    7b9a:	2f 81       	ldd	r18, Y+7	; 0x07
    7b9c:	38 85       	ldd	r19, Y+8	; 0x08
    7b9e:	42 17       	cp	r20, r18
    7ba0:	53 07       	cpc	r21, r19
    7ba2:	0c f4       	brge	.+2      	; 0x7ba6 <snprintf+0x56>
    7ba4:	9a 01       	movw	r18, r20
    7ba6:	f8 01       	movw	r30, r16
    7ba8:	e2 0f       	add	r30, r18
    7baa:	f3 1f       	adc	r31, r19
    7bac:	10 82       	st	Z, r1
    7bae:	2e 96       	adiw	r28, 0x0e	; 14
    7bb0:	cd bf       	out	0x3d, r28	; 61
    7bb2:	de bf       	out	0x3e, r29	; 62
    7bb4:	df 91       	pop	r29
    7bb6:	cf 91       	pop	r28
    7bb8:	1f 91       	pop	r17
    7bba:	0f 91       	pop	r16
    7bbc:	08 95       	ret

00007bbe <sprintf>:
    7bbe:	0f 93       	push	r16
    7bc0:	1f 93       	push	r17
    7bc2:	cf 93       	push	r28
    7bc4:	df 93       	push	r29
    7bc6:	cd b7       	in	r28, 0x3d	; 61
    7bc8:	de b7       	in	r29, 0x3e	; 62
    7bca:	2e 97       	sbiw	r28, 0x0e	; 14
    7bcc:	cd bf       	out	0x3d, r28	; 61
    7bce:	de bf       	out	0x3e, r29	; 62
    7bd0:	0e 89       	ldd	r16, Y+22	; 0x16
    7bd2:	1f 89       	ldd	r17, Y+23	; 0x17
    7bd4:	86 e0       	ldi	r24, 0x06	; 6
    7bd6:	8c 83       	std	Y+4, r24	; 0x04
    7bd8:	09 83       	std	Y+1, r16	; 0x01
    7bda:	1a 83       	std	Y+2, r17	; 0x02
    7bdc:	8f ef       	ldi	r24, 0xFF	; 255
    7bde:	9f e7       	ldi	r25, 0x7F	; 127
    7be0:	8d 83       	std	Y+5, r24	; 0x05
    7be2:	9e 83       	std	Y+6, r25	; 0x06
    7be4:	ae 01       	movw	r20, r28
    7be6:	46 5e       	subi	r20, 0xE6	; 230
    7be8:	5f 4f       	sbci	r21, 0xFF	; 255
    7bea:	68 8d       	ldd	r22, Y+24	; 0x18
    7bec:	79 8d       	ldd	r23, Y+25	; 0x19
    7bee:	ce 01       	movw	r24, r28
    7bf0:	01 96       	adiw	r24, 0x01	; 1
    7bf2:	0e 94 f6 34 	call	0x69ec	; 0x69ec <vfprintf>
    7bf6:	ef 81       	ldd	r30, Y+7	; 0x07
    7bf8:	f8 85       	ldd	r31, Y+8	; 0x08
    7bfa:	e0 0f       	add	r30, r16
    7bfc:	f1 1f       	adc	r31, r17
    7bfe:	10 82       	st	Z, r1
    7c00:	2e 96       	adiw	r28, 0x0e	; 14
    7c02:	cd bf       	out	0x3d, r28	; 61
    7c04:	de bf       	out	0x3e, r29	; 62
    7c06:	df 91       	pop	r29
    7c08:	cf 91       	pop	r28
    7c0a:	1f 91       	pop	r17
    7c0c:	0f 91       	pop	r16
    7c0e:	08 95       	ret

00007c10 <__ultoa_invert>:
    7c10:	fa 01       	movw	r30, r20
    7c12:	aa 27       	eor	r26, r26
    7c14:	28 30       	cpi	r18, 0x08	; 8
    7c16:	51 f1       	breq	.+84     	; 0x7c6c <__ultoa_invert+0x5c>
    7c18:	20 31       	cpi	r18, 0x10	; 16
    7c1a:	81 f1       	breq	.+96     	; 0x7c7c <__ultoa_invert+0x6c>
    7c1c:	e8 94       	clt
    7c1e:	6f 93       	push	r22
    7c20:	6e 7f       	andi	r22, 0xFE	; 254
    7c22:	6e 5f       	subi	r22, 0xFE	; 254
    7c24:	7f 4f       	sbci	r23, 0xFF	; 255
    7c26:	8f 4f       	sbci	r24, 0xFF	; 255
    7c28:	9f 4f       	sbci	r25, 0xFF	; 255
    7c2a:	af 4f       	sbci	r26, 0xFF	; 255
    7c2c:	b1 e0       	ldi	r27, 0x01	; 1
    7c2e:	3e d0       	rcall	.+124    	; 0x7cac <__ultoa_invert+0x9c>
    7c30:	b4 e0       	ldi	r27, 0x04	; 4
    7c32:	3c d0       	rcall	.+120    	; 0x7cac <__ultoa_invert+0x9c>
    7c34:	67 0f       	add	r22, r23
    7c36:	78 1f       	adc	r23, r24
    7c38:	89 1f       	adc	r24, r25
    7c3a:	9a 1f       	adc	r25, r26
    7c3c:	a1 1d       	adc	r26, r1
    7c3e:	68 0f       	add	r22, r24
    7c40:	79 1f       	adc	r23, r25
    7c42:	8a 1f       	adc	r24, r26
    7c44:	91 1d       	adc	r25, r1
    7c46:	a1 1d       	adc	r26, r1
    7c48:	6a 0f       	add	r22, r26
    7c4a:	71 1d       	adc	r23, r1
    7c4c:	81 1d       	adc	r24, r1
    7c4e:	91 1d       	adc	r25, r1
    7c50:	a1 1d       	adc	r26, r1
    7c52:	20 d0       	rcall	.+64     	; 0x7c94 <__ultoa_invert+0x84>
    7c54:	09 f4       	brne	.+2      	; 0x7c58 <__ultoa_invert+0x48>
    7c56:	68 94       	set
    7c58:	3f 91       	pop	r19
    7c5a:	2a e0       	ldi	r18, 0x0A	; 10
    7c5c:	26 9f       	mul	r18, r22
    7c5e:	11 24       	eor	r1, r1
    7c60:	30 19       	sub	r19, r0
    7c62:	30 5d       	subi	r19, 0xD0	; 208
    7c64:	31 93       	st	Z+, r19
    7c66:	de f6       	brtc	.-74     	; 0x7c1e <__ultoa_invert+0xe>
    7c68:	cf 01       	movw	r24, r30
    7c6a:	08 95       	ret
    7c6c:	46 2f       	mov	r20, r22
    7c6e:	47 70       	andi	r20, 0x07	; 7
    7c70:	40 5d       	subi	r20, 0xD0	; 208
    7c72:	41 93       	st	Z+, r20
    7c74:	b3 e0       	ldi	r27, 0x03	; 3
    7c76:	0f d0       	rcall	.+30     	; 0x7c96 <__ultoa_invert+0x86>
    7c78:	c9 f7       	brne	.-14     	; 0x7c6c <__ultoa_invert+0x5c>
    7c7a:	f6 cf       	rjmp	.-20     	; 0x7c68 <__ultoa_invert+0x58>
    7c7c:	46 2f       	mov	r20, r22
    7c7e:	4f 70       	andi	r20, 0x0F	; 15
    7c80:	40 5d       	subi	r20, 0xD0	; 208
    7c82:	4a 33       	cpi	r20, 0x3A	; 58
    7c84:	18 f0       	brcs	.+6      	; 0x7c8c <__ultoa_invert+0x7c>
    7c86:	49 5d       	subi	r20, 0xD9	; 217
    7c88:	31 fd       	sbrc	r19, 1
    7c8a:	40 52       	subi	r20, 0x20	; 32
    7c8c:	41 93       	st	Z+, r20
    7c8e:	02 d0       	rcall	.+4      	; 0x7c94 <__ultoa_invert+0x84>
    7c90:	a9 f7       	brne	.-22     	; 0x7c7c <__ultoa_invert+0x6c>
    7c92:	ea cf       	rjmp	.-44     	; 0x7c68 <__ultoa_invert+0x58>
    7c94:	b4 e0       	ldi	r27, 0x04	; 4
    7c96:	a6 95       	lsr	r26
    7c98:	97 95       	ror	r25
    7c9a:	87 95       	ror	r24
    7c9c:	77 95       	ror	r23
    7c9e:	67 95       	ror	r22
    7ca0:	ba 95       	dec	r27
    7ca2:	c9 f7       	brne	.-14     	; 0x7c96 <__ultoa_invert+0x86>
    7ca4:	00 97       	sbiw	r24, 0x00	; 0
    7ca6:	61 05       	cpc	r22, r1
    7ca8:	71 05       	cpc	r23, r1
    7caa:	08 95       	ret
    7cac:	9b 01       	movw	r18, r22
    7cae:	ac 01       	movw	r20, r24
    7cb0:	0a 2e       	mov	r0, r26
    7cb2:	06 94       	lsr	r0
    7cb4:	57 95       	ror	r21
    7cb6:	47 95       	ror	r20
    7cb8:	37 95       	ror	r19
    7cba:	27 95       	ror	r18
    7cbc:	ba 95       	dec	r27
    7cbe:	c9 f7       	brne	.-14     	; 0x7cb2 <__ultoa_invert+0xa2>
    7cc0:	62 0f       	add	r22, r18
    7cc2:	73 1f       	adc	r23, r19
    7cc4:	84 1f       	adc	r24, r20
    7cc6:	95 1f       	adc	r25, r21
    7cc8:	a0 1d       	adc	r26, r0
    7cca:	08 95       	ret

00007ccc <__ctype_isfalse>:
    7ccc:	99 27       	eor	r25, r25
    7cce:	88 27       	eor	r24, r24

00007cd0 <__ctype_istrue>:
    7cd0:	08 95       	ret

00007cd2 <eeprom_read_block>:
    7cd2:	e0 ec       	ldi	r30, 0xC0	; 192
    7cd4:	f1 e0       	ldi	r31, 0x01	; 1
    7cd6:	a7 85       	ldd	r26, Z+15	; 0x0f
    7cd8:	a7 fd       	sbrc	r26, 7
    7cda:	fd cf       	rjmp	.-6      	; 0x7cd6 <eeprom_read_block+0x4>
    7cdc:	a4 85       	ldd	r26, Z+12	; 0x0c
    7cde:	a8 60       	ori	r26, 0x08	; 8
    7ce0:	a4 87       	std	Z+12, r26	; 0x0c
    7ce2:	60 50       	subi	r22, 0x00	; 0
    7ce4:	70 4f       	sbci	r23, 0xF0	; 240
    7ce6:	0c 94 e9 3c 	jmp	0x79d2	; 0x79d2 <memcpy>

00007cea <eeprom_update_block>:
    7cea:	dc 01       	movw	r26, r24
    7cec:	a4 0f       	add	r26, r20
    7cee:	b5 1f       	adc	r27, r21
    7cf0:	41 50       	subi	r20, 0x01	; 1
    7cf2:	50 40       	sbci	r21, 0x00	; 0
    7cf4:	48 f0       	brcs	.+18     	; 0x7d08 <eeprom_update_block+0x1e>
    7cf6:	cb 01       	movw	r24, r22
    7cf8:	84 0f       	add	r24, r20
    7cfa:	95 1f       	adc	r25, r21
    7cfc:	2e 91       	ld	r18, -X
    7cfe:	0e 94 86 3e 	call	0x7d0c	; 0x7d0c <eeprom_update_r18>
    7d02:	41 50       	subi	r20, 0x01	; 1
    7d04:	50 40       	sbci	r21, 0x00	; 0
    7d06:	d0 f7       	brcc	.-12     	; 0x7cfc <eeprom_update_block+0x12>
    7d08:	08 95       	ret

00007d0a <eeprom_update_byte>:
    7d0a:	26 2f       	mov	r18, r22

00007d0c <eeprom_update_r18>:
    7d0c:	0e 94 b7 3e 	call	0x7d6e	; 0x7d6e <eeprom_mapen>
    7d10:	00 80       	ld	r0, Z
    7d12:	02 16       	cp	r0, r18
    7d14:	19 f0       	breq	.+6      	; 0x7d1c <eeprom_update_r18+0x10>
    7d16:	0e 94 91 3e 	call	0x7d22	; 0x7d22 <eeprom_write_r18>
    7d1a:	01 97       	sbiw	r24, 0x01	; 1
    7d1c:	01 97       	sbiw	r24, 0x01	; 1
    7d1e:	08 95       	ret

00007d20 <eeprom_write_byte>:
    7d20:	26 2f       	mov	r18, r22

00007d22 <eeprom_write_r18>:
    7d22:	e0 ec       	ldi	r30, 0xC0	; 192
    7d24:	f1 e0       	ldi	r31, 0x01	; 1
    7d26:	37 85       	ldd	r19, Z+15	; 0x0f
    7d28:	37 fd       	sbrc	r19, 7
    7d2a:	fd cf       	rjmp	.-6      	; 0x7d26 <eeprom_write_r18+0x4>
    7d2c:	34 85       	ldd	r19, Z+12	; 0x0c
    7d2e:	37 7f       	andi	r19, 0xF7	; 247
    7d30:	34 87       	std	Z+12, r19	; 0x0c
    7d32:	37 85       	ldd	r19, Z+15	; 0x0f
    7d34:	31 ff       	sbrs	r19, 1
    7d36:	09 c0       	rjmp	.+18     	; 0x7d4a <eeprom_write_r18+0x28>
    7d38:	36 e3       	ldi	r19, 0x36	; 54
    7d3a:	32 87       	std	Z+10, r19	; 0x0a
    7d3c:	38 ed       	ldi	r19, 0xD8	; 216
    7d3e:	34 bf       	out	0x34, r19	; 52
    7d40:	31 e0       	ldi	r19, 0x01	; 1
    7d42:	33 87       	std	Z+11, r19	; 0x0b
    7d44:	37 85       	ldd	r19, Z+15	; 0x0f
    7d46:	37 fd       	sbrc	r19, 7
    7d48:	fd cf       	rjmp	.-6      	; 0x7d44 <eeprom_write_r18+0x22>
    7d4a:	33 e3       	ldi	r19, 0x33	; 51
    7d4c:	32 87       	std	Z+10, r19	; 0x0a
    7d4e:	80 83       	st	Z, r24
    7d50:	91 83       	std	Z+1, r25	; 0x01
    7d52:	12 82       	std	Z+2, r1	; 0x02
    7d54:	24 83       	std	Z+4, r18	; 0x04
    7d56:	25 e3       	ldi	r18, 0x35	; 53
    7d58:	22 87       	std	Z+10, r18	; 0x0a
    7d5a:	28 ed       	ldi	r18, 0xD8	; 216
    7d5c:	31 e0       	ldi	r19, 0x01	; 1
    7d5e:	24 bf       	out	0x34, r18	; 52
    7d60:	33 87       	std	Z+11, r19	; 0x0b
    7d62:	01 96       	adiw	r24, 0x01	; 1
    7d64:	08 95       	ret

00007d66 <eeprom_read_byte>:
    7d66:	03 d0       	rcall	.+6      	; 0x7d6e <eeprom_mapen>
    7d68:	80 81       	ld	r24, Z
    7d6a:	99 27       	eor	r25, r25
    7d6c:	08 95       	ret

00007d6e <eeprom_mapen>:
    7d6e:	e0 ec       	ldi	r30, 0xC0	; 192
    7d70:	f1 e0       	ldi	r31, 0x01	; 1
    7d72:	37 85       	ldd	r19, Z+15	; 0x0f
    7d74:	37 fd       	sbrc	r19, 7
    7d76:	fd cf       	rjmp	.-6      	; 0x7d72 <eeprom_mapen+0x4>
    7d78:	34 85       	ldd	r19, Z+12	; 0x0c
    7d7a:	38 60       	ori	r19, 0x08	; 8
    7d7c:	34 87       	std	Z+12, r19	; 0x0c
    7d7e:	fc 01       	movw	r30, r24
    7d80:	e0 50       	subi	r30, 0x00	; 0
    7d82:	f0 4f       	sbci	r31, 0xF0	; 240
    7d84:	08 95       	ret

00007d86 <__udivmodsi4>:
    7d86:	a1 e2       	ldi	r26, 0x21	; 33
    7d88:	1a 2e       	mov	r1, r26
    7d8a:	aa 1b       	sub	r26, r26
    7d8c:	bb 1b       	sub	r27, r27
    7d8e:	fd 01       	movw	r30, r26
    7d90:	0d c0       	rjmp	.+26     	; 0x7dac <__udivmodsi4_ep>

00007d92 <__udivmodsi4_loop>:
    7d92:	aa 1f       	adc	r26, r26
    7d94:	bb 1f       	adc	r27, r27
    7d96:	ee 1f       	adc	r30, r30
    7d98:	ff 1f       	adc	r31, r31
    7d9a:	a2 17       	cp	r26, r18
    7d9c:	b3 07       	cpc	r27, r19
    7d9e:	e4 07       	cpc	r30, r20
    7da0:	f5 07       	cpc	r31, r21
    7da2:	20 f0       	brcs	.+8      	; 0x7dac <__udivmodsi4_ep>
    7da4:	a2 1b       	sub	r26, r18
    7da6:	b3 0b       	sbc	r27, r19
    7da8:	e4 0b       	sbc	r30, r20
    7daa:	f5 0b       	sbc	r31, r21

00007dac <__udivmodsi4_ep>:
    7dac:	66 1f       	adc	r22, r22
    7dae:	77 1f       	adc	r23, r23
    7db0:	88 1f       	adc	r24, r24
    7db2:	99 1f       	adc	r25, r25
    7db4:	1a 94       	dec	r1
    7db6:	69 f7       	brne	.-38     	; 0x7d92 <__udivmodsi4_loop>
    7db8:	60 95       	com	r22
    7dba:	70 95       	com	r23
    7dbc:	80 95       	com	r24
    7dbe:	90 95       	com	r25
    7dc0:	9b 01       	movw	r18, r22
    7dc2:	ac 01       	movw	r20, r24
    7dc4:	bd 01       	movw	r22, r26
    7dc6:	cf 01       	movw	r24, r30
    7dc8:	08 95       	ret

00007dca <_exit>:
    7dca:	f8 94       	cli

00007dcc <__stop_program>:
    7dcc:	ff cf       	rjmp	.-2      	; 0x7dcc <__stop_program>
